(dp0
S'r_size:1000\ne_prm:0.200000\ni_scl:0.555556\ns_scl:0.200000\nsp:0.100000\nreg:0.010000'
p1
(lp2
cnumpy.core.multiarray
scalar
p3
(cnumpy
dtype
p4
(S'f8'
p5
I0
I1
tp6
Rp7
(I3
S'<'
p8
NNNI-1
I-1
I0
tp9
bS'`\xa0\xe2;\xf6\x82\xf0?'
p10
tp11
Rp12
ag3
(g7
S'\xfe\x1a\xca\xc4\xab+\xf0?'
p13
tp14
Rp15
ag3
(g7
S'\xb4\xa4\xc9\x81\xa3~\xf0?'
p16
tp17
Rp18
asS'r_size:500\ne_prm:0.200000\ni_scl:0.288889\ns_scl:0.316667\nsp:0.100000\nreg:0.010000'
p19
(lp20
g3
(g7
S'\xde\xe0\xfet\x81\xc0\xf0?'
p21
tp22
Rp23
ag3
(g7
S'\xc4\xc9v=E\xa2\xf0?'
p24
tp25
Rp26
ag3
(g7
S'\x05\xe5(\x02\xcf\x86\xf0?'
p27
tp28
Rp29
asS'r_size:750\ne_prm:0.200000\ni_scl:0.466667\ns_scl:0.200000\nsp:1.000000\nreg:0.010000'
p30
(lp31
g3
(g7
S'\xbf\xaeM\r4\x02\xf0?'
p32
tp33
Rp34
ag3
(g7
S'\xbaoM!/\xe5\xef?'
p35
tp36
Rp37
ag3
(g7
S'\xf4\xad\x07Z\x16\xee\xef?'
p38
tp39
Rp40
asS'r_size:1250\ne_prm:0.200000\ni_scl:0.644444\ns_scl:0.316667\nsp:0.100000\nreg:0.010000'
p41
(lp42
g3
(g7
S'\x9bU\xb8\x06i\xe2\xf0?'
p43
tp44
Rp45
ag3
(g7
S'Wqu@@C\xf0?'
p46
tp47
Rp48
ag3
(g7
S'\xcb\x9b\xe51SK\xf0?'
p49
tp50
Rp51
asS'r_size:1000\ne_prm:0.200000\ni_scl:0.288889\ns_scl:0.316667\nsp:1.000000\nreg:0.010000'
p52
(lp53
g3
(g7
S'85\x06\x8b\xea\x18\xee?'
p54
tp55
Rp56
ag3
(g7
S'z\x8764B\xef\xed?'
p57
tp58
Rp59
ag3
(g7
S'\xfd\x82\x03\x1e?\x80\xee?'
p60
tp61
Rp62
asS'r_size:1250\ne_prm:0.200000\ni_scl:0.200000\ns_scl:0.200000\nsp:0.100000\nreg:0.010000'
p63
(lp64
g3
(g7
S'\xf5\xd6[Z\x02a\xf0?'
p65
tp66
Rp67
ag3
(g7
S'M\xb2\x0cE7N\xf1?'
p68
tp69
Rp70
ag3
(g7
S'd\xabo\x0e6\xb8\xf0?'
p71
tp72
Rp73
asS'r_size:1250\ne_prm:0.200000\ni_scl:0.466667\ns_scl:0.433333\nsp:1.000000\nreg:0.010000'
p74
(lp75
g3
(g7
S'\t\xc4\x02\x94\xbfZ\xf1?'
p76
tp77
Rp78
ag3
(g7
S'\xaad\x9eY\xb1+\xf2?'
p79
tp80
Rp81
ag3
(g7
S'f\xf5Y.&\xaf\xf1?'
p82
tp83
Rp84
asS'r_size:1250\ne_prm:0.200000\ni_scl:0.822222\ns_scl:0.433333\nsp:0.100000\nreg:0.010000'
p85
(lp86
g3
(g7
S'm\x9b\xb4\x9b\xbaP\xf0?'
p87
tp88
Rp89
ag3
(g7
S'B\xb0\x17u\x81M\xf0?'
p90
tp91
Rp92
ag3
(g7
S'F\x94\xf5\xe0\x0by\xf0?'
p93
tp94
Rp95
asS'r_size:1000\ne_prm:0.200000\ni_scl:0.555556\ns_scl:0.433333\nsp:0.100000\nreg:0.010000'
p96
(lp97
g3
(g7
S'\x17\xfe\xe1\xf2\xa1:\xf0?'
p98
tp99
Rp100
ag3
(g7
S'\xc6\xf6\x7f\xe1 *\xf0?'
p101
tp102
Rp103
ag3
(g7
S'\xf9@F\x88\xf2P\xf0?'
p104
tp105
Rp106
asS'r_size:750\ne_prm:0.200000\ni_scl:0.288889\ns_scl:0.433333\nsp:0.100000\nreg:0.010000'
p107
(lp108
g3
(g7
S'\xdat\xb2\x1f\x00m\xf0?'
p109
tp110
Rp111
ag3
(g7
S'\xfe\xa0\x9e\x90\xb5-\xf0?'
p112
tp113
Rp114
ag3
(g7
S'~\x8d#\x1c\x90M\xf0?'
p115
tp116
Rp117
asS'r_size:750\ne_prm:0.200000\ni_scl:0.822222\ns_scl:0.550000\nsp:0.500000\nreg:0.010000'
p118
(lp119
g3
(g7
S'\xad\x9b\xa0\xc0\xbe\x95\xf2?'
p120
tp121
Rp122
ag3
(g7
S'\xa8\x8a\xb6\xc6\xd8k\xf1?'
p123
tp124
Rp125
ag3
(g7
S'\x83\x1b+Tbn\xf1?'
p126
tp127
Rp128
asS'r_size:1000\ne_prm:0.200000\ni_scl:0.911111\ns_scl:0.550000\nsp:1.000000\nreg:0.010000'
p129
(lp130
g3
(g7
S'\xf7\xb1\x8e\xef\x96\x9f\xf6?'
p131
tp132
Rp133
ag3
(g7
S'\xbeP\xaa\xd8\xfe\x9d\xf6?'
p134
tp135
Rp136
ag3
(g7
S'F\xa2\xc5\xd1\x0el\xf6?'
p137
tp138
Rp139
asS'r_size:1000\ne_prm:0.200000\ni_scl:0.288889\ns_scl:0.550000\nsp:0.100000\nreg:0.010000'
p140
(lp141
g3
(g7
S'\xef\xd4\x0b\x14 \x1b\xf0?'
p142
tp143
Rp144
ag3
(g7
S'\r\xe1\xd9s\x89I\xf0?'
p145
tp146
Rp147
ag3
(g7
S'E\xd4\x0e\xa5#\x0b\xf0?'
p148
tp149
Rp150
asS'r_size:750\ne_prm:0.200000\ni_scl:0.822222\ns_scl:0.550000\nsp:1.000000\nreg:0.010000'
p151
(lp152
g3
(g7
S'\x9cs\xf7\x8d\x8cE\xf5?'
p153
tp154
Rp155
ag3
(g7
S'\xbcl\xdf\xe4\xf3$\xf6?'
p156
tp157
Rp158
ag3
(g7
S'*\x8f\x167\xa8\x04\xf6?'
p159
tp160
Rp161
asS'r_size:1000\ne_prm:0.200000\ni_scl:1.000000\ns_scl:0.550000\nsp:0.500000\nreg:0.010000'
p162
(lp163
g3
(g7
S'};W\xd4(A\xf3?'
p164
tp165
Rp166
ag3
(g7
S'pv\xb2\x04r\xe2\xf3?'
p167
tp168
Rp169
ag3
(g7
S'\xdbL\xd1\xf8"#\xf3?'
p170
tp171
Rp172
asS'r_size:750\ne_prm:0.200000\ni_scl:0.466667\ns_scl:0.666667\nsp:0.500000\nreg:0.010000'
p173
(lp174
g3
(g7
S'\x1ew\xda\x8c\xb2L\xf0?'
p175
tp176
Rp177
ag3
(g7
S'9X\t\xa2\x07\xc6\xf0?'
p178
tp179
Rp180
ag3
(g7
S'L\xe7<QR\xc9\xf0?'
p181
tp182
Rp183
asS'r_size:750\ne_prm:0.200000\ni_scl:0.377778\ns_scl:0.200000\nsp:0.500000\nreg:0.010000'
p184
(lp185
g3
(g7
S'\xf4\xd4\x89\xbe\xbb1\xf0?'
p186
tp187
Rp188
ag3
(g7
S'\xbe\x9fD\xd3N(\xf0?'
p189
tp190
Rp191
ag3
(g7
S'\x02\xc0\x86A\x1e(\xf0?'
p192
tp193
Rp194
asS'r_size:1250\ne_prm:0.200000\ni_scl:0.377778\ns_scl:0.200000\nsp:0.500000\nreg:0.010000'
p195
(lp196
g3
(g7
S'\x14\x0c\\\xda\x8f.\xf0?'
p197
tp198
Rp199
ag3
(g7
S'\xd3\xd1X\x85\x133\xf0?'
p200
tp201
Rp202
ag3
(g7
S'TV\x18\x19]1\xf0?'
p203
tp204
Rp205
asS'r_size:750\ne_prm:0.200000\ni_scl:0.200000\ns_scl:0.316667\nsp:0.100000\nreg:0.010000'
p206
(lp207
g3
(g7
S'\xec?W\x95W\t\xf1?'
p208
tp209
Rp210
ag3
(g7
S'\x02UM\x95\x16\x0b\xf0?'
p211
tp212
Rp213
ag3
(g7
S'\x0fI\xa2\xb6\x17\x06\xf0?'
p214
tp215
Rp216
asS'r_size:750\ne_prm:0.200000\ni_scl:0.555556\ns_scl:0.200000\nsp:1.000000\nreg:0.010000'
p217
(lp218
g3
(g7
S'\xe7x\x9a\xc5\x0b\x02\xf0?'
p219
tp220
Rp221
ag3
(g7
S'\x11\xaf<@g\xf4\xef?'
p222
tp223
Rp224
ag3
(g7
S'\xb1\x924|8\xf8\xef?'
p225
tp226
Rp227
asS'r_size:1000\ne_prm:0.200000\ni_scl:0.377778\ns_scl:0.666667\nsp:0.100000\nreg:0.010000'
p228
(lp229
g3
(g7
S'\xa2\x07\xfc\xd3;/\xf0?'
p230
tp231
Rp232
ag3
(g7
S'rE\xb9\x96\x99J\xf0?'
p233
tp234
Rp235
ag3
(g7
S'\x06\xcb\x9d#J3\xf0?'
p236
tp237
Rp238
asS'r_size:500\ne_prm:0.200000\ni_scl:0.555556\ns_scl:0.200000\nsp:0.100000\nreg:0.010000'
p239
(lp240
g3
(g7
S'>\xd2<\x04\x14h\xf0?'
p241
tp242
Rp243
ag3
(g7
S'\xca\x85\x1fI\xc1!\xf0?'
p244
tp245
Rp246
ag3
(g7
S'\x8d\x7f\xd6\xb4\xeb\x93\xf0?'
p247
tp248
Rp249
asS'r_size:1250\ne_prm:0.200000\ni_scl:0.911111\ns_scl:0.200000\nsp:1.000000\nreg:0.010000'
p250
(lp251
g3
(g7
S'\x0f \x0cn@\xba\xee?'
p252
tp253
Rp254
ag3
(g7
S'/Y/u\xf7\xb7\xee?'
p255
tp256
Rp257
ag3
(g7
S'% E\xbb\x1ag\xee?'
p258
tp259
Rp260
asS'r_size:1000\ne_prm:0.200000\ni_scl:0.733333\ns_scl:0.433333\nsp:0.500000\nreg:0.010000'
p261
(lp262
g3
(g7
S'\xf2\xabn\xd5\x80m\xf1?'
p263
tp264
Rp265
ag3
(g7
S'\xd8a[\xc9X\x1f\xf1?'
p266
tp267
Rp268
ag3
(g7
S'8\x83\xa1Et\x01\xf1?'
p269
tp270
Rp271
asS'r_size:750\ne_prm:0.200000\ni_scl:0.200000\ns_scl:0.666667\nsp:1.000000\nreg:0.010000'
p272
(lp273
g3
(g7
S'Zzpc\xd8J\xed?'
p274
tp275
Rp276
ag3
(g7
S'\xa5\x89\x83h\xb9-\xed?'
p277
tp278
Rp279
ag3
(g7
S'\xb4\xf2\x14\xca\xebn\xec?'
p280
tp281
Rp282
asS'r_size:500\ne_prm:0.200000\ni_scl:0.555556\ns_scl:0.666667\nsp:0.500000\nreg:0.010000'
p283
(lp284
g3
(g7
S'\xf0\xdf\xa0\xa6\x14l\xf0?'
p285
tp286
Rp287
ag3
(g7
S'\x9b\xa9\xbd\x02O\xf9\xf0?'
p288
tp289
Rp290
ag3
(g7
S'r\xd3\xb6Y\x1e\xa0\xf0?'
p291
tp292
Rp293
asS'r_size:500\ne_prm:0.200000\ni_scl:0.733333\ns_scl:0.550000\nsp:1.000000\nreg:0.010000'
p294
(lp295
g3
(g7
S'\xf9\xc9\xd9\xea\x920\xf5?'
p296
tp297
Rp298
ag3
(g7
S'\xdcb\xd5<\xcee\xf4?'
p299
tp300
Rp301
ag3
(g7
S'\xae\xbe\xd9;\x8e\xb4\xf4?'
p302
tp303
Rp304
asS'r_size:1000\ne_prm:0.200000\ni_scl:0.822222\ns_scl:0.550000\nsp:1.000000\nreg:0.010000'
p305
(lp306
g3
(g7
S'K\xf7\xf6\x9c\x14\x17\xf6?'
p307
tp308
Rp309
ag3
(g7
S'\xab\xf0\x0c\xd6Li\xf6?'
p310
tp311
Rp312
ag3
(g7
S'\xecQ0/\x8fU\xf6?'
p313
tp314
Rp315
asS'r_size:1000\ne_prm:0.200000\ni_scl:0.200000\ns_scl:0.316667\nsp:1.000000\nreg:0.010000'
p316
(lp317
g3
(g7
S'\x0f\x1a\nz\xdcS\xef?'
p318
tp319
Rp320
ag3
(g7
S'\xda=\x9a\x981I\xef?'
p321
tp322
Rp323
ag3
(g7
S'\x11\xfb,04C\xef?'
p324
tp325
Rp326
asS'r_size:1250\ne_prm:0.200000\ni_scl:0.644444\ns_scl:0.433333\nsp:1.000000\nreg:0.010000'
p327
(lp328
g3
(g7
S'\xb8_sM\xddI\xf3?'
p329
tp330
Rp331
ag3
(g7
S'\x9db\xf7\x7f\x1a\x0c\xf3?'
p332
tp333
Rp334
ag3
(g7
S'\xa8\n\x85{UN\xf3?'
p335
tp336
Rp337
asS'r_size:750\ne_prm:0.200000\ni_scl:1.000000\ns_scl:0.200000\nsp:0.100000\nreg:0.010000'
p338
(lp339
g3
(g7
S'$\xad)\x08\xbc\x99\xf0?'
p340
tp341
Rp342
ag3
(g7
S'\xa3.+\xd3dY\xf0?'
p343
tp344
Rp345
ag3
(g7
S'\xd3\x0c:Fzq\xf1?'
p346
tp347
Rp348
asS'r_size:1000\ne_prm:0.200000\ni_scl:0.466667\ns_scl:0.316667\nsp:0.500000\nreg:0.010000'
p349
(lp350
g3
(g7
S'\xc2\xf5\x8boq~\xf0?'
p351
tp352
Rp353
ag3
(g7
S'\xc5\xe1\xd0,\x07\x87\xf0?'
p354
tp355
Rp356
ag3
(g7
S'\xfa\xec\xce\x94\xf0}\xf0?'
p357
tp358
Rp359
asS'r_size:1000\ne_prm:0.200000\ni_scl:0.466667\ns_scl:0.200000\nsp:0.100000\nreg:0.010000'
p360
(lp361
g3
(g7
S'\x84_\x97\xa8H\xc8\xf0?'
p362
tp363
Rp364
ag3
(g7
S'\xe7\xaa\xda\n]\x91\xf0?'
p365
tp366
Rp367
ag3
(g7
S'Gu\x81w\x9d%\xf0?'
p368
tp369
Rp370
asS'r_size:500\ne_prm:0.200000\ni_scl:0.555556\ns_scl:0.316667\nsp:0.100000\nreg:0.010000'
p371
(lp372
g3
(g7
S'\xf7\xf4\xdc\xb6\xe8k\xf0?'
p373
tp374
Rp375
ag3
(g7
S'Ysl\xa5\x90 \xf0?'
p376
tp377
Rp378
ag3
(g7
S'\xa5T\xd2$O,\xf0?'
p379
tp380
Rp381
asS'r_size:500\ne_prm:0.200000\ni_scl:1.000000\ns_scl:0.550000\nsp:1.000000\nreg:0.010000'
p382
(lp383
g3
(g7
S'\xb7\x88vo2\x87\xf4?'
p384
tp385
Rp386
ag3
(g7
S'N\x01\xac\x19\x05\xb2\xf4?'
p387
tp388
Rp389
ag3
(g7
S'\xaa\xb7\x85v\xffq\xf4?'
p390
tp391
Rp392
asS'r_size:1000\ne_prm:0.200000\ni_scl:0.644444\ns_scl:0.433333\nsp:1.000000\nreg:0.010000'
p393
(lp394
g3
(g7
S'\x90R\x8a[\x80\x94\xf2?'
p395
tp396
Rp397
ag3
(g7
S'\xa2H.g\xee\xa2\xf2?'
p398
tp399
Rp400
ag3
(g7
S'\xca\xf2(\x9c\xde<\xf3?'
p401
tp402
Rp403
asS'r_size:750\ne_prm:0.200000\ni_scl:0.288889\ns_scl:0.316667\nsp:0.500000\nreg:0.010000'
p404
(lp405
g3
(g7
S'\xfe\xcc\xa8\xb6\xf2/\xf0?'
p406
tp407
Rp408
ag3
(g7
S'\xadu\xfd\xf1\xa3>\xf0?'
p409
tp410
Rp411
ag3
(g7
S'!\xde4\xbd42\xf0?'
p412
tp413
Rp414
asS'r_size:500\ne_prm:0.200000\ni_scl:0.644444\ns_scl:0.200000\nsp:0.100000\nreg:0.010000'
p415
(lp416
g3
(g7
S'\xcf\x0cL\xcfO8\xf0?'
p417
tp418
Rp419
ag3
(g7
S'\x9eiUA\xfaa\xf0?'
p420
tp421
Rp422
ag3
(g7
S'\x03\xa4\x00[\x9d\x1b\xf1?'
p423
tp424
Rp425
asS'r_size:1000\ne_prm:0.200000\ni_scl:0.377778\ns_scl:0.433333\nsp:0.500000\nreg:0.010000'
p426
(lp427
g3
(g7
S'\xdc\x87\xed\xc5N\x82\xf0?'
p428
tp429
Rp430
ag3
(g7
S'\x9e \x9b\xca}y\xf0?'
p431
tp432
Rp433
ag3
(g7
S'\x92\xfc|\xb5\x0f\x81\xf0?'
p434
tp435
Rp436
asS'r_size:1000\ne_prm:0.200000\ni_scl:0.555556\ns_scl:0.200000\nsp:1.000000\nreg:0.010000'
p437
(lp438
g3
(g7
S'6\xe8\xa0\xe7\x9d\x02\xf0?'
p439
tp440
Rp441
ag3
(g7
S'\xd5\x19\x0e\xaa\x8f\xf1\xef?'
p442
tp443
Rp444
ag3
(g7
S'$\xa9\x87\x97\xfd\xfe\xef?'
p445
tp446
Rp447
asS'r_size:750\ne_prm:0.200000\ni_scl:0.555556\ns_scl:0.200000\nsp:0.100000\nreg:0.010000'
p448
(lp449
g3
(g7
S'ZG\x1b7\xaa0\xf0?'
p450
tp451
Rp452
ag3
(g7
S'\xb2\xd0\x84\xb5\xa7c\xf0?'
p453
tp454
Rp455
ag3
(g7
S'?3\xf7\x0f\x0c*\xf0?'
p456
tp457
Rp458
asS'r_size:1000\ne_prm:0.200000\ni_scl:1.000000\ns_scl:0.433333\nsp:0.500000\nreg:0.010000'
p459
(lp460
g3
(g7
S'\xf1I\x9aF\x0f\xa9\xf3?'
p461
tp462
Rp463
ag3
(g7
S'\x90*S\x95\xf0\x9d\xf3?'
p464
tp465
Rp466
ag3
(g7
S'\xf6M\xe4:!\xa7\xf3?'
p467
tp468
Rp469
asS'r_size:500\ne_prm:0.200000\ni_scl:0.466667\ns_scl:0.316667\nsp:1.000000\nreg:0.010000'
p470
(lp471
g3
(g7
S'\x81\xd2\x95&\x13\x0e\xee?'
p472
tp473
Rp474
ag3
(g7
S'\xa3kW~,"\xee?'
p475
tp476
Rp477
ag3
(g7
S'\x17\x93P\x16S\xcb\xed?'
p478
tp479
Rp480
asS'r_size:750\ne_prm:0.200000\ni_scl:0.288889\ns_scl:0.200000\nsp:1.000000\nreg:0.010000'
p481
(lp482
g3
(g7
S';\xb1\nm\xe5\xae\xef?'
p483
tp484
Rp485
ag3
(g7
S'W`\xbe\x06|\xa1\xef?'
p486
tp487
Rp488
ag3
(g7
S'\xf3>\xba\x141\x99\xef?'
p489
tp490
Rp491
asS'r_size:750\ne_prm:0.200000\ni_scl:0.466667\ns_scl:0.200000\nsp:0.500000\nreg:0.010000'
p492
(lp493
g3
(g7
S'\x15\xc5\xfe&\x17?\xf0?'
p494
tp495
Rp496
ag3
(g7
S'\x816\xee\xf0\xfd8\xf0?'
p497
tp498
Rp499
ag3
(g7
S'\x17\xf0\xbc\x89\x12?\xf0?'
p500
tp501
Rp502
asS'r_size:500\ne_prm:0.200000\ni_scl:1.000000\ns_scl:0.316667\nsp:1.000000\nreg:0.010000'
p503
(lp504
g3
(g7
S'\xacv\xe8\xecj\x83\xf4?'
p505
tp506
Rp507
ag3
(g7
S'\x92\xd3\xe4\xbc9\x02\xf4?'
p508
tp509
Rp510
ag3
(g7
S'(v1\x01\xb3\x9c\xf4?'
p511
tp512
Rp513
asS'r_size:750\ne_prm:0.200000\ni_scl:0.555556\ns_scl:0.433333\nsp:0.500000\nreg:0.010000'
p514
(lp515
g3
(g7
S'Xs\x8d\x9b\xb7\xdc\xf0?'
p516
tp517
Rp518
ag3
(g7
S'\xe4h\x9c\x00\t\xd1\xf0?'
p519
tp520
Rp521
ag3
(g7
S'.[\xc9\xed[\x97\xf0?'
p522
tp523
Rp524
asS'r_size:500\ne_prm:0.200000\ni_scl:0.466667\ns_scl:0.200000\nsp:0.100000\nreg:0.010000'
p525
(lp526
g3
(g7
S'\xbb\xa3=\x0b\x9b\x9f\xf0?'
p527
tp528
Rp529
ag3
(g7
S'\xad\xb5\xc0\xe9\xc6\xc8\xf0?'
p530
tp531
Rp532
ag3
(g7
S'QL\x0f\x89U\xab\xf0?'
p533
tp534
Rp535
asS'r_size:500\ne_prm:0.200000\ni_scl:0.377778\ns_scl:0.200000\nsp:0.100000\nreg:0.010000'
p536
(lp537
g3
(g7
S'\xa3\x02=\x10\xee\xee\xf0?'
p538
tp539
Rp540
ag3
(g7
S'\xdd\xbc\xd1r\xad]\xf0?'
p541
tp542
Rp543
ag3
(g7
S'\x16#2\xc3Si\xf0?'
p544
tp545
Rp546
asS'r_size:1000\ne_prm:0.200000\ni_scl:1.000000\ns_scl:0.550000\nsp:1.000000\nreg:0.010000'
p547
(lp548
g3
(g7
S')~G\xa6\xb9n\xf6?'
p549
tp550
Rp551
ag3
(g7
S'\x92\xec\xc5\xbc\x81>\xf6?'
p552
tp553
Rp554
ag3
(g7
S'@\x12\x12\x95l\x99\xf6?'
p555
tp556
Rp557
asS'r_size:1000\ne_prm:0.200000\ni_scl:0.200000\ns_scl:0.666667\nsp:0.500000\nreg:0.010000'
p558
(lp559
g3
(g7
S'\xfc\x84z\xdf\xd8E\xf0?'
p560
tp561
Rp562
ag3
(g7
S'\x90]\xbd~\xbfT\xf0?'
p563
tp564
Rp565
ag3
(g7
S'\xe2\x9d\xe23\x1eN\xf0?'
p566
tp567
Rp568
asS'r_size:1250\ne_prm:0.200000\ni_scl:0.377778\ns_scl:0.316667\nsp:0.100000\nreg:0.010000'
p569
(lp570
g3
(g7
S'\x87\xcf\x88@Jv\xf0?'
p571
tp572
Rp573
ag3
(g7
S'K\xb6\xb2P\xac\x16\xf0?'
p574
tp575
Rp576
ag3
(g7
S'\xed\\\xbb\xaf\x99W\xf0?'
p577
tp578
Rp579
asS'r_size:750\ne_prm:0.200000\ni_scl:0.555556\ns_scl:0.200000\nsp:0.500000\nreg:0.010000'
p580
(lp581
g3
(g7
S'\x11\x01\x04]\xf7P\xf0?'
p582
tp583
Rp584
ag3
(g7
S'O%\xe4\x1b\x98S\xf0?'
p585
tp586
Rp587
ag3
(g7
S'\x18\xcb\xfe3\xb7J\xf0?'
p588
tp589
Rp590
asS'r_size:750\ne_prm:0.200000\ni_scl:0.555556\ns_scl:0.316667\nsp:1.000000\nreg:0.010000'
p591
(lp592
g3
(g7
S'd\x98\x86F\xdd\x86\xe9?'
p593
tp594
Rp595
ag3
(g7
S'\xc3\xd41\x9d\xde\xf5\xe8?'
p596
tp597
Rp598
ag3
(g7
S'~\xe2Z\x1b\xfeT\xe7?'
p599
tp600
Rp601
asS'r_size:500\ne_prm:0.200000\ni_scl:0.288889\ns_scl:0.433333\nsp:0.100000\nreg:0.010000'
p602
(lp603
g3
(g7
S'\x82CN9if\xf0?'
p604
tp605
Rp606
ag3
(g7
S'\xdb\xe6\xa7W~\x1e\xf0?'
p607
tp608
Rp609
ag3
(g7
S'\x9b\x87\xe5\xa6\xa2\x1d\xf0?'
p610
tp611
Rp612
asS'r_size:750\ne_prm:0.200000\ni_scl:0.822222\ns_scl:0.316667\nsp:0.100000\nreg:0.010000'
p613
(lp614
g3
(g7
S'\xf5\x9eU2\xe0>\xf1?'
p615
tp616
Rp617
ag3
(g7
S'%\x93\x14mCG\xf0?'
p618
tp619
Rp620
ag3
(g7
S'8\xb0dM\xcf>\xf0?'
p621
tp622
Rp623
asS'r_size:1000\ne_prm:0.200000\ni_scl:0.822222\ns_scl:0.550000\nsp:0.500000\nreg:0.010000'
p624
(lp625
g3
(g7
S'T\xe86i\x85A\xf1?'
p626
tp627
Rp628
ag3
(g7
S'\x92\xec\x99T\xb2(\xf2?'
p629
tp630
Rp631
ag3
(g7
S'\xf9YQ\xa6B8\xf1?'
p632
tp633
Rp634
asS'r_size:500\ne_prm:0.200000\ni_scl:0.466667\ns_scl:0.666667\nsp:0.500000\nreg:0.010000'
p635
(lp636
g3
(g7
S'\xe5\xb2{\xaa/\xbe\xf0?'
p637
tp638
Rp639
ag3
(g7
S"\x03U\xb0\x96h'\xf0?"
p640
tp641
Rp642
ag3
(g7
S"4\x89'\x94g\xbd\xf0?"
p643
tp644
Rp645
asS'r_size:750\ne_prm:0.200000\ni_scl:0.555556\ns_scl:0.666667\nsp:0.100000\nreg:0.010000'
p646
(lp647
g3
(g7
S'\xbd\x1bW\x16\x02K\xf0?'
p648
tp649
Rp650
ag3
(g7
S'\x84\xf4\x18!O\xd3\xf0?'
p651
tp652
Rp653
ag3
(g7
S'\xcd\xac\xae<\x0e\xbc\xf0?'
p654
tp655
Rp656
asS'r_size:500\ne_prm:0.200000\ni_scl:0.644444\ns_scl:0.433333\nsp:0.500000\nreg:0.010000'
p657
(lp658
g3
(g7
S'>\xef\xe5i\xc3\xfe\xf0?'
p659
tp660
Rp661
ag3
(g7
S'\x9a-+\xe7I\x17\xf1?'
p662
tp663
Rp664
ag3
(g7
S'\xd5\x07\x82\xe6\xe1\xe7\xf0?'
p665
tp666
Rp667
asS'r_size:750\ne_prm:0.200000\ni_scl:0.911111\ns_scl:0.200000\nsp:0.500000\nreg:0.010000'
p668
(lp669
g3
(g7
S'Q\xb6\x02\xc5@\xf7\xf0?'
p670
tp671
Rp672
ag3
(g7
S'\xc8Ak(\x1fO\xf1?'
p673
tp674
Rp675
ag3
(g7
S'\xd6m*\x86\xe3\x9c\xf1?'
p676
tp677
Rp678
asS'r_size:1000\ne_prm:0.200000\ni_scl:0.466667\ns_scl:0.550000\nsp:0.500000\nreg:0.010000'
p679
(lp680
g3
(g7
S'\xee\ref\xff\x8b\xf0?'
p681
tp682
Rp683
ag3
(g7
S'\xd9\x19G\x92\x17\x93\xf0?'
p684
tp685
Rp686
ag3
(g7
S'H\xa6\x94\x1d\x9bf\xf0?'
p687
tp688
Rp689
asS'r_size:500\ne_prm:0.200000\ni_scl:0.555556\ns_scl:0.550000\nsp:0.500000\nreg:0.010000'
p690
(lp691
g3
(g7
S'@\xe2\xc2\xce\xb3\xfa\xf0?'
p692
tp693
Rp694
ag3
(g7
S'{\xcb\xdbX1\xda\xf0?'
p695
tp696
Rp697
ag3
(g7
S'\x15\xd7XN\xac\xc5\xf0?'
p698
tp699
Rp700
asS'r_size:1250\ne_prm:0.200000\ni_scl:0.644444\ns_scl:0.433333\nsp:0.500000\nreg:0.010000'
p701
(lp702
g3
(g7
S'\xeb\n:n\xad\xfc\xf0?'
p703
tp704
Rp705
ag3
(g7
S'\xb6\x0b\x9a\xdb%\x16\xf1?'
p706
tp707
Rp708
ag3
(g7
S'a\xaaV\x06-\xd9\xf0?'
p709
tp710
Rp711
asS'r_size:750\ne_prm:0.200000\ni_scl:0.555556\ns_scl:0.666667\nsp:0.500000\nreg:0.010000'
p712
(lp713
g3
(g7
S'RS\xa6yb\xce\xf0?'
p714
tp715
Rp716
ag3
(g7
S'\xc6\xd4\xb5|\x94\r\xf1?'
p717
tp718
Rp719
ag3
(g7
S'\xe0>\x07\x9ba\xea\xf0?'
p720
tp721
Rp722
asS'r_size:750\ne_prm:0.200000\ni_scl:0.644444\ns_scl:0.316667\nsp:0.100000\nreg:0.010000'
p723
(lp724
g3
(g7
S'\x8ePEo\x8a\xf2\xf0?'
p725
tp726
Rp727
ag3
(g7
S'0P\x15\xa3\xd8\x83\xf0?'
p728
tp729
Rp730
ag3
(g7
S'q\xdd\x93\xf73W\xf0?'
p731
tp732
Rp733
asS'r_size:1250\ne_prm:0.200000\ni_scl:0.733333\ns_scl:0.316667\nsp:0.100000\nreg:0.010000'
p734
(lp735
g3
(g7
S'Fe\xd1\xad\xd15\xf0?'
p736
tp737
Rp738
ag3
(g7
S'\x96\xa5G\x18\xdd\xcc\xf2?'
p739
tp740
Rp741
ag3
(g7
S'\x0f\x06\x98f\xaf4\xf0?'
p742
tp743
Rp744
asS'r_size:1250\ne_prm:0.200000\ni_scl:0.733333\ns_scl:0.550000\nsp:0.500000\nreg:0.010000'
p745
(lp746
g3
(g7
S"\xb4'z\x18d\xcf\xf1?"
p747
tp748
Rp749
ag3
(g7
S'6\x1bqZ\xd0\xb4\xf1?'
p750
tp751
Rp752
ag3
(g7
S'\x85t\x97hA\xba\xf1?'
p753
tp754
Rp755
asS'r_size:1000\ne_prm:0.200000\ni_scl:0.466667\ns_scl:0.433333\nsp:0.500000\nreg:0.010000'
p756
(lp757
g3
(g7
S'P\x8e\xcf\xb1\xfb\xa8\xf0?'
p758
tp759
Rp760
ag3
(g7
S'\x9e\xd2\xcf\x87\xd2\xab\xf0?'
p761
tp762
Rp763
ag3
(g7
S'\x8a\x8dM\x98 \xa5\xf0?'
p764
tp765
Rp766
asS'r_size:500\ne_prm:0.200000\ni_scl:0.911111\ns_scl:0.550000\nsp:1.000000\nreg:0.010000'
p767
(lp768
g3
(g7
S'\x14\xdf|\xe0(3\xf4?'
p769
tp770
Rp771
ag3
(g7
S'y-P\x18\xf2\x8d\xf5?'
p772
tp773
Rp774
ag3
(g7
S'\xf0\x86\xc6\xe0l6\xf4?'
p775
tp776
Rp777
asS'r_size:1250\ne_prm:0.200000\ni_scl:0.200000\ns_scl:0.666667\nsp:1.000000\nreg:0.010000'
p778
(lp779
g3
(g7
S'P`\x9f"\xb0\x1c\xee?'
p780
tp781
Rp782
ag3
(g7
S'\xdc\xed{\xab*h\xee?'
p783
tp784
Rp785
ag3
(g7
S'\x11q\xb6,\xe4\xde\xeb?'
p786
tp787
Rp788
asS'r_size:500\ne_prm:0.200000\ni_scl:0.200000\ns_scl:0.550000\nsp:1.000000\nreg:0.010000'
p789
(lp790
g3
(g7
S'\xc3\xc0,U\x8c@\xec?'
p791
tp792
Rp793
ag3
(g7
S'];D\xf1\x93Z\xec?'
p794
tp795
Rp796
ag3
(g7
S'H\x15\x9a,\\x\xec?'
p797
tp798
Rp799
asS'r_size:500\ne_prm:0.200000\ni_scl:0.911111\ns_scl:0.433333\nsp:0.100000\nreg:0.010000'
p800
(lp801
g3
(g7
S'{\r)\x0f\xdf\xa5\xf0?'
p802
tp803
Rp804
ag3
(g7
S'\x12\xba\x95\xa3\xeeu\xf4?'
p805
tp806
Rp807
ag3
(g7
S'Q\x80f\xa1\x10f\xf0?'
p808
tp809
Rp810
asS'r_size:750\ne_prm:0.200000\ni_scl:0.466667\ns_scl:0.200000\nsp:0.100000\nreg:0.010000'
p811
(lp812
g3
(g7
S'\xd9\x85\x7fV\xaf\xb7\xf0?'
p813
tp814
Rp815
ag3
(g7
S'\x18{\xad\x06j\xb6\xf0?'
p816
tp817
Rp818
ag3
(g7
S'C2|\xd4\xe3w\xf0?'
p819
tp820
Rp821
asS'r_size:1250\ne_prm:0.200000\ni_scl:0.822222\ns_scl:0.200000\nsp:0.100000\nreg:0.010000'
p822
(lp823
g3
(g7
S'\xaf\x955\xb9\xcb9\xf0?'
p824
tp825
Rp826
ag3
(g7
S'h\xeb\xd2\xf9d|\xf0?'
p827
tp828
Rp829
ag3
(g7
S'\x94}\xd8\x7f8g\xf0?'
p830
tp831
Rp832
asS'r_size:750\ne_prm:0.200000\ni_scl:0.288889\ns_scl:0.200000\nsp:0.500000\nreg:0.010000'
p833
(lp834
g3
(g7
S'\xd6\xcc\x85\xfa\x84\x1c\xf0?'
p835
tp836
Rp837
ag3
(g7
S'\xcfd\x11\xa7\xa2-\xf0?'
p838
tp839
Rp840
ag3
(g7
S'\xdf\xec\x9f\x8b5\x1d\xf0?'
p841
tp842
Rp843
asS'r_size:500\ne_prm:0.200000\ni_scl:0.555556\ns_scl:0.666667\nsp:0.100000\nreg:0.010000'
p844
(lp845
g3
(g7
S'!.\x02\x81\xd4\xa9\xf0?'
p846
tp847
Rp848
ag3
(g7
S'\xf7\xb4&4\xdb\x88\xf0?'
p849
tp850
Rp851
ag3
(g7
S'\x1aQ\xe0-bZ\xf0?'
p852
tp853
Rp854
asS'r_size:1000\ne_prm:0.200000\ni_scl:0.822222\ns_scl:0.316667\nsp:0.500000\nreg:0.010000'
p855
(lp856
g3
(g7
S'\x8f\xa7\xa9\xdf\xe1\x86\xf1?'
p857
tp858
Rp859
ag3
(g7
S'J\xaf \x1d\xf7\xe9\xf1?'
p860
tp861
Rp862
ag3
(g7
S'\xf6\xa3\xebK\xc2K\xf2?'
p863
tp864
Rp865
asS'r_size:750\ne_prm:0.200000\ni_scl:0.555556\ns_scl:0.433333\nsp:0.100000\nreg:0.010000'
p866
(lp867
g3
(g7
S'&\x83\xc8Nv5\xf0?'
p868
tp869
Rp870
ag3
(g7
S'3\x02\xe0i\x99\xe0\xf0?'
p871
tp872
Rp873
ag3
(g7
S'\xa1\xb8\x02\x8b#3\xf0?'
p874
tp875
Rp876
asS'r_size:750\ne_prm:0.200000\ni_scl:0.377778\ns_scl:0.316667\nsp:0.100000\nreg:0.010000'
p877
(lp878
g3
(g7
S'q[\x06\xecW-\xf0?'
p879
tp880
Rp881
ag3
(g7
S'\xebZG\x05k\x1d\xf0?'
p882
tp883
Rp884
ag3
(g7
S'\x82\x98\xe6\xda\x95\x1b\xf0?'
p885
tp886
Rp887
asS'r_size:1250\ne_prm:0.200000\ni_scl:0.466667\ns_scl:0.200000\nsp:1.000000\nreg:0.010000'
p888
(lp889
g3
(g7
S'\x15\xde#%\x13\x05\xf0?'
p890
tp891
Rp892
ag3
(g7
S'\x89S(\x9fh\x05\xf0?'
p893
tp894
Rp895
ag3
(g7
S'`\xe1\xf5\x90\xf5\x0f\xf0?'
p896
tp897
Rp898
asS'r_size:750\ne_prm:0.200000\ni_scl:1.000000\ns_scl:0.433333\nsp:0.500000\nreg:0.010000'
p899
(lp900
g3
(g7
S'\x9d\x1d+\xb5\xeb\xe8\xf3?'
p901
tp902
Rp903
ag3
(g7
S'\x03\x91\xe0\xcc\x9f\x9f\xf3?'
p904
tp905
Rp906
ag3
(g7
S'\xfe\xf7^\xe7H\x01\xf3?'
p907
tp908
Rp909
asS'r_size:750\ne_prm:0.200000\ni_scl:0.555556\ns_scl:0.433333\nsp:1.000000\nreg:0.010000'
p910
(lp911
g3
(g7
S'2>\x9b?\xfca\xf2?'
p912
tp913
Rp914
ag3
(g7
S'x\t\xac\xf5!\xb5\xf1?'
p915
tp916
Rp917
ag3
(g7
S'u\xb1\x18\xd1\x02\x84\xf1?'
p918
tp919
Rp920
asS'r_size:750\ne_prm:0.200000\ni_scl:0.377778\ns_scl:0.433333\nsp:0.500000\nreg:0.010000'
p921
(lp922
g3
(g7
S'a\x13\x0c`.p\xf0?'
p923
tp924
Rp925
ag3
(g7
S'\x8aL/\x03\x99k\xf0?'
p926
tp927
Rp928
ag3
(g7
S'\xfe\xddO\x83\xe2o\xf0?'
p929
tp930
Rp931
asS'r_size:500\ne_prm:0.200000\ni_scl:0.466667\ns_scl:0.316667\nsp:0.500000\nreg:0.010000'
p932
(lp933
g3
(g7
S'\xa82I%\xfb\xa1\xf0?'
p934
tp935
Rp936
ag3
(g7
S'S\x82L\xcdty\xf0?'
p937
tp938
Rp939
ag3
(g7
S'\xad\x8a\xd0/Fr\xf0?'
p940
tp941
Rp942
asS'r_size:1000\ne_prm:0.200000\ni_scl:0.555556\ns_scl:0.316667\nsp:1.000000\nreg:0.010000'
p943
(lp944
g3
(g7
S'Y\x06P\x0eFD\xe8?'
p945
tp946
Rp947
ag3
(g7
S'\x9b\x92\xd9\xa3\xda>\xe9?'
p948
tp949
Rp950
ag3
(g7
S'\xbeF[m&\x06\xec?'
p951
tp952
Rp953
asS'r_size:1000\ne_prm:0.200000\ni_scl:1.000000\ns_scl:0.316667\nsp:0.100000\nreg:0.010000'
p954
(lp955
g3
(g7
S'\xee\xe9=\x85\xf5`\xf0?'
p956
tp957
Rp958
ag3
(g7
S'sY\x82\xdb\xfcf\xf0?'
p959
tp960
Rp961
ag3
(g7
S'\x0c\x99\xa0\xd8\xa7g\xf0?'
p962
tp963
Rp964
asS'r_size:500\ne_prm:0.200000\ni_scl:0.200000\ns_scl:0.666667\nsp:0.100000\nreg:0.010000'
p965
(lp966
g3
(g7
S'\xc1\xb2\xa5#\xe5\xf5\xef?'
p967
tp968
Rp969
ag3
(g7
S's\xe4\xc03\xc3\x0e\xf0?'
p970
tp971
Rp972
ag3
(g7
S'pp\xd3\xbcnN\xf0?'
p973
tp974
Rp975
asS'r_size:1250\ne_prm:0.200000\ni_scl:0.555556\ns_scl:0.433333\nsp:0.100000\nreg:0.010000'
p976
(lp977
g3
(g7
S'knk$\xe6\x90\xf0?'
p978
tp979
Rp980
ag3
(g7
S']\x08xA\x0f.\xf0?'
p981
tp982
Rp983
ag3
(g7
S'\x03(\xc7\xaf\xa2\xfd\xf0?'
p984
tp985
Rp986
asS'r_size:1000\ne_prm:0.200000\ni_scl:0.555556\ns_scl:0.550000\nsp:0.500000\nreg:0.010000'
p987
(lp988
g3
(g7
S':\x00J\x0c\xd2\xc1\xf0?'
p989
tp990
Rp991
ag3
(g7
S'\xd1\xdd%l\xd7\xf8\xf0?'
p992
tp993
Rp994
ag3
(g7
S'\xf1b1bb\xf6\xf0?'
p995
tp996
Rp997
asS'r_size:750\ne_prm:0.200000\ni_scl:0.555556\ns_scl:0.316667\nsp:0.500000\nreg:0.010000'
p998
(lp999
g3
(g7
S'\xf5&\xc6\xca\x89\xa2\xf0?'
p1000
tp1001
Rp1002
ag3
(g7
S'\xa1\xfe\xa1\xd7_\xae\xf0?'
p1003
tp1004
Rp1005
ag3
(g7
S'\t\xc9=\x8d\xd7\xd0\xf0?'
p1006
tp1007
Rp1008
asS'r_size:500\ne_prm:0.200000\ni_scl:0.288889\ns_scl:0.550000\nsp:0.500000\nreg:0.010000'
p1009
(lp1010
g3
(g7
S'\xca\xf7\x00\x98\xc8l\xf0?'
p1011
tp1012
Rp1013
ag3
(g7
S'\x83\x96\xe0\xff\x1cu\xf0?'
p1014
tp1015
Rp1016
ag3
(g7
S'\x88\xa7|\x9d\xaeu\xf0?'
p1017
tp1018
Rp1019
asS'r_size:1000\ne_prm:0.200000\ni_scl:0.377778\ns_scl:0.316667\nsp:0.100000\nreg:0.010000'
p1020
(lp1021
g3
(g7
S'F\x0eV\xa2\xdfk\xf0?'
p1022
tp1023
Rp1024
ag3
(g7
S'\x1a\x9c\x86Q\x02A\xf0?'
p1025
tp1026
Rp1027
ag3
(g7
S'\xadw\x14\xc7\x7f!\xf0?'
p1028
tp1029
Rp1030
asS'r_size:500\ne_prm:0.200000\ni_scl:0.644444\ns_scl:0.433333\nsp:0.100000\nreg:0.010000'
p1031
(lp1032
g3
(g7
S'eI\xfe\xdc\xd2\x94\xf1?'
p1033
tp1034
Rp1035
ag3
(g7
S'\xec\tn\xbe\x918\xf0?'
p1036
tp1037
Rp1038
ag3
(g7
S'\xee}c\xe5\x997\xf0?'
p1039
tp1040
Rp1041
asS'r_size:500\ne_prm:0.200000\ni_scl:0.733333\ns_scl:0.550000\nsp:0.100000\nreg:0.010000'
p1042
(lp1043
g3
(g7
S'\xe6q\xa0\x1b\xe3\x82\xf1?'
p1044
tp1045
Rp1046
ag3
(g7
S'\xc5eE5\x02\x82\xf1?'
p1047
tp1048
Rp1049
ag3
(g7
S'\xd0=\xc5h\ti\xf0?'
p1050
tp1051
Rp1052
asS'r_size:750\ne_prm:0.200000\ni_scl:0.466667\ns_scl:0.433333\nsp:0.100000\nreg:0.010000'
p1053
(lp1054
g3
(g7
S'\x97\x1c\x1d\xcc\x08&\xf0?'
p1055
tp1056
Rp1057
ag3
(g7
S'\x13F\x12\x0bB\x9e\xf0?'
p1058
tp1059
Rp1060
ag3
(g7
S'\xea8\xf9\xb8 |\xf0?'
p1061
tp1062
Rp1063
asS'r_size:500\ne_prm:0.200000\ni_scl:0.466667\ns_scl:0.433333\nsp:0.100000\nreg:0.010000'
p1064
(lp1065
g3
(g7
S'\xbdR*\xbc\xfb \xf0?'
p1066
tp1067
Rp1068
ag3
(g7
S'\x0c\x8d\xa5]l5\xf0?'
p1069
tp1070
Rp1071
ag3
(g7
S'H\x83s\x1e:\x1c\xf0?'
p1072
tp1073
Rp1074
asS'r_size:750\ne_prm:0.200000\ni_scl:0.200000\ns_scl:0.550000\nsp:0.500000\nreg:0.010000'
p1075
(lp1076
g3
(g7
S'\xdb\x98:\x0398\xf0?'
p1077
tp1078
Rp1079
ag3
(g7
S'\xeb\xe8\n\xc0|9\xf0?'
p1080
tp1081
Rp1082
ag3
(g7
S'gZ4\xc38>\xf0?'
p1083
tp1084
Rp1085
asS'r_size:500\ne_prm:0.200000\ni_scl:0.555556\ns_scl:0.433333\nsp:0.500000\nreg:0.010000'
p1086
(lp1087
g3
(g7
S'"\xcc\x1b\xc4Q\xb6\xf0?'
p1088
tp1089
Rp1090
ag3
(g7
S'\xc9\t;D\xfd\xe3\xf0?'
p1091
tp1092
Rp1093
ag3
(g7
S'\x05\x90\x16\xe1\xdf\xd0\xf0?'
p1094
tp1095
Rp1096
asS'r_size:500\ne_prm:0.200000\ni_scl:0.644444\ns_scl:0.433333\nsp:1.000000\nreg:0.010000'
p1097
(lp1098
g3
(g7
S'\xf1\xe3z\xe1\x88\x10\xf1?'
p1099
tp1100
Rp1101
ag3
(g7
S"\xd2~6\xab\x14'\xf0?"
p1102
tp1103
Rp1104
ag3
(g7
S'f4\x04\xc7\xf8\x98\xf1?'
p1105
tp1106
Rp1107
asS'r_size:500\ne_prm:0.200000\ni_scl:0.377778\ns_scl:0.550000\nsp:0.100000\nreg:0.010000'
p1108
(lp1109
g3
(g7
S'0J\x07\xd4H\x1a\xf0?'
p1110
tp1111
Rp1112
ag3
(g7
S'\x9a\xf2\xfc\\\xaf"\xf0?'
p1113
tp1114
Rp1115
ag3
(g7
S'\x96\x94|\xcd\x01.\xf0?'
p1116
tp1117
Rp1118
asS'r_size:1000\ne_prm:0.200000\ni_scl:0.911111\ns_scl:0.316667\nsp:1.000000\nreg:0.010000'
p1119
(lp1120
g3
(g7
S'\xf2\xb0\xa1\xbef\xba\xf2?'
p1121
tp1122
Rp1123
ag3
(g7
S'\x97\xdb1\xfd#\x04\xf2?'
p1124
tp1125
Rp1126
ag3
(g7
S'6Q\x89\x84\xaf\xd1\xf1?'
p1127
tp1128
Rp1129
asS'r_size:1250\ne_prm:0.200000\ni_scl:0.555556\ns_scl:0.550000\nsp:0.100000\nreg:0.010000'
p1130
(lp1131
g3
(g7
S'\xdf\x0eI\xf3\xab6\xf0?'
p1132
tp1133
Rp1134
ag3
(g7
S'\xb0\xea\x038\x9aR\xf0?'
p1135
tp1136
Rp1137
ag3
(g7
S'O\x83N\x85\xea6\xf0?'
p1138
tp1139
Rp1140
asS'r_size:750\ne_prm:0.200000\ni_scl:0.555556\ns_scl:0.666667\nsp:1.000000\nreg:0.010000'
p1141
(lp1142
g3
(g7
S'Sw\x1bT\\\xaf\xf4?'
p1143
tp1144
Rp1145
ag3
(g7
S'\x87\xd74f\xcb\x9c\xf3?'
p1146
tp1147
Rp1148
ag3
(g7
S'\xf3Q_0\xdaV\xf4?'
p1149
tp1150
Rp1151
asS'r_size:750\ne_prm:0.200000\ni_scl:0.377778\ns_scl:0.550000\nsp:0.100000\nreg:0.010000'
p1152
(lp1153
g3
(g7
S'\x91\x08\x9f\xcc\xa1/\xf0?'
p1154
tp1155
Rp1156
ag3
(g7
S'\xf7\x8aQ\xe6\xd7+\xf0?'
p1157
tp1158
Rp1159
ag3
(g7
S'\x93\xc7\x13\xe2B\x18\xf0?'
p1160
tp1161
Rp1162
asS'r_size:1250\ne_prm:0.200000\ni_scl:0.733333\ns_scl:0.550000\nsp:1.000000\nreg:0.010000'
p1163
(lp1164
g3
(g7
S'\x86!n\x9b\x0f\xd9\xf5?'
p1165
tp1166
Rp1167
ag3
(g7
S'\xf3h\x95\xbb\xf1\x1a\xf6?'
p1168
tp1169
Rp1170
ag3
(g7
S'{\xd87\xbb\x94c\xf6?'
p1171
tp1172
Rp1173
asS'r_size:1250\ne_prm:0.200000\ni_scl:0.555556\ns_scl:0.550000\nsp:1.000000\nreg:0.010000'
p1174
(lp1175
g3
(g7
S'\xe0\xd0\xe4\x92-B\xf4?'
p1176
tp1177
Rp1178
ag3
(g7
S'\xfb\xa9\xebr\xf9\xe0\xf4?'
p1179
tp1180
Rp1181
ag3
(g7
S'\x8d\x8d\x7fFzO\xf5?'
p1182
tp1183
Rp1184
asS'r_size:1000\ne_prm:0.200000\ni_scl:0.733333\ns_scl:0.316667\nsp:0.500000\nreg:0.010000'
p1185
(lp1186
g3
(g7
S'\xb5\xa3\xb2\xeeL\x18\xf1?'
p1187
tp1188
Rp1189
ag3
(g7
S'\xda\xb2%\x8c\xd7+\xf1?'
p1190
tp1191
Rp1192
ag3
(g7
S"\xc6\xef\xf4'e\t\xf1?"
p1193
tp1194
Rp1195
asS'r_size:1000\ne_prm:0.200000\ni_scl:0.466667\ns_scl:0.666667\nsp:0.500000\nreg:0.010000'
p1196
(lp1197
g3
(g7
S'h\xcb\x84\x04Q\xdc\xf0?'
p1198
tp1199
Rp1200
ag3
(g7
S'\x82\x14\x15\xd0\x83Q\xf0?'
p1201
tp1202
Rp1203
ag3
(g7
S'\xa9>\x1b\xd2\x7f\xd2\xf0?'
p1204
tp1205
Rp1206
asS'r_size:500\ne_prm:0.200000\ni_scl:1.000000\ns_scl:0.550000\nsp:0.100000\nreg:0.010000'
p1207
(lp1208
g3
(g7
S'K)\xb3O\xfb\x13\xf1?'
p1209
tp1210
Rp1211
ag3
(g7
S'R\x8c\x03E\xe0\x93\xf3?'
p1212
tp1213
Rp1214
ag3
(g7
S'bS\xf6oL\xdf\xf3?'
p1215
tp1216
Rp1217
asS'r_size:500\ne_prm:0.200000\ni_scl:0.911111\ns_scl:0.550000\nsp:0.500000\nreg:0.010000'
p1218
(lp1219
g3
(g7
S'\xd2. \x0b\x02U\xf3?'
p1220
tp1221
Rp1222
ag3
(g7
S'\x87\xb8\xd1c\x032\xf1?'
p1223
tp1224
Rp1225
ag3
(g7
S'\x15Y?0\xe6\xe7\xf0?'
p1226
tp1227
Rp1228
asS'r_size:1250\ne_prm:0.200000\ni_scl:0.200000\ns_scl:0.666667\nsp:0.500000\nreg:0.010000'
p1229
(lp1230
g3
(g7
S'\x1cd\xb7\xc7tI\xf0?'
p1231
tp1232
Rp1233
ag3
(g7
S'\x9f\x84j\xb4\x06;\xf0?'
p1234
tp1235
Rp1236
ag3
(g7
S'1-\xdb\xee\xc8[\xf0?'
p1237
tp1238
Rp1239
asS'r_size:750\ne_prm:0.200000\ni_scl:0.911111\ns_scl:0.550000\nsp:0.500000\nreg:0.010000'
p1240
(lp1241
g3
(g7
S'\xf8\x00\xf8\xb7\xe9\x92\xf3?'
p1242
tp1243
Rp1244
ag3
(g7
S'\xef\x1f%\x8c3w\xf3?'
p1245
tp1246
Rp1247
ag3
(g7
S'=\x9e\xa51\xe1d\xf3?'
p1248
tp1249
Rp1250
asS'r_size:500\ne_prm:0.200000\ni_scl:0.200000\ns_scl:0.550000\nsp:0.500000\nreg:0.010000'
p1251
(lp1252
g3
(g7
S'\xf0\xb7\x86\xcb\x08D\xf0?'
p1253
tp1254
Rp1255
ag3
(g7
S'\xcd\xaaD\xeb\xc2=\xf0?'
p1256
tp1257
Rp1258
ag3
(g7
S'\x1dj-\x80\x19<\xf0?'
p1259
tp1260
Rp1261
asS'r_size:750\ne_prm:0.200000\ni_scl:0.644444\ns_scl:0.433333\nsp:0.100000\nreg:0.010000'
p1262
(lp1263
g3
(g7
S'@\xb8\xca\xe0\x13\x1d\xf1?'
p1264
tp1265
Rp1266
ag3
(g7
S'\xbd\xd8\rB\n0\xf1?'
p1267
tp1268
Rp1269
ag3
(g7
S'-.\xee\x86Bx\xf0?'
p1270
tp1271
Rp1272
asS'r_size:750\ne_prm:0.200000\ni_scl:0.466667\ns_scl:0.316667\nsp:0.100000\nreg:0.010000'
p1273
(lp1274
g3
(g7
S'g\xe6\x1b]+\x18\xf0?'
p1275
tp1276
Rp1277
ag3
(g7
S'\x8f!\x83\x9a\x086\xf0?'
p1278
tp1279
Rp1280
ag3
(g7
S'\x18\x92\x81!\x1b\x1f\xf0?'
p1281
tp1282
Rp1283
asS'r_size:500\ne_prm:0.200000\ni_scl:0.200000\ns_scl:0.200000\nsp:0.100000\nreg:0.010000'
p1284
(lp1285
g3
(g7
S'\x8a\xdc\xe38\xda\xa3\xf0?'
p1286
tp1287
Rp1288
ag3
(g7
S'\xae\x87\x989C \xf1?'
p1289
tp1290
Rp1291
ag3
(g7
S'\xff\x93\x02X\xb0Z\xf0?'
p1292
tp1293
Rp1294
asS'r_size:500\ne_prm:0.200000\ni_scl:0.822222\ns_scl:0.433333\nsp:0.100000\nreg:0.010000'
p1295
(lp1296
g3
(g7
S'\xf89\x98\xd5\xa7\xe1\xf0?'
p1297
tp1298
Rp1299
ag3
(g7
S'\x9c!\x15E Y\xf0?'
p1300
tp1301
Rp1302
ag3
(g7
S'\xfa\xc4qLz\x0f\xf4?'
p1303
tp1304
Rp1305
asS'r_size:1000\ne_prm:0.200000\ni_scl:0.822222\ns_scl:0.316667\nsp:1.000000\nreg:0.010000'
p1306
(lp1307
g3
(g7
S'9\xda\xaaO\xf8\xdd\xf1?'
p1308
tp1309
Rp1310
ag3
(g7
S'W\x97\xce\x02\xef\t\xf2?'
p1311
tp1312
Rp1313
ag3
(g7
S'hG\xc5\xf1pn\xf2?'
p1314
tp1315
Rp1316
asS'r_size:1250\ne_prm:0.200000\ni_scl:0.466667\ns_scl:0.200000\nsp:0.500000\nreg:0.010000'
p1317
(lp1318
g3
(g7
S'R}\x03\xce\x87t\xf0?'
p1319
tp1320
Rp1321
ag3
(g7
S'0\xa4\x0e\x1brT\xf0?'
p1322
tp1323
Rp1324
ag3
(g7
S'\xcc\x13\xe31\x1b=\xf0?'
p1325
tp1326
Rp1327
asS'r_size:1250\ne_prm:0.200000\ni_scl:0.644444\ns_scl:0.550000\nsp:0.500000\nreg:0.010000'
p1328
(lp1329
g3
(g7
S'\x11\xc8\xb7\x89\x14\xb7\xf0?'
p1330
tp1331
Rp1332
ag3
(g7
S'<\x94\xd0\x18\x83\xcd\xf0?'
p1333
tp1334
Rp1335
ag3
(g7
S' !\xe8m-\x10\xf1?'
p1336
tp1337
Rp1338
asS'r_size:500\ne_prm:0.200000\ni_scl:1.000000\ns_scl:0.433333\nsp:0.500000\nreg:0.010000'
p1339
(lp1340
g3
(g7
S'\xfaDSC\xd7z\xf2?'
p1341
tp1342
Rp1343
ag3
(g7
S'\xbbZ\xb3\xa5\x948\xf3?'
p1344
tp1345
Rp1346
ag3
(g7
S'.pm\xc3\xe7\xe5\xf2?'
p1347
tp1348
Rp1349
asS'r_size:1250\ne_prm:0.200000\ni_scl:0.555556\ns_scl:0.666667\nsp:0.500000\nreg:0.010000'
p1350
(lp1351
g3
(g7
S'\xf4\xeet;\xcf\x0f\xf1?'
p1352
tp1353
Rp1354
ag3
(g7
S'\\fM\xd9N\xf4\xf0?'
p1355
tp1356
Rp1357
asS'r_size:750\ne_prm:0.200000\ni_scl:1.000000\ns_scl:0.433333\nsp:1.000000\nreg:0.010000'
p1358
(lp1359
g3
(g7
S'}\xbc\xf7:\x9d \xf2?'
p1360
tp1361
Rp1362
ag3
(g7
S'RX\x8c$=H\xf1?'
p1363
tp1364
Rp1365
ag3
(g7
S'\x8d\xca\x06\xf5\xb6}\xf1?'
p1366
tp1367
Rp1368
asS'r_size:1250\ne_prm:0.200000\ni_scl:1.000000\ns_scl:0.200000\nsp:1.000000\nreg:0.010000'
p1369
(lp1370
g3
(g7
S'\t\x7f\xa1\xfcZ\xc4\xed?'
p1371
tp1372
Rp1373
ag3
(g7
S'\xe6\xb6\x0bR\x9d\x1b\xee?'
p1374
tp1375
Rp1376
ag3
(g7
S'\xd0\x1d\xfc\x83\xd60\xee?'
p1377
tp1378
Rp1379
asS'r_size:750\ne_prm:0.200000\ni_scl:0.822222\ns_scl:0.200000\nsp:1.000000\nreg:0.010000'
p1380
(lp1381
g3
(g7
S'\x83\xb5\xa7\x11t\x91\xef?'
p1382
tp1383
Rp1384
ag3
(g7
S':v\xad\x98M\xa3\xef?'
p1385
tp1386
Rp1387
ag3
(g7
S"'!\xa4\xf5\xbb\xc2\xef?"
p1388
tp1389
Rp1390
asS'r_size:500\ne_prm:0.200000\ni_scl:0.555556\ns_scl:0.550000\nsp:0.100000\nreg:0.010000'
p1391
(lp1392
g3
(g7
S'[\xd3i6mV\xf0?'
p1393
tp1394
Rp1395
ag3
(g7
S'\x9d \xaf\x9c\x176\xf0?'
p1396
tp1397
Rp1398
ag3
(g7
S'65\x16\xadS\xcd\xf0?'
p1399
tp1400
Rp1401
asS'r_size:500\ne_prm:0.200000\ni_scl:0.555556\ns_scl:0.200000\nsp:1.000000\nreg:0.010000'
p1402
(lp1403
g3
(g7
S'N\xabD8\xbf\xf0\xef?'
p1404
tp1405
Rp1406
ag3
(g7
S'\xf4mD-\x19\xe6\xef?'
p1407
tp1408
Rp1409
ag3
(g7
S'l\xae\xda\xd8\xe8\xed\xef?'
p1410
tp1411
Rp1412
asS'r_size:1000\ne_prm:0.200000\ni_scl:0.288889\ns_scl:0.550000\nsp:0.500000\nreg:0.010000'
p1413
(lp1414
g3
(g7
S'\x99SD\xce\x13g\xf0?'
p1415
tp1416
Rp1417
ag3
(g7
S'h\xb13\xa8\xeei\xf0?'
p1418
tp1419
Rp1420
ag3
(g7
S'\xfa\xc9|\x10Kd\xf0?'
p1421
tp1422
Rp1423
asS'r_size:1250\ne_prm:0.200000\ni_scl:0.733333\ns_scl:0.433333\nsp:1.000000\nreg:0.010000'
p1424
(lp1425
g3
(g7
S'\xecGm\xcb2\n\xf4?'
p1426
tp1427
Rp1428
ag3
(g7
S'`\xc4\x0c\r\xafm\xf3?'
p1429
tp1430
Rp1431
ag3
(g7
S'\x7f\xa6\x9f\xee \x06\xf4?'
p1432
tp1433
Rp1434
asS'r_size:500\ne_prm:0.200000\ni_scl:0.288889\ns_scl:0.200000\nsp:0.100000\nreg:0.010000'
p1435
(lp1436
g3
(g7
S'Hu\xbbl\xf9<\xf0?'
p1437
tp1438
Rp1439
ag3
(g7
S'\x83r\x83\x82\xb1\x96\xf0?'
p1440
tp1441
Rp1442
ag3
(g7
S'J\x07\xfb6\xb8!\xf1?'
p1443
tp1444
Rp1445
asS'r_size:500\ne_prm:0.200000\ni_scl:0.377778\ns_scl:0.433333\nsp:0.500000\nreg:0.010000'
p1446
(lp1447
g3
(g7
S'\xba*y\xf1\xea\x81\xf0?'
p1448
tp1449
Rp1450
ag3
(g7
S'\xd9S%\xf2\x83}\xf0?'
p1451
tp1452
Rp1453
ag3
(g7
S'H\xb3fDty\xf0?'
p1454
tp1455
Rp1456
asS'r_size:1250\ne_prm:0.200000\ni_scl:0.377778\ns_scl:0.433333\nsp:1.000000\nreg:0.010000'
p1457
(lp1458
g3
(g7
S'\xdaB\x06\xeei\x83\xf0?'
p1459
tp1460
Rp1461
ag3
(g7
S'\x17\ru\xd4O\xf4\xee?'
p1462
tp1463
Rp1464
ag3
(g7
S'\x1e\xd9]Ii\x1d\xf0?'
p1465
tp1466
Rp1467
asS'r_size:750\ne_prm:0.200000\ni_scl:0.200000\ns_scl:0.433333\nsp:0.500000\nreg:0.010000'
p1468
(lp1469
g3
(g7
S'O\x13\x0b\xec\x84+\xf0?'
p1470
tp1471
Rp1472
ag3
(g7
S'\x06\xa0\xc1~u-\xf0?'
p1473
tp1474
Rp1475
ag3
(g7
S'\xd3\x8f\xf2\x11F(\xf0?'
p1476
tp1477
Rp1478
asS'r_size:1250\ne_prm:0.200000\ni_scl:0.288889\ns_scl:0.550000\nsp:0.100000\nreg:0.010000'
p1479
(lp1480
g3
(g7
S'\x1a\xe1\xedi\xe8\x10\xf0?'
p1481
tp1482
Rp1483
ag3
(g7
S'c)\xcc!\x1d\x1c\xf0?'
p1484
tp1485
Rp1486
ag3
(g7
S'(\xf4C\x8cq\x16\xf0?'
p1487
tp1488
Rp1489
asS'r_size:1250\ne_prm:0.200000\ni_scl:0.733333\ns_scl:0.316667\nsp:0.500000\nreg:0.010000'
p1490
(lp1491
g3
(g7
S'\x99\x84\xf6\xd6\xe8a\xf1?'
p1492
tp1493
Rp1494
ag3
(g7
S'\x96S\xc8\x82\xe8c\xf1?'
p1495
tp1496
Rp1497
ag3
(g7
S' \xeaw\xa4q\x1c\xf1?'
p1498
tp1499
Rp1500
asS'r_size:1000\ne_prm:0.200000\ni_scl:0.822222\ns_scl:0.433333\nsp:1.000000\nreg:0.010000'
p1501
(lp1502
g3
(g7
S'\xf7\xb8\x04<yV\xf3?'
p1503
tp1504
Rp1505
ag3
(g7
S'A\x94\xd5^<\xba\xf2?'
p1506
tp1507
Rp1508
ag3
(g7
S'\\\x97*c+\xf2\xf2?'
p1509
tp1510
Rp1511
asS'r_size:750\ne_prm:0.200000\ni_scl:0.466667\ns_scl:0.550000\nsp:1.000000\nreg:0.010000'
p1512
(lp1513
g3
(g7
S'\xdb\xa9\x96\x8b>\x8a\xf4?'
p1514
tp1515
Rp1516
ag3
(g7
S'\xb2)\xb5sf2\xf4?'
p1517
tp1518
Rp1519
ag3
(g7
S'\xb0\x8aE\x9e\xe2\t\xf4?'
p1520
tp1521
Rp1522
asS'r_size:750\ne_prm:0.200000\ni_scl:0.200000\ns_scl:0.200000\nsp:0.100000\nreg:0.010000'
p1523
(lp1524
g3
(g7
S"*'v\xf6\xe4I\xf1?"
p1525
tp1526
Rp1527
ag3
(g7
S'8\xab\x88\xfdL9\xf1?'
p1528
tp1529
Rp1530
ag3
(g7
S'\xb6\xec[v\xc8\x94\xf0?'
p1531
tp1532
Rp1533
asS'r_size:1000\ne_prm:0.200000\ni_scl:0.733333\ns_scl:0.550000\nsp:1.000000\nreg:0.010000'
p1534
(lp1535
g3
(g7
S't\x97\x84\x00/\xcf\xf5?'
p1536
tp1537
Rp1538
ag3
(g7
S'\x7f\xda\xb2\x1a\xf2\xa6\xf5?'
p1539
tp1540
Rp1541
ag3
(g7
S'r\xb6\x9b9\x98\\\xf6?'
p1542
tp1543
Rp1544
asS'r_size:1250\ne_prm:0.200000\ni_scl:0.911111\ns_scl:0.433333\nsp:0.100000\nreg:0.010000'
p1545
(lp1546
g3
(g7
S"\x03O\x0e'\xe6\x87\xf0?"
p1547
tp1548
Rp1549
ag3
(g7
S'\xd1\x8d.\xecr\xa1\xf2?'
p1550
tp1551
Rp1552
ag3
(g7
S'\xc1\x7f\x8bM\xee)\xf1?'
p1553
tp1554
Rp1555
asS'r_size:750\ne_prm:0.200000\ni_scl:0.733333\ns_scl:0.550000\nsp:0.100000\nreg:0.010000'
p1556
(lp1557
g3
(g7
S'\xbcr:m|\xf3\xf0?'
p1558
tp1559
Rp1560
ag3
(g7
S'@\xe9Tc^\x96\xf0?'
p1561
tp1562
Rp1563
ag3
(g7
S'k\xba\xd3\xc9R\x91\xf1?'
p1564
tp1565
Rp1566
asS'r_size:500\ne_prm:0.200000\ni_scl:0.822222\ns_scl:0.550000\nsp:0.100000\nreg:0.010000'
p1567
(lp1568
g3
(g7
S'\x13o\xdb\xe4\x99(\xf2?'
p1569
tp1570
Rp1571
ag3
(g7
S'\x8d&&\xe0\x1e5\xf2?'
p1572
tp1573
Rp1574
ag3
(g7
S'\xb2\xbc\x17\xec0H\xf2?'
p1575
tp1576
Rp1577
asS'r_size:750\ne_prm:0.200000\ni_scl:0.911111\ns_scl:0.550000\nsp:1.000000\nreg:0.010000'
p1578
(lp1579
g3
(g7
S'\xd1\xd5\xe0\xfc\xb2\xbb\xf5?'
p1580
tp1581
Rp1582
ag3
(g7
S'\xc6\xc9\x0f\x12SY\xf5?'
p1583
tp1584
Rp1585
ag3
(g7
S'\x9d@3@\x07\x07\xf6?'
p1586
tp1587
Rp1588
asS'r_size:1000\ne_prm:0.200000\ni_scl:0.555556\ns_scl:0.316667\nsp:0.500000\nreg:0.010000'
p1589
(lp1590
g3
(g7
S's\x9en\x08\x97\xb0\xf0?'
p1591
tp1592
Rp1593
ag3
(g7
S'{R0\x8b\xa9\xaf\xf0?'
p1594
tp1595
Rp1596
ag3
(g7
S'\xe20w\xd0 \xc2\xf0?'
p1597
tp1598
Rp1599
asS'r_size:500\ne_prm:0.200000\ni_scl:0.200000\ns_scl:0.200000\nsp:0.500000\nreg:0.010000'
p1600
(lp1601
g3
(g7
S'E \x1a\xd2\x8aM\xf0?'
p1602
tp1603
Rp1604
ag3
(g7
S'\x9e\xa4\xa5@f6\xf0?'
p1605
tp1606
Rp1607
ag3
(g7
S'\x1cN\x0bpa[\xf0?'
p1608
tp1609
Rp1610
asS'r_size:750\ne_prm:0.200000\ni_scl:0.911111\ns_scl:0.433333\nsp:0.100000\nreg:0.010000'
p1611
(lp1612
g3
(g7
S'p\x02l\xfa\x13D\xf1?'
p1613
tp1614
Rp1615
ag3
(g7
S'D\xafI\xa5\x17\xc8\xf0?'
p1616
tp1617
Rp1618
ag3
(g7
S'\xa3\xe4\xa1\xe9\xd7F\xf3?'
p1619
tp1620
Rp1621
asS'r_size:1250\ne_prm:0.200000\ni_scl:0.911111\ns_scl:0.433333\nsp:1.000000\nreg:0.010000'
p1622
(lp1623
g3
(g7
S'\xef>\x04\xd6s\xcf\xf2?'
p1624
tp1625
Rp1626
ag3
(g7
S'\xefE{\x9b\x07\x0b\xf3?'
p1627
tp1628
Rp1629
ag3
(g7
S'\xca#\x85\xc9\xf1\x97\xf3?'
p1630
tp1631
Rp1632
asS'r_size:1250\ne_prm:0.200000\ni_scl:0.644444\ns_scl:0.550000\nsp:1.000000\nreg:0.010000'
p1633
(lp1634
g3
(g7
S'\x8d\x17G\xb9\xc6a\xf5?'
p1635
tp1636
Rp1637
ag3
(g7
S'-\x04\xb2\x89\x8c1\xf5?'
p1638
tp1639
Rp1640
ag3
(g7
S'X\xa9\xaa(\xdf\x7f\xf5?'
p1641
tp1642
Rp1643
asS'r_size:1000\ne_prm:0.200000\ni_scl:0.911111\ns_scl:0.200000\nsp:0.100000\nreg:0.010000'
p1644
(lp1645
g3
(g7
S'}\xfa/I\xf9\xc9\xf3?'
p1646
tp1647
Rp1648
ag3
(g7
S'\xf6\xdf\xbc\xbb\x9ap\xf0?'
p1649
tp1650
Rp1651
ag3
(g7
S"\xe6D\xcb\x7f'\x87\xf0?"
p1652
tp1653
Rp1654
asS'r_size:1250\ne_prm:0.200000\ni_scl:0.733333\ns_scl:0.550000\nsp:0.100000\nreg:0.010000'
p1655
(lp1656
g3
(g7
S'%\xa3]\x95\xc0[\xf1?'
p1657
tp1658
Rp1659
ag3
(g7
S'C\x19=djl\xf0?'
p1660
tp1661
Rp1662
ag3
(g7
S'\xba%G\x05+\x85\xf0?'
p1663
tp1664
Rp1665
asS'r_size:1000\ne_prm:0.200000\ni_scl:0.200000\ns_scl:0.550000\nsp:0.500000\nreg:0.010000'
p1666
(lp1667
g3
(g7
S',\xbb\xde\xf7\xf2:\xf0?'
p1668
tp1669
Rp1670
ag3
(g7
S'\xd2\xdd\xd0\t\x8b@\xf0?'
p1671
tp1672
Rp1673
ag3
(g7
S'\xb2\x81j\x03\xa7@\xf0?'
p1674
tp1675
Rp1676
asS'r_size:500\ne_prm:0.200000\ni_scl:0.644444\ns_scl:0.316667\nsp:0.500000\nreg:0.010000'
p1677
(lp1678
g3
(g7
S':\x86\x1dV\x95\xd9\xf0?'
p1679
tp1680
Rp1681
ag3
(g7
S'=6\x14\x189\xf9\xf0?'
p1682
tp1683
Rp1684
ag3
(g7
S'!\xa1\xf0\x97\x18\xe6\xf0?'
p1685
tp1686
Rp1687
asS'r_size:1250\ne_prm:0.200000\ni_scl:1.000000\ns_scl:0.200000\nsp:0.500000\nreg:0.010000'
p1688
(lp1689
g3
(g7
S'\xb8\x1b\x9au\xdd\x8c\xf1?'
p1690
tp1691
Rp1692
ag3
(g7
S'zB\xc2\xa7^\x80\xf2?'
p1693
tp1694
Rp1695
ag3
(g7
S'\xb2\x18\x1a\x0c5\xa8\xf1?'
p1696
tp1697
Rp1698
asS'r_size:750\ne_prm:0.200000\ni_scl:0.644444\ns_scl:0.550000\nsp:0.500000\nreg:0.010000'
p1699
(lp1700
g3
(g7
S'\xcbS\xcdz\x88O\xf1?'
p1701
tp1702
Rp1703
ag3
(g7
S'/\x93\xb1`D\xa1\xf0?'
p1704
tp1705
Rp1706
ag3
(g7
S'z`\xd31\x9a6\xf1?'
p1707
tp1708
Rp1709
asS'r_size:1250\ne_prm:0.200000\ni_scl:0.911111\ns_scl:0.200000\nsp:0.100000\nreg:0.010000'
p1710
(lp1711
g3
(g7
S'\xbc\xf9b\x0beW\xf0?'
p1712
tp1713
Rp1714
ag3
(g7
S'\x8c7\xba\xd6@w\xf0?'
p1715
tp1716
Rp1717
ag3
(g7
S"\x84'\xa3\xcfyx\xf0?"
p1718
tp1719
Rp1720
asS'r_size:750\ne_prm:0.200000\ni_scl:1.000000\ns_scl:0.316667\nsp:0.500000\nreg:0.010000'
p1721
(lp1722
g3
(g7
S'C\xcf0]>Z\xf3?'
p1723
tp1724
Rp1725
ag3
(g7
S'\x00\xda=\xf2\xe4\xb5\xf3?'
p1726
tp1727
Rp1728
ag3
(g7
S' U,h\xaec\xf3?'
p1729
tp1730
Rp1731
asS'r_size:1000\ne_prm:0.200000\ni_scl:0.822222\ns_scl:0.550000\nsp:0.100000\nreg:0.010000'
p1732
(lp1733
g3
(g7
S'5\xa1\x14\x86\xe6"\xf2?'
p1734
tp1735
Rp1736
ag3
(g7
S'\x0b&\x8a\xa5\x06c\xf1?'
p1737
tp1738
Rp1739
ag3
(g7
S'\t\x94#\xf3E\x8a\xf0?'
p1740
tp1741
Rp1742
asS'r_size:1000\ne_prm:0.200000\ni_scl:0.288889\ns_scl:0.550000\nsp:1.000000\nreg:0.010000'
p1743
(lp1744
g3
(g7
S'ANa\xa6\xcdX\xf0?'
p1745
tp1746
Rp1747
ag3
(g7
S'\x03\xdbf\xdc\x86\xc8\xf0?'
p1748
tp1749
Rp1750
ag3
(g7
S'\xe3|&\xac\xdf6\xf2?'
p1751
tp1752
Rp1753
asS'r_size:500\ne_prm:0.200000\ni_scl:1.000000\ns_scl:0.200000\nsp:0.100000\nreg:0.010000'
p1754
(lp1755
g3
(g7
S'\xa8\xf6q\x9aBs\xf0?'
p1756
tp1757
Rp1758
ag3
(g7
S'\x84\xce\x1c\xa8\xc8U\xf0?'
p1759
tp1760
Rp1761
ag3
(g7
S'\xc2\x95\xaa\xb5\x89X\xf0?'
p1762
tp1763
Rp1764
asS'r_size:500\ne_prm:0.200000\ni_scl:0.200000\ns_scl:0.433333\nsp:0.100000\nreg:0.010000'
p1765
(lp1766
g3
(g7
S'\xdc\xa3\x98\t\xd9u\xf0?'
p1767
tp1768
Rp1769
ag3
(g7
S'\x9a\xb2N\x9d\x1cy\xf0?'
p1770
tp1771
Rp1772
ag3
(g7
S'\xbc\x18\xecP\x92\x9b\xf0?'
p1773
tp1774
Rp1775
asS'r_size:1250\ne_prm:0.200000\ni_scl:0.377778\ns_scl:0.433333\nsp:0.500000\nreg:0.010000'
p1776
(lp1777
g3
(g7
S'\xe5\xb5\xf2\x0c\xd6\x86\xf0?'
p1778
tp1779
Rp1780
ag3
(g7
S'\xf1\xb4\x95G\xfb\x7f\xf0?'
p1781
tp1782
Rp1783
ag3
(g7
S'\xff\x88\xcd_j\x82\xf0?'
p1784
tp1785
Rp1786
asS'r_size:1250\ne_prm:0.200000\ni_scl:0.733333\ns_scl:0.433333\nsp:0.500000\nreg:0.010000'
p1787
(lp1788
g3
(g7
S'e\x88\x91X\t{\xf1?'
p1789
tp1790
Rp1791
ag3
(g7
S'\x9e^~.\x80\xc5\xf0?'
p1792
tp1793
Rp1794
ag3
(g7
S'A\xa1\x0c\xb7\x0eX\xf1?'
p1795
tp1796
Rp1797
asS'r_size:1250\ne_prm:0.200000\ni_scl:0.288889\ns_scl:0.200000\nsp:1.000000\nreg:0.010000'
p1798
(lp1799
g3
(g7
S'\xedA\t\xc0~\xda\xef?'
p1800
tp1801
Rp1802
ag3
(g7
S'\x16\xdb~_&\xe5\xef?'
p1803
tp1804
Rp1805
ag3
(g7
S'\xe9\xd7\xcfc\x1c\xf1\xef?'
p1806
tp1807
Rp1808
asS'r_size:1000\ne_prm:0.200000\ni_scl:0.377778\ns_scl:0.550000\nsp:0.100000\nreg:0.010000'
p1809
(lp1810
g3
(g7
S'\xc9z\x8d\x17\xda$\xf0?'
p1811
tp1812
Rp1813
ag3
(g7
S'^\x86\xafQ\xe4&\xf0?'
p1814
tp1815
Rp1816
ag3
(g7
S'\xac\xe1\xd0\xaa\xaf8\xf0?'
p1817
tp1818
Rp1819
asS'r_size:1000\ne_prm:0.200000\ni_scl:0.466667\ns_scl:0.666667\nsp:1.000000\nreg:0.010000'
p1820
(lp1821
g3
(g7
S'\xac\xfb\xce4\x99\x0c\xf3?'
p1822
tp1823
Rp1824
ag3
(g7
S'{\x1c\xc0\xeb\x1b\xc8\xf2?'
p1825
tp1826
Rp1827
ag3
(g7
S'W\x95f\x15|\x1f\xf3?'
p1828
tp1829
Rp1830
asS'r_size:1000\ne_prm:0.200000\ni_scl:0.377778\ns_scl:0.666667\nsp:1.000000\nreg:0.010000'
p1831
(lp1832
g3
(g7
S'VA\x02\xfa\xe7>\xf1?'
p1833
tp1834
Rp1835
ag3
(g7
S'\x1ae\xf9c\xed\x05\xf3?'
p1836
tp1837
Rp1838
ag3
(g7
S'\xb1\xc8\x9am4\x96\xf2?'
p1839
tp1840
Rp1841
asS'r_size:1000\ne_prm:0.200000\ni_scl:0.911111\ns_scl:0.433333\nsp:0.500000\nreg:0.010000'
p1842
(lp1843
g3
(g7
S'9V\xbe&?g\xf2?'
p1844
tp1845
Rp1846
ag3
(g7
S'N\xe9:\x06\x85(\xf3?'
p1847
tp1848
Rp1849
ag3
(g7
S'f<\x90\xb1\xbcA\xf3?'
p1850
tp1851
Rp1852
asS'r_size:750\ne_prm:0.200000\ni_scl:0.733333\ns_scl:0.433333\nsp:1.000000\nreg:0.010000'
p1853
(lp1854
g3
(g7
S'O\x00;\x98\xc3a\xf2?'
p1855
tp1856
Rp1857
ag3
(g7
S'F\x93\x9a\xbe#\x96\xf1?'
p1858
tp1859
Rp1860
ag3
(g7
S'\xba\xf7\x04\x98\xed\xa7\xf1?'
p1861
tp1862
Rp1863
asS'r_size:500\ne_prm:0.200000\ni_scl:0.911111\ns_scl:0.316667\nsp:0.500000\nreg:0.010000'
p1864
(lp1865
g3
(g7
S'\xa4\xc2\x13W\x94\x9d\xf2?'
p1866
tp1867
Rp1868
ag3
(g7
S'\xaa\x90q\x1d\x05\x13\xf3?'
p1869
tp1870
Rp1871
ag3
(g7
S' Q6\xd3\x87\x8e\xf2?'
p1872
tp1873
Rp1874
asS'r_size:500\ne_prm:0.200000\ni_scl:0.377778\ns_scl:0.666667\nsp:0.500000\nreg:0.010000'
p1875
(lp1876
g3
(g7
S'\xf1\x19>]\x9f\xac\xf0?'
p1877
tp1878
Rp1879
ag3
(g7
S'\xd3F\r\xad\xd1v\xf0?'
p1880
tp1881
Rp1882
ag3
(g7
S'\xc5\xcb\xde\n\xb0\xa2\xf0?'
p1883
tp1884
Rp1885
asS'r_size:1250\ne_prm:0.200000\ni_scl:0.466667\ns_scl:0.200000\nsp:0.100000\nreg:0.010000'
p1886
(lp1887
g3
(g7
S'\x0c\xa1\x8a\xb8;\x1b\xf0?'
p1888
tp1889
Rp1890
ag3
(g7
S'\xbf\xed\xfa\xc8-#\xf0?'
p1891
tp1892
Rp1893
ag3
(g7
S'\x88(\xca\x8d^\x1e\xf0?'
p1894
tp1895
Rp1896
asS'r_size:500\ne_prm:0.200000\ni_scl:0.733333\ns_scl:0.316667\nsp:0.500000\nreg:0.010000'
p1897
(lp1898
g3
(g7
S'D>k\x0c\xe3\x01\xf1?'
p1899
tp1900
Rp1901
ag3
(g7
S'\t4c;\xb1=\xf1?'
p1902
tp1903
Rp1904
ag3
(g7
S'l\x1f\x1f\xca(C\xf1?'
p1905
tp1906
Rp1907
asS'r_size:750\ne_prm:0.200000\ni_scl:0.466667\ns_scl:0.550000\nsp:0.500000\nreg:0.010000'
p1908
(lp1909
g3
(g7
S'\x14ik\x15\xc9\x83\xf0?'
p1910
tp1911
Rp1912
ag3
(g7
S'g7<\x16\xc1\x90\xf0?'
p1913
tp1914
Rp1915
ag3
(g7
S'\xfd\x87?/\xa6\xb3\xf0?'
p1916
tp1917
Rp1918
asS'r_size:500\ne_prm:0.200000\ni_scl:0.288889\ns_scl:0.550000\nsp:1.000000\nreg:0.010000'
p1919
(lp1920
g3
(g7
S'\x07\x84\x90\xe33O\xed?'
p1921
tp1922
Rp1923
ag3
(g7
S'9\xbb\x94\xf4\xf6\xf7\xeb?'
p1924
tp1925
Rp1926
ag3
(g7
S'\xffq&|\xde\xdc\xee?'
p1927
tp1928
Rp1929
asS'r_size:500\ne_prm:0.200000\ni_scl:0.377778\ns_scl:0.200000\nsp:1.000000\nreg:0.010000'
p1930
(lp1931
g3
(g7
S'\x89\xfe\x9b&\xe7\x9a\xef?'
p1932
tp1933
Rp1934
ag3
(g7
S'\\\xbbXs\xf2\xa5\xef?'
p1935
tp1936
Rp1937
ag3
(g7
S'0l\x9d\x15\xed\x9e\xef?'
p1938
tp1939
Rp1940
asS'r_size:500\ne_prm:0.200000\ni_scl:0.377778\ns_scl:0.666667\nsp:1.000000\nreg:0.010000'
p1941
(lp1942
g3
(g7
S'\x86\xd0\xf5\xdc5\x9a\xf2?'
p1943
tp1944
Rp1945
ag3
(g7
S'-\x87\x82\xc3\xa6\x05\xf4?'
p1946
tp1947
Rp1948
ag3
(g7
S'\xb5\xd8M\xdc\xe9v\xf2?'
p1949
tp1950
Rp1951
asS'r_size:750\ne_prm:0.200000\ni_scl:0.288889\ns_scl:0.550000\nsp:0.500000\nreg:0.010000'
p1952
(lp1953
g3
(g7
S'\xe4\x16*\x95\xf6a\xf0?'
p1954
tp1955
Rp1956
ag3
(g7
S'\xfd\xf4m_Kd\xf0?'
p1957
tp1958
Rp1959
ag3
(g7
S'\x97\x1b\x8f\x9e\xf3v\xf0?'
p1960
tp1961
Rp1962
asS'r_size:500\ne_prm:0.200000\ni_scl:1.000000\ns_scl:0.316667\nsp:0.500000\nreg:0.010000'
p1963
(lp1964
g3
(g7
S'3CV~\xbe\x9f\xf3?'
p1965
tp1966
Rp1967
ag3
(g7
S'#\xac\xd4\xbd\xcd\x9c\xf3?'
p1968
tp1969
Rp1970
ag3
(g7
S'`\xec\xc9\xc4\xf6\xa4\xf3?'
p1971
tp1972
Rp1973
asS'r_size:500\ne_prm:0.200000\ni_scl:0.733333\ns_scl:0.200000\nsp:0.500000\nreg:0.010000'
p1974
(lp1975
g3
(g7
S'\xfa\xd3\xb1\xe0P\x87\xf0?'
p1976
tp1977
Rp1978
ag3
(g7
S'\xd9\xf2yGB\x91\xf0?'
p1979
tp1980
Rp1981
ag3
(g7
S'_rZU\xfe\xec\xf0?'
p1982
tp1983
Rp1984
asS'r_size:750\ne_prm:0.200000\ni_scl:0.200000\ns_scl:0.433333\nsp:0.100000\nreg:0.010000'
p1985
(lp1986
g3
(g7
S'\xe2\x8a\xb9>\te\xf0?'
p1987
tp1988
Rp1989
ag3
(g7
S'e\xc8\xb7B4?\xf0?'
p1990
tp1991
Rp1992
ag3
(g7
S'.\x82\x822;\x00\xf0?'
p1993
tp1994
Rp1995
asS'r_size:1000\ne_prm:0.200000\ni_scl:0.733333\ns_scl:0.200000\nsp:0.500000\nreg:0.010000'
p1996
(lp1997
g3
(g7
S' \xf4"Z\xae/\xf1?'
p1998
tp1999
Rp2000
ag3
(g7
S'\xe5\xae\xb6\xab\x04\xb6\xf0?'
p2001
tp2002
Rp2003
ag3
(g7
S'\x8a\xaar\x95\xccz\xf0?'
p2004
tp2005
Rp2006
asS'r_size:1000\ne_prm:0.200000\ni_scl:0.200000\ns_scl:0.666667\nsp:0.100000\nreg:0.010000'
p2007
(lp2008
g3
(g7
S'T\x1dgP\xe05\xf0?'
p2009
tp2010
Rp2011
ag3
(g7
S'\x16\x8b\xdd\x1etB\xf0?'
p2012
tp2013
Rp2014
ag3
(g7
S'|`\xd7s\xe0\x13\xf0?'
p2015
tp2016
Rp2017
asS'r_size:1250\ne_prm:0.200000\ni_scl:0.911111\ns_scl:0.433333\nsp:0.500000\nreg:0.010000'
p2018
(lp2019
g3
(g7
S'\xca)`\x93\xf6/\xf2?'
p2020
tp2021
Rp2022
ag3
(g7
S'\t\xc3\x06\xd0\xdf+\xf3?'
p2023
tp2024
Rp2025
ag3
(g7
S'\x94R\x81\xfcS\xa6\xf2?'
p2026
tp2027
Rp2028
asS'r_size:500\ne_prm:0.200000\ni_scl:0.644444\ns_scl:0.316667\nsp:0.100000\nreg:0.010000'
p2029
(lp2030
g3
(g7
S'dm=D]\xc8\xf0?'
p2031
tp2032
Rp2033
ag3
(g7
S'`\xb1\xa6.\x14\n\xf1?'
p2034
tp2035
Rp2036
ag3
(g7
S'\x1e;\xe9F\xbbT\xf0?'
p2037
tp2038
Rp2039
asS'r_size:750\ne_prm:0.200000\ni_scl:0.911111\ns_scl:0.316667\nsp:1.000000\nreg:0.010000'
p2040
(lp2041
g3
(g7
S'\xb4\x1c\x98\x90K\xbd\xf2?'
p2042
tp2043
Rp2044
ag3
(g7
S'\x14*[\xd2\xf3\x96\xf3?'
p2045
tp2046
Rp2047
ag3
(g7
S'<\xea\xb2\xb9=[\xf3?'
p2048
tp2049
Rp2050
asS'r_size:750\ne_prm:0.200000\ni_scl:0.822222\ns_scl:0.433333\nsp:0.100000\nreg:0.010000'
p2051
(lp2052
g3
(g7
S'\xf9r\xeaC\xb8\xd3\xf1?'
p2053
tp2054
Rp2055
ag3
(g7
S'\xe4\xc0H\xd5\xa2\xfd\xf0?'
p2056
tp2057
Rp2058
ag3
(g7
S'\x17\xc4\xa2\x13\t\x06\xf1?'
p2059
tp2060
Rp2061
asS'r_size:500\ne_prm:0.200000\ni_scl:0.288889\ns_scl:0.200000\nsp:0.500000\nreg:0.010000'
p2062
(lp2063
g3
(g7
S'T\xc3\xfcJ\x1d"\xf0?'
p2064
tp2065
Rp2066
ag3
(g7
S'Y\x90q\xf7\xcb&\xf0?'
p2067
tp2068
Rp2069
ag3
(g7
S'\xef\x12\xc1\x1b\xba<\xf0?'
p2070
tp2071
Rp2072
asS'r_size:1250\ne_prm:0.200000\ni_scl:0.288889\ns_scl:0.316667\nsp:0.500000\nreg:0.010000'
p2073
(lp2074
g3
(g7
S'T\\\xc3\x97n1\xf0?'
p2075
tp2076
Rp2077
ag3
(g7
S'\xc2\xa84z\x002\xf0?'
p2078
tp2079
Rp2080
ag3
(g7
S'\xa6\xd6\x9f\x99\xa0P\xf0?'
p2081
tp2082
Rp2083
asS'r_size:500\ne_prm:0.200000\ni_scl:0.644444\ns_scl:0.316667\nsp:1.000000\nreg:0.010000'
p2084
(lp2085
g3
(g7
S'1\xd9\x13\xb8\xf7\xe0\xe8?'
p2086
tp2087
Rp2088
ag3
(g7
S'\xf4<\xbe\x0f\xf5\xb8\xe9?'
p2089
tp2090
Rp2091
ag3
(g7
S'}\xa1\t*\xdf\x94\xe8?'
p2092
tp2093
Rp2094
asS'r_size:500\ne_prm:0.200000\ni_scl:0.555556\ns_scl:0.200000\nsp:0.500000\nreg:0.010000'
p2095
(lp2096
g3
(g7
S'\xe6\t\xa4\x97\xca\xfe\xf0?'
p2097
tp2098
Rp2099
ag3
(g7
S'L\xdaR\xf6XM\xf0?'
p2100
tp2101
Rp2102
ag3
(g7
S'f\xab\xbc\x8e\x12a\xf0?'
p2103
tp2104
Rp2105
asS'r_size:750\ne_prm:0.200000\ni_scl:1.000000\ns_scl:0.316667\nsp:1.000000\nreg:0.010000'
p2106
(lp2107
g3
(g7
S'\x882\xc2\xdf|\xb6\xf1?'
p2108
tp2109
Rp2110
ag3
(g7
S'\xd7e\xbd\x8d\xf9\x8f\xf4?'
p2111
tp2112
Rp2113
ag3
(g7
S'8\x8e&S\x1a\x0f\xf4?'
p2114
tp2115
Rp2116
asS'r_size:1250\ne_prm:0.200000\ni_scl:0.466667\ns_scl:0.666667\nsp:0.100000\nreg:0.010000'
p2117
(lp2118
g3
(g7
S'\x9f\x88\xe9\xff\xd2\x83\xf0?'
p2119
tp2120
Rp2121
ag3
(g7
S'\x88\x95\x1aG\x1a4\xf0?'
p2122
tp2123
Rp2124
ag3
(g7
S"l' $%>\xf0?"
p2125
tp2126
Rp2127
asS'r_size:500\ne_prm:0.200000\ni_scl:0.200000\ns_scl:0.200000\nsp:1.000000\nreg:0.010000'
p2128
(lp2129
g3
(g7
S'\xe7\xee\xd7\x96\n,\xef?'
p2130
tp2131
Rp2132
ag3
(g7
S"\x98\xbf\xac\x89\xe1'\xef?"
p2133
tp2134
Rp2135
ag3
(g7
S'#\x05}_\x9e-\xef?'
p2136
tp2137
Rp2138
asS'r_size:1250\ne_prm:0.200000\ni_scl:0.288889\ns_scl:0.200000\nsp:0.500000\nreg:0.010000'
p2139
(lp2140
g3
(g7
S'z\xc2\xb2;\xad.\xf0?'
p2141
tp2142
Rp2143
ag3
(g7
S'8\xb3\xde{\xfb%\xf0?'
p2144
tp2145
Rp2146
ag3
(g7
S'Ts\x10$\xee-\xf0?'
p2147
tp2148
Rp2149
asS'r_size:1000\ne_prm:0.200000\ni_scl:0.377778\ns_scl:0.666667\nsp:0.500000\nreg:0.010000'
p2150
(lp2151
g3
(g7
S'\x97\x08\x81\xf5\xf3A\xf0?'
p2152
tp2153
Rp2154
ag3
(g7
S'\xbb]\xf7\x8b+\xaf\xf0?'
p2155
tp2156
Rp2157
ag3
(g7
S'0\xa2ov\x06v\xf0?'
p2158
tp2159
Rp2160
asS'r_size:1000\ne_prm:0.200000\ni_scl:0.911111\ns_scl:0.433333\nsp:1.000000\nreg:0.010000'
p2161
(lp2162
g3
(g7
S'eZ\xbe\x14\x13\xdc\xf2?'
p2163
tp2164
Rp2165
ag3
(g7
S'\x9b\x8f\x07\x19m\xef\xf2?'
p2166
tp2167
Rp2168
ag3
(g7
S'{\x7f@\x1a\xb1\x17\xf2?'
p2169
tp2170
Rp2171
asS'r_size:500\ne_prm:0.200000\ni_scl:0.377778\ns_scl:0.550000\nsp:0.500000\nreg:0.010000'
p2172
(lp2173
g3
(g7
S'\x13\xd3\x11\x83E\x98\xf0?'
p2174
tp2175
Rp2176
ag3
(g7
S'\xbc \x8d&\xb7o\xf0?'
p2177
tp2178
Rp2179
ag3
(g7
S'\x80\x1cU\x11\xbe\x9e\xf0?'
p2180
tp2181
Rp2182
asS'r_size:750\ne_prm:0.200000\ni_scl:0.733333\ns_scl:0.433333\nsp:0.500000\nreg:0.010000'
p2183
(lp2184
g3
(g7
S'\xd5q2\xca4a\xf1?'
p2185
tp2186
Rp2187
ag3
(g7
S'8\x8d\xacY\xbcV\xf1?'
p2188
tp2189
Rp2190
ag3
(g7
S'\x03\xe3\x00\xf7AY\xf1?'
p2191
tp2192
Rp2193
asS'r_size:750\ne_prm:0.200000\ni_scl:0.377778\ns_scl:0.433333\nsp:1.000000\nreg:0.010000'
p2194
(lp2195
g3
(g7
S'\r\x13\xcf\x1b^,\xe8?'
p2196
tp2197
Rp2198
ag3
(g7
S'6\xdf\x9e}.a\xe9?'
p2199
tp2200
Rp2201
ag3
(g7
S'\x12\x8eO\xe3\xf1\x81\xe9?'
p2202
tp2203
Rp2204
asS'r_size:1000\ne_prm:0.200000\ni_scl:0.466667\ns_scl:0.550000\nsp:0.100000\nreg:0.010000'
p2205
(lp2206
g3
(g7
S'u\xb5\xd5\x85KA\xf0?'
p2207
tp2208
Rp2209
ag3
(g7
S'\x94\xbe l\xc9,\xf0?'
p2210
tp2211
Rp2212
ag3
(g7
S"\xc2\\'\x12:{\xf0?"
p2213
tp2214
Rp2215
asS'r_size:1000\ne_prm:0.200000\ni_scl:0.822222\ns_scl:0.200000\nsp:1.000000\nreg:0.010000'
p2216
(lp2217
g3
(g7
S'\xcaG\xe9\xec<g\xef?'
p2218
tp2219
Rp2220
ag3
(g7
S'\xe4DH[J5\xef?'
p2221
tp2222
Rp2223
ag3
(g7
S'X6\x94\xa4e<\xef?'
p2224
tp2225
Rp2226
asS'r_size:1250\ne_prm:0.200000\ni_scl:0.200000\ns_scl:0.550000\nsp:0.100000\nreg:0.010000'
p2227
(lp2228
g3
(g7
S'\xf4\x1a\x93S\xcd^\xf0?'
p2229
tp2230
Rp2231
ag3
(g7
S's\x04S\xf1zM\xf0?'
p2232
tp2233
Rp2234
ag3
(g7
S'\xa5.\xd8\xea\x93\x90\xf0?'
p2235
tp2236
Rp2237
asS'r_size:500\ne_prm:0.200000\ni_scl:0.733333\ns_scl:0.316667\nsp:1.000000\nreg:0.010000'
p2238
(lp2239
g3
(g7
S'E\x8d-\xaf\xfe\xd4\xe9?'
p2240
tp2241
Rp2242
ag3
(g7
S'\xd9\xfcc<\xc3\xfb\xf0?'
p2243
tp2244
Rp2245
ag3
(g7
S'\xf4\xfb?r}l\xeb?'
p2246
tp2247
Rp2248
asS'r_size:750\ne_prm:0.200000\ni_scl:0.200000\ns_scl:0.550000\nsp:0.100000\nreg:0.010000'
p2249
(lp2250
g3
(g7
S'\xb8\xa1\x17~;\x88\xf0?'
p2251
tp2252
Rp2253
ag3
(g7
S'7\xff1\x1cKh\xf0?'
p2254
tp2255
Rp2256
ag3
(g7
S'\xbf\x13\xe8\xd6[V\xf0?'
p2257
tp2258
Rp2259
asS'r_size:1250\ne_prm:0.200000\ni_scl:0.200000\ns_scl:0.550000\nsp:0.500000\nreg:0.010000'
p2260
(lp2261
g3
(g7
S'\xd4\xc5\x7f\xf3\x08C\xf0?'
p2262
tp2263
Rp2264
ag3
(g7
S'\xb74\xcc\x1f,>\xf0?'
p2265
tp2266
Rp2267
ag3
(g7
S'?-\xe5\x8b\x1c6\xf0?'
p2268
tp2269
Rp2270
asS'r_size:1250\ne_prm:0.200000\ni_scl:0.200000\ns_scl:0.433333\nsp:0.100000\nreg:0.010000'
p2271
(lp2272
g3
(g7
S'G\x81\xbd2\x03\xc6\xf0?'
p2273
tp2274
Rp2275
ag3
(g7
S'\xc4x\xc1\xa1\x11\xb3\xf0?'
p2276
tp2277
Rp2278
ag3
(g7
S'Z\xc1FJ\xfb\xff\xef?'
p2279
tp2280
Rp2281
asS'r_size:1250\ne_prm:0.200000\ni_scl:0.288889\ns_scl:0.666667\nsp:0.500000\nreg:0.010000'
p2282
(lp2283
g3
(g7
S'\x82\xf76\r\x9fj\xf0?'
p2284
tp2285
Rp2286
ag3
(g7
S'\x93\xb2\x98&\x98{\xf0?'
p2287
tp2288
Rp2289
ag3
(g7
S'e\xc7\x96\xeb\x05\x89\xf0?'
p2290
tp2291
Rp2292
asS'r_size:500\ne_prm:0.200000\ni_scl:0.466667\ns_scl:0.316667\nsp:0.100000\nreg:0.010000'
p2293
(lp2294
g3
(g7
S'\x9e\xce\xd9\xd4\xc18\xf0?'
p2295
tp2296
Rp2297
ag3
(g7
S'\xf2\xc8=a\xbbc\xf0?'
p2298
tp2299
Rp2300
ag3
(g7
S'\x89Z\xf9cQm\xf0?'
p2301
tp2302
Rp2303
asS'r_size:1250\ne_prm:0.200000\ni_scl:0.822222\ns_scl:0.316667\nsp:0.500000\nreg:0.010000'
p2304
(lp2305
g3
(g7
S'\xdb\x9e\r\xcaK\xf7\xf1?'
p2306
tp2307
Rp2308
ag3
(g7
S'\x9c\xaf\xc4N\xc1\xc1\xf1?'
p2309
tp2310
Rp2311
ag3
(g7
S'\xb8\xa37\\h\x9d\xf1?'
p2312
tp2313
Rp2314
asS'r_size:1000\ne_prm:0.200000\ni_scl:0.466667\ns_scl:0.433333\nsp:0.100000\nreg:0.010000'
p2315
(lp2316
g3
(g7
S'\xe9\xc0\xc9\xe3\xebn\xf0?'
p2317
tp2318
Rp2319
ag3
(g7
S'\xa8\x1b\xe3@\xda1\xf0?'
p2320
tp2321
Rp2322
ag3
(g7
S'z;\xb3O^g\xf0?'
p2323
tp2324
Rp2325
asS'r_size:1000\ne_prm:0.200000\ni_scl:0.466667\ns_scl:0.200000\nsp:0.500000\nreg:0.010000'
p2326
(lp2327
g3
(g7
S'H\xd1\xe0\xf8\xf35\xf0?'
p2328
tp2329
Rp2330
ag3
(g7
S'\x17M\x96\xb1_A\xf0?'
p2331
tp2332
Rp2333
ag3
(g7
S'$\x0f\tw}9\xf0?'
p2334
tp2335
Rp2336
asS'r_size:750\ne_prm:0.200000\ni_scl:0.911111\ns_scl:0.200000\nsp:1.000000\nreg:0.010000'
p2337
(lp2338
g3
(g7
S'\xc5F\x94)\tt\xef?'
p2339
tp2340
Rp2341
ag3
(g7
S'\xbe\xa0=\xa1\x02H\xef?'
p2342
tp2343
Rp2344
ag3
(g7
S'\x02\x8f\xaaD3\x84\xef?'
p2345
tp2346
Rp2347
asS'r_size:1000\ne_prm:0.200000\ni_scl:0.466667\ns_scl:0.550000\nsp:1.000000\nreg:0.010000'
p2348
(lp2349
g3
(g7
S'v\xd1P5a\xb2\xf3?'
p2350
tp2351
Rp2352
ag3
(g7
S'\x07\xa5r\x96N\xa0\xf3?'
p2353
tp2354
Rp2355
ag3
(g7
S'\x92\x0f\xc0\xbaB`\xf4?'
p2356
tp2357
Rp2358
asS'r_size:750\ne_prm:0.200000\ni_scl:0.288889\ns_scl:0.316667\nsp:0.100000\nreg:0.010000'
p2359
(lp2360
g3
(g7
S'f\xefMr\xe9\xbe\xf0?'
p2361
tp2362
Rp2363
ag3
(g7
S'\xb8+\xc76\xe6\xc3\xf0?'
p2364
tp2365
Rp2366
ag3
(g7
S'\xa4\xabF/:\x1c\xf0?'
p2367
tp2368
Rp2369
asS'r_size:500\ne_prm:0.200000\ni_scl:0.822222\ns_scl:0.550000\nsp:1.000000\nreg:0.010000'
p2370
(lp2371
g3
(g7
S'\xa8\xa8G}\xe6\xcb\xf5?'
p2372
tp2373
Rp2374
ag3
(g7
S'I_-\x15\x87\xc1\xf5?'
p2375
tp2376
Rp2377
ag3
(g7
S'\xa1J\x19\x10B|\xf4?'
p2378
tp2379
Rp2380
asS'r_size:750\ne_prm:0.200000\ni_scl:1.000000\ns_scl:0.200000\nsp:1.000000\nreg:0.010000'
p2381
(lp2382
g3
(g7
S'\xd3|^ \xd6\x10\xef?'
p2383
tp2384
Rp2385
ag3
(g7
S'\x80\xc7\x81\xe3<\xf6\xee?'
p2386
tp2387
Rp2388
ag3
(g7
S'\x82\x87\x16\xc87}\xef?'
p2389
tp2390
Rp2391
asS'r_size:1000\ne_prm:0.200000\ni_scl:0.200000\ns_scl:0.200000\nsp:0.100000\nreg:0.010000'
p2392
(lp2393
g3
(g7
S'\xe2P2\xd2\xf4\xc5\xf0?'
p2394
tp2395
Rp2396
ag3
(g7
S'eS\xa4P5\x11\xf1?'
p2397
tp2398
Rp2399
ag3
(g7
S'Z\x14\xfe\xba\x0c\x19\xf0?'
p2400
tp2401
Rp2402
asS'r_size:1000\ne_prm:0.200000\ni_scl:0.200000\ns_scl:0.316667\nsp:0.500000\nreg:0.010000'
p2403
(lp2404
g3
(g7
S'\x8e\xdb\xb2nK"\xf0?'
p2405
tp2406
Rp2407
ag3
(g7
S'+\x80lKX$\xf0?'
p2408
tp2409
Rp2410
ag3
(g7
S'\x9akS<\xa2%\xf0?'
p2411
tp2412
Rp2413
asS'r_size:750\ne_prm:0.200000\ni_scl:0.911111\ns_scl:0.316667\nsp:0.500000\nreg:0.010000'
p2414
(lp2415
g3
(g7
S'\x7f\x05X%\x13\xf3\xf2?'
p2416
tp2417
Rp2418
ag3
(g7
S'5\xc8r\x82^n\xf2?'
p2419
tp2420
Rp2421
ag3
(g7
S'W\x92Y\x11\xaf\xec\xf2?'
p2422
tp2423
Rp2424
asS'r_size:1000\ne_prm:0.200000\ni_scl:0.555556\ns_scl:0.550000\nsp:0.100000\nreg:0.010000'
p2425
(lp2426
g3
(g7
S'\x05n\xcex\x9bL\xf0?'
p2427
tp2428
Rp2429
ag3
(g7
S'\x17\xd0\xc7v\xf97\xf0?'
p2430
tp2431
Rp2432
ag3
(g7
S'\xef\xe9\xec/\x19X\xf0?'
p2433
tp2434
Rp2435
asS'r_size:750\ne_prm:0.200000\ni_scl:0.377778\ns_scl:0.666667\nsp:1.000000\nreg:0.010000'
p2436
(lp2437
g3
(g7
S'\xf7\x96\xea\xa7\xcb\xf6\xf2?'
p2438
tp2439
Rp2440
ag3
(g7
S'\xed\x9ey\xede\x0b\xf3?'
p2441
tp2442
Rp2443
ag3
(g7
S'[\xe6\xf4\x12\xac\x08\xf2?'
p2444
tp2445
Rp2446
asS'r_size:1250\ne_prm:0.200000\ni_scl:0.288889\ns_scl:0.550000\nsp:0.500000\nreg:0.010000'
p2447
(lp2448
g3
(g7
S'm\x05\x1d\xbc\x90F\xf0?'
p2449
tp2450
Rp2451
ag3
(g7
S'^o\x12\xa9\x1eo\xf0?'
p2452
tp2453
Rp2454
ag3
(g7
S'\x18L\xf2\x1b``\xf0?'
p2455
tp2456
Rp2457
asS'r_size:1250\ne_prm:0.200000\ni_scl:0.200000\ns_scl:0.433333\nsp:1.000000\nreg:0.010000'
p2458
(lp2459
g3
(g7
S'\x7fZ\xc4\xa8Pf\xeb?'
p2460
tp2461
Rp2462
ag3
(g7
S'-\\\xa7\x85\xbd\xa8\xeb?'
p2463
tp2464
Rp2465
ag3
(g7
S'\xfew{(z\x91\xeb?'
p2466
tp2467
Rp2468
asS'r_size:1250\ne_prm:0.200000\ni_scl:0.822222\ns_scl:0.316667\nsp:0.100000\nreg:0.010000'
p2469
(lp2470
g3
(g7
S'\\n\x8a\x0e\xae\x9d\xf0?'
p2471
tp2472
Rp2473
ag3
(g7
S'\xd9k\xab\xd7\xb2?\xf0?'
p2474
tp2475
Rp2476
ag3
(g7
S'B\xad\xa9{\xf4\x1c\xf1?'
p2477
tp2478
Rp2479
asS'r_size:1250\ne_prm:0.200000\ni_scl:0.555556\ns_scl:0.433333\nsp:0.500000\nreg:0.010000'
p2480
(lp2481
g3
(g7
S'\xa6W\xcf\xe8\xc6\xd8\xf0?'
p2482
tp2483
Rp2484
ag3
(g7
S'\xff\xef\xd7\x8e\xb8\xa8\xf0?'
p2485
tp2486
Rp2487
ag3
(g7
S'\x13\xe1\\<3\xd2\xf0?'
p2488
tp2489
Rp2490
asS'r_size:750\ne_prm:0.200000\ni_scl:0.911111\ns_scl:0.316667\nsp:0.100000\nreg:0.010000'
p2491
(lp2492
g3
(g7
S'\x99\xec\x8a\xe1\xa1`\xf0?'
p2493
tp2494
Rp2495
ag3
(g7
S'O=Bm\x9a\x9d\xf4?'
p2496
tp2497
Rp2498
ag3
(g7
S'V\xcb(\xe0\xe44\xf4?'
p2499
tp2500
Rp2501
asS'r_size:500\ne_prm:0.200000\ni_scl:0.911111\ns_scl:0.200000\nsp:1.000000\nreg:0.010000'
p2502
(lp2503
g3
(g7
S'p~\x87\x91\xdd\xe5\xef?'
p2504
tp2505
Rp2506
ag3
(g7
S'\xb7\xde\xaa\x03j\xd7\xef?'
p2507
tp2508
Rp2509
ag3
(g7
S'\x90\x9a\xbf\xbcN\xbc\xef?'
p2510
tp2511
Rp2512
asS'r_size:1250\ne_prm:0.200000\ni_scl:0.822222\ns_scl:0.550000\nsp:0.500000\nreg:0.010000'
p2513
(lp2514
g3
(g7
S'V;\xa4]\xf0\xc5\xf1?'
p2515
tp2516
Rp2517
ag3
(g7
S'&\xba\x82,\xab\xce\xf2?'
p2518
tp2519
Rp2520
ag3
(g7
S'\xc1\xb80R\xed&\xf2?'
p2521
tp2522
Rp2523
asS'r_size:750\ne_prm:0.200000\ni_scl:0.822222\ns_scl:0.433333\nsp:0.500000\nreg:0.010000'
p2524
(lp2525
g3
(g7
S'-AQ\xb3+%\xf1?'
p2526
tp2527
Rp2528
ag3
(g7
S'\xaez\xcd\xf0\x03\x1c\xf2?'
p2529
tp2530
Rp2531
ag3
(g7
S"\x9bt'\xeaYh\xf2?"
p2532
tp2533
Rp2534
asS'r_size:750\ne_prm:0.200000\ni_scl:0.288889\ns_scl:0.666667\nsp:0.100000\nreg:0.010000'
p2535
(lp2536
g3
(g7
S'E\xa1\xe6\xa4U\x0e\xf0?'
p2537
tp2538
Rp2539
ag3
(g7
S'b\x9e\xf9Y\xc1/\xf0?'
p2540
tp2541
Rp2542
ag3
(g7
S'\x94\xfc\xb2\x98\x13/\xf0?'
p2543
tp2544
Rp2545
asS'r_size:500\ne_prm:0.200000\ni_scl:0.466667\ns_scl:0.666667\nsp:0.100000\nreg:0.010000'
p2546
(lp2547
g3
(g7
S'\x9d\x03\xd7\xc2\x8a5\xf0?'
p2548
tp2549
Rp2550
ag3
(g7
S'\x01\xe4\x1d\rR:\xf0?'
p2551
tp2552
Rp2553
ag3
(g7
S'\xf6\xca\xf1\xbe\xa55\xf0?'
p2554
tp2555
Rp2556
asS'r_size:500\ne_prm:0.200000\ni_scl:1.000000\ns_scl:0.550000\nsp:0.500000\nreg:0.010000'
p2557
(lp2558
g3
(g7
S'\n\x88\x8c\x1fa\xde\xf3?'
p2559
tp2560
Rp2561
ag3
(g7
S'\xf41?po\xc3\xf1?'
p2562
tp2563
Rp2564
ag3
(g7
S'\xb8\xabj\x98B\x01\xf4?'
p2565
tp2566
Rp2567
asS'r_size:500\ne_prm:0.200000\ni_scl:0.555556\ns_scl:0.550000\nsp:1.000000\nreg:0.010000'
p2568
(lp2569
g3
(g7
S'\x96\x86\xd7\xaevO\xf4?'
p2570
tp2571
Rp2572
ag3
(g7
S'\x9d\x06F@N\xb3\xf4?'
p2573
tp2574
Rp2575
ag3
(g7
S'\x8bM\x90\xb2h+\xf4?'
p2576
tp2577
Rp2578
asS'r_size:1250\ne_prm:0.200000\ni_scl:0.200000\ns_scl:0.550000\nsp:1.000000\nreg:0.010000'
p2579
(lp2580
g3
(g7
S'\xcd\xf3\x8d\xbd{S\xed?'
p2581
tp2582
Rp2583
ag3
(g7
S'k\x93M\xf6Mr\xed?'
p2584
tp2585
Rp2586
ag3
(g7
S'\xb9t\x1e19\x97\xed?'
p2587
tp2588
Rp2589
asS'r_size:500\ne_prm:0.200000\ni_scl:0.822222\ns_scl:0.200000\nsp:0.100000\nreg:0.010000'
p2590
(lp2591
g3
(g7
S'f\x1d\nW+\xc4\xf0?'
p2592
tp2593
Rp2594
ag3
(g7
S'4\xc1\xf20\x10S\xf0?'
p2595
tp2596
Rp2597
ag3
(g7
S'9\x93\xefV\xbcn\xf0?'
p2598
tp2599
Rp2600
asS'r_size:500\ne_prm:0.200000\ni_scl:0.911111\ns_scl:0.433333\nsp:0.500000\nreg:0.010000'
p2601
(lp2602
g3
(g7
S'\xd2\xec\xbc$\xe3k\xf2?'
p2603
tp2604
Rp2605
ag3
(g7
S'\x19yd\x9c`\x1e\xf3?'
p2606
tp2607
Rp2608
ag3
(g7
S'\xb9\xe0\xa7)\xd0\x1f\xf3?'
p2609
tp2610
Rp2611
asS'r_size:500\ne_prm:0.200000\ni_scl:1.000000\ns_scl:0.200000\nsp:0.500000\nreg:0.010000'
p2612
(lp2613
g3
(g7
S'\xf3N\\\xa0\x16x\xf1?'
p2614
tp2615
Rp2616
ag3
(g7
S'\xdb\x96\x8emm\x95\xf1?'
p2617
tp2618
Rp2619
ag3
(g7
S'yHj8\xca0\xf2?'
p2620
tp2621
Rp2622
asS'r_size:500\ne_prm:0.200000\ni_scl:0.377778\ns_scl:0.316667\nsp:1.000000\nreg:0.010000'
p2623
(lp2624
g3
(g7
S'Qpd`\xa6\xc7\xee?'
p2625
tp2626
Rp2627
ag3
(g7
S'J\xab\x97F\xa9\xfd\xee?'
p2628
tp2629
Rp2630
ag3
(g7
S'\xd1r\x88\xb7<\xc1\xee?'
p2631
tp2632
Rp2633
asS'r_size:750\ne_prm:0.200000\ni_scl:0.288889\ns_scl:0.316667\nsp:1.000000\nreg:0.010000'
p2634
(lp2635
g3
(g7
S'}tu\xfc\xd6\xf9\xee?'
p2636
tp2637
Rp2638
ag3
(g7
S'Sx\x15~0#\xef?'
p2639
tp2640
Rp2641
ag3
(g7
S'\xea\x10\x1cH\xb4\n\xef?'
p2642
tp2643
Rp2644
asS'r_size:1250\ne_prm:0.200000\ni_scl:0.911111\ns_scl:0.550000\nsp:0.100000\nreg:0.010000'
p2645
(lp2646
g3
(g7
S'\xed\x97\xc3c\xd7U\xf3?'
p2647
tp2648
Rp2649
ag3
(g7
S'\xa1\x1d\xe1:\xb9\xf1\xf0?'
p2650
tp2651
Rp2652
ag3
(g7
S'\xe8mT1\xc5\x8d\xf0?'
p2653
tp2654
Rp2655
asS'r_size:500\ne_prm:0.200000\ni_scl:0.822222\ns_scl:0.550000\nsp:0.500000\nreg:0.010000'
p2656
(lp2657
g3
(g7
S'\r\x9a\x02\xc8\x9a\x9b\xf2?'
p2658
tp2659
Rp2660
ag3
(g7
S'J7\xc9A\xe3\x86\xf2?'
p2661
tp2662
Rp2663
ag3
(g7
S'\xc08O\xce.F\xf1?'
p2664
tp2665
Rp2666
asS'r_size:1250\ne_prm:0.200000\ni_scl:0.377778\ns_scl:0.666667\nsp:0.100000\nreg:0.010000'
p2667
(lp2668
g3
(g7
S'\x1b\xd4\xbe\x9d_ \xf0?'
p2669
tp2670
Rp2671
ag3
(g7
S'\xe9V\xaa\xf2\x9d:\xf0?'
p2672
tp2673
Rp2674
ag3
(g7
S'*\xe5\xc7w9 \xf0?'
p2675
tp2676
Rp2677
asS'r_size:750\ne_prm:0.200000\ni_scl:0.288889\ns_scl:0.433333\nsp:1.000000\nreg:0.010000'
p2678
(lp2679
g3
(g7
S'`\xe3\r\x8b\xec7\xeb?'
p2680
tp2681
Rp2682
ag3
(g7
S'\x05\xceY\x99N\x0c\xeb?'
p2683
tp2684
Rp2685
ag3
(g7
S'.\xf7\x99Gn>\xea?'
p2686
tp2687
Rp2688
asS'r_size:1000\ne_prm:0.200000\ni_scl:0.377778\ns_scl:0.200000\nsp:1.000000\nreg:0.010000'
p2689
(lp2690
g3
(g7
S'\xf0=\xcf\x92j\xd5\xef?'
p2691
tp2692
Rp2693
ag3
(g7
S'\x0b\xee\x05\x99\x95\xdf\xef?'
p2694
tp2695
Rp2696
ag3
(g7
S'u\xf8\x1es\x11\xec\xef?'
p2697
tp2698
Rp2699
asS'r_size:1250\ne_prm:0.200000\ni_scl:0.377778\ns_scl:0.316667\nsp:0.500000\nreg:0.010000'
p2700
(lp2701
g3
(g7
S']\xbc\n\xce\xcak\xf0?'
p2702
tp2703
Rp2704
ag3
(g7
S'\xd8\xc7\xbd\x0b\x8fQ\xf0?'
p2705
tp2706
Rp2707
ag3
(g7
S'\xc9\xae`\x85\xfcS\xf0?'
p2708
tp2709
Rp2710
asS'r_size:750\ne_prm:0.200000\ni_scl:1.000000\ns_scl:0.550000\nsp:0.100000\nreg:0.010000'
p2711
(lp2712
g3
(g7
S'+]\x92\x15n\xe4\xf0?'
p2713
tp2714
Rp2715
ag3
(g7
S'zB<b\xb7\xf7\xf0?'
p2716
tp2717
Rp2718
ag3
(g7
S'\x92\xe1i,\xf4+\xf4?'
p2719
tp2720
Rp2721
asS'r_size:1250\ne_prm:0.200000\ni_scl:0.466667\ns_scl:0.550000\nsp:0.100000\nreg:0.010000'
p2722
(lp2723
g3
(g7
S'\xd4\x89\xcb\xbbZ)\xf0?'
p2724
tp2725
Rp2726
ag3
(g7
S'<\x02F\xbc\x80,\xf0?'
p2727
tp2728
Rp2729
ag3
(g7
S'\x02\x04v\x80\x0b-\xf0?'
p2730
tp2731
Rp2732
asS'r_size:1250\ne_prm:0.200000\ni_scl:0.377778\ns_scl:0.316667\nsp:1.000000\nreg:0.010000'
p2733
(lp2734
g3
(g7
S'g=\xb3\xf7\x14\xde\xeb?'
p2735
tp2736
Rp2737
ag3
(g7
S'\xdc\xbd\xa4\x85\xe7\xe5\xeb?'
p2738
tp2739
Rp2740
ag3
(g7
S'\xb5\xd2 \x1a\xa4\xf3\xeb?'
p2741
tp2742
Rp2743
asS'r_size:1250\ne_prm:0.200000\ni_scl:0.288889\ns_scl:0.316667\nsp:1.000000\nreg:0.010000'
p2744
(lp2745
g3
(g7
S'\xc0\xd0\xbe\xd2_\x91\xed?'
p2746
tp2747
Rp2748
ag3
(g7
S'\x1f\x8e\xea\x8c\x95z\xed?'
p2749
tp2750
Rp2751
ag3
(g7
S'\x9d\xb2\x06\xa8G.\xee?'
p2752
tp2753
Rp2754
asS'r_size:750\ne_prm:0.200000\ni_scl:0.288889\ns_scl:0.550000\nsp:0.100000\nreg:0.010000'
p2755
(lp2756
g3
(g7
S'\xe3`\xda\xc8\xc7J\xf0?'
p2757
tp2758
Rp2759
ag3
(g7
S'\xe4$\xdf\x92\x1f$\xf0?'
p2760
tp2761
Rp2762
ag3
(g7
S'\xe5\xb9N,\xab\x18\xf0?'
p2763
tp2764
Rp2765
asS'r_size:750\ne_prm:0.200000\ni_scl:0.733333\ns_scl:0.200000\nsp:1.000000\nreg:0.010000'
p2766
(lp2767
g3
(g7
S'\xcb\r\xa5\x8fG\xcc\xef?'
p2768
tp2769
Rp2770
ag3
(g7
S'\x98\xf2L\xaa\x9b\xe9\xef?'
p2771
tp2772
Rp2773
ag3
(g7
S'\xf5\xde\xb8\t,\xda\xef?'
p2774
tp2775
Rp2776
asS'r_size:1250\ne_prm:0.200000\ni_scl:0.822222\ns_scl:0.316667\nsp:1.000000\nreg:0.010000'
p2777
(lp2778
g3
(g7
S'\xe0\x02<\xad\x86\xf5\xf1?'
p2779
tp2780
Rp2781
ag3
(g7
S'\xbfo\xd8\xec\x07w\xf1?'
p2782
tp2783
Rp2784
ag3
(g7
S'M\x90\x9a\xc7\x82\xb8\xf1?'
p2785
tp2786
Rp2787
asS'r_size:1250\ne_prm:0.200000\ni_scl:0.200000\ns_scl:0.433333\nsp:0.500000\nreg:0.010000'
p2788
(lp2789
g3
(g7
S'\x08\x1f4\xb8\xee*\xf0?'
p2790
tp2791
Rp2792
ag3
(g7
S'\xbd\\\xe1j\x9a,\xf0?'
p2793
tp2794
Rp2795
ag3
(g7
S'_\x99\x801\xa91\xf0?'
p2796
tp2797
Rp2798
asS'r_size:500\ne_prm:0.200000\ni_scl:0.822222\ns_scl:0.200000\nsp:1.000000\nreg:0.010000'
p2799
(lp2800
g3
(g7
S'\x92\xf4\xec\x94/\xe5\xef?'
p2801
tp2802
Rp2803
ag3
(g7
S'\xc4\x94\x02\x93\xc4\x04\xf0?'
p2804
tp2805
Rp2806
ag3
(g7
S'\xa1\x8eb9\x0c\xea\xef?'
p2807
tp2808
Rp2809
asS'r_size:750\ne_prm:0.200000\ni_scl:0.377778\ns_scl:0.666667\nsp:0.100000\nreg:0.010000'
p2810
(lp2811
g3
(g7
S'\xeeh\x15\xe3y)\xf0?'
p2812
tp2813
Rp2814
ag3
(g7
S'q\xbbP\xe0"(\xf0?'
p2815
tp2816
Rp2817
ag3
(g7
S"\x98\x08\xfbO\xc8'\xf0?"
p2818
tp2819
Rp2820
asS'r_size:1250\ne_prm:0.200000\ni_scl:0.822222\ns_scl:0.550000\nsp:0.100000\nreg:0.010000'
p2821
(lp2822
g3
(g7
S'o8\xf2\x8d$r\xf0?'
p2823
tp2824
Rp2825
ag3
(g7
S'\x15\xa1\xa0\x9b$m\xf0?'
p2826
tp2827
Rp2828
ag3
(g7
S'\xc1\x88)X\xad\xd2\xf1?'
p2829
tp2830
Rp2831
asS'r_size:1250\ne_prm:0.200000\ni_scl:0.555556\ns_scl:0.433333\nsp:1.000000\nreg:0.010000'
p2832
(lp2833
g3
(g7
S'\x86\xfc\xad\xe7N\xe2\xf2?'
p2834
tp2835
Rp2836
ag3
(g7
S'T\x86"\xa0\x80\xe5\xf2?'
p2837
tp2838
Rp2839
ag3
(g7
S'\xd4\xea\xd9\x13\xa4\x89\xf3?'
p2840
tp2841
Rp2842
asS'r_size:1250\ne_prm:0.200000\ni_scl:0.555556\ns_scl:0.316667\nsp:0.500000\nreg:0.010000'
p2843
(lp2844
g3
(g7
S'\xdb\x1e\xc9\xa1\xbc\xa8\xf0?'
p2845
tp2846
Rp2847
ag3
(g7
S'\x9a\xf8\xc3\xa2\xee\xb0\xf0?'
p2848
tp2849
Rp2850
ag3
(g7
S'\xf5\x19z\xddh\xd0\xf0?'
p2851
tp2852
Rp2853
asS'r_size:1250\ne_prm:0.200000\ni_scl:0.822222\ns_scl:0.550000\nsp:1.000000\nreg:0.010000'
p2854
(lp2855
g3
(g7
S'\x8dU:4\x8f\x93\xf6?'
p2856
tp2857
Rp2858
ag3
(g7
S'\x04\xe2V\xb4\xf7\xbc\xf6?'
p2859
tp2860
Rp2861
ag3
(g7
S'SR\xff\xf9R\x89\xf6?'
p2862
tp2863
Rp2864
asS'r_size:1000\ne_prm:0.200000\ni_scl:0.200000\ns_scl:0.550000\nsp:1.000000\nreg:0.010000'
p2865
(lp2866
g3
(g7
S'\xb2=\x07\xcb\x8aC\xed?'
p2867
tp2868
Rp2869
ag3
(g7
S'+\xc9\x18n\xf5>\xed?'
p2870
tp2871
Rp2872
ag3
(g7
S'8LIQjO\xed?'
p2873
tp2874
Rp2875
asS'r_size:500\ne_prm:0.200000\ni_scl:0.555556\ns_scl:0.433333\nsp:0.100000\nreg:0.010000'
p2876
(lp2877
g3
(g7
S'\xca\xc2^I\xd2\xd4\xf0?'
p2878
tp2879
Rp2880
ag3
(g7
S'I!\x0ev\xa58\xf0?'
p2881
tp2882
Rp2883
ag3
(g7
S'@!~<00\xf0?'
p2884
tp2885
Rp2886
asS'r_size:500\ne_prm:0.200000\ni_scl:0.288889\ns_scl:0.666667\nsp:0.100000\nreg:0.010000'
p2887
(lp2888
g3
(g7
S'\x89V\xea\xf7\xee\x11\xf0?'
p2889
tp2890
Rp2891
ag3
(g7
S'\xbd\xd2\x83u\xdf%\xf0?'
p2892
tp2893
Rp2894
ag3
(g7
S'\xa7\xc6\xb7\xe8\x050\xf0?'
p2895
tp2896
Rp2897
asS'r_size:500\ne_prm:0.200000\ni_scl:0.911111\ns_scl:0.316667\nsp:0.100000\nreg:0.010000'
p2898
(lp2899
g3
(g7
S';]\xe3\xd6\xb1*\xf4?'
p2900
tp2901
Rp2902
ag3
(g7
S"ke\x92\x0c'T\xf0?"
p2903
tp2904
Rp2905
ag3
(g7
S'\xae]\xeb\x0eDu\xf0?'
p2906
tp2907
Rp2908
asS'r_size:1000\ne_prm:0.200000\ni_scl:0.466667\ns_scl:0.433333\nsp:1.000000\nreg:0.010000'
p2909
(lp2910
g3
(g7
S'\x9a&m\xdd^\xce\xef?'
p2911
tp2912
Rp2913
ag3
(g7
S'\n\xf6]\xb6\xcf\xc1\xf0?'
p2914
tp2915
Rp2916
ag3
(g7
S'\xdd\xf8\x05\n\x99\x80\xf0?'
p2917
tp2918
Rp2919
asS'r_size:500\ne_prm:0.200000\ni_scl:1.000000\ns_scl:0.200000\nsp:1.000000\nreg:0.010000'
p2920
(lp2921
g3
(g7
S'= P\xffo\x86\xef?'
p2922
tp2923
Rp2924
ag3
(g7
S'\xbds\x81\xe0\xce\xb7\xef?'
p2925
tp2926
Rp2927
ag3
(g7
S'\x1b\x18\xaa\xcdr\xc3\xef?'
p2928
tp2929
Rp2930
asS'r_size:500\ne_prm:0.200000\ni_scl:0.377778\ns_scl:0.316667\nsp:0.500000\nreg:0.010000'
p2931
(lp2932
g3
(g7
S'\xf5\xfb\xfa6\xe1R\xf0?'
p2933
tp2934
Rp2935
ag3
(g7
S'\x8e(\xd7\xd93U\xf0?'
p2936
tp2937
Rp2938
ag3
(g7
S'\x0fr\x12\xda@V\xf0?'
p2939
tp2940
Rp2941
asS'r_size:1000\ne_prm:0.200000\ni_scl:0.644444\ns_scl:0.316667\nsp:0.100000\nreg:0.010000'
p2942
(lp2943
g3
(g7
S'\xa6\x0ct\xf9d6\xf0?'
p2944
tp2945
Rp2946
ag3
(g7
S'\x88Z`\x94\xd3\xef\xf0?'
p2947
tp2948
Rp2949
ag3
(g7
S'&r\x12\xa7\xf7I\xf0?'
p2950
tp2951
Rp2952
asS'r_size:1000\ne_prm:0.200000\ni_scl:0.288889\ns_scl:0.433333\nsp:0.100000\nreg:0.010000'
p2953
(lp2954
g3
(g7
S'\x03\xd6\xf3\r\x9a\x1a\xf0?'
p2955
tp2956
Rp2957
ag3
(g7
S"\xfb'\xf7\x99\x83\x0f\xf0?"
p2958
tp2959
Rp2960
ag3
(g7
S'\x8cg\xe8\xbd6l\xf0?'
p2961
tp2962
Rp2963
asS'r_size:500\ne_prm:0.200000\ni_scl:0.733333\ns_scl:0.550000\nsp:0.500000\nreg:0.010000'
p2964
(lp2965
g3
(g7
S'\xae`\x93\xecd\xb7\xf1?'
p2966
tp2967
Rp2968
ag3
(g7
S'\xe1CvZd\x8d\xf1?'
p2969
tp2970
Rp2971
ag3
(g7
S'Y\xc2x8\x08\xb4\xf1?'
p2972
tp2973
Rp2974
asS'r_size:750\ne_prm:0.200000\ni_scl:0.644444\ns_scl:0.200000\nsp:0.100000\nreg:0.010000'
p2975
(lp2976
g3
(g7
S'\xdb\xc0>\x8e\x16^\xf0?'
p2977
tp2978
Rp2979
ag3
(g7
S"JF\xbeU'\x82\xf0?"
p2980
tp2981
Rp2982
ag3
(g7
S'\xda\x18.*fB\xf0?'
p2983
tp2984
Rp2985
asS'r_size:1000\ne_prm:0.200000\ni_scl:0.733333\ns_scl:0.200000\nsp:1.000000\nreg:0.010000'
p2986
(lp2987
g3
(g7
S'\xd3\xf9\x7f\x882\x99\xef?'
p2988
tp2989
Rp2990
ag3
(g7
S'C\xecv\x12\n\x8a\xef?'
p2991
tp2992
Rp2993
ag3
(g7
S'G}\x04\xbb\x9c\xc6\xef?'
p2994
tp2995
Rp2996
asS'r_size:500\ne_prm:0.200000\ni_scl:1.000000\ns_scl:0.316667\nsp:0.100000\nreg:0.010000'
p2997
(lp2998
g3
(g7
S'\xf7,\xdeH\x10]\xf3?'
p2999
tp3000
Rp3001
ag3
(g7
S'\xda\x7f\xd5E\xbca\xf0?'
p3002
tp3003
Rp3004
ag3
(g7
S'\xa0RZ\xffd`\xf0?'
p3005
tp3006
Rp3007
asS'r_size:1000\ne_prm:0.200000\ni_scl:0.288889\ns_scl:0.666667\nsp:0.100000\nreg:0.010000'
p3008
(lp3009
g3
(g7
S'\rT\xf2c\xef\x15\xf0?'
p3010
tp3011
Rp3012
ag3
(g7
S'\x97\xa1\xc4Hv+\xf0?'
p3013
tp3014
Rp3015
ag3
(g7
S'\xc7\xeb\xf7\xe8\xfc2\xf0?'
p3016
tp3017
Rp3018
asS'r_size:750\ne_prm:0.200000\ni_scl:0.555556\ns_scl:0.550000\nsp:0.500000\nreg:0.010000'
p3019
(lp3020
g3
(g7
S'vS\xbd\xe1]\xe3\xf0?'
p3021
tp3022
Rp3023
ag3
(g7
S'\xa6n-i\xc4\xfb\xf0?'
p3024
tp3025
Rp3026
ag3
(g7
S'\x15(\xda\x17\x8b\xe3\xf0?'
p3027
tp3028
Rp3029
asS'r_size:750\ne_prm:0.200000\ni_scl:1.000000\ns_scl:0.550000\nsp:0.500000\nreg:0.010000'
p3030
(lp3031
g3
(g7
S'j\xd5\xd68\xfb\xc3\xf3?'
p3032
tp3033
Rp3034
ag3
(g7
S'$\x00%\x87\xdb\x14\xf4?'
p3035
tp3036
Rp3037
ag3
(g7
S'\xde\x8cR\\v\x03\xf1?'
p3038
tp3039
Rp3040
asS'r_size:750\ne_prm:0.200000\ni_scl:0.644444\ns_scl:0.200000\nsp:0.500000\nreg:0.010000'
p3041
(lp3042
g3
(g7
S'<\x13x\x92\x04\x9a\xf0?'
p3043
tp3044
Rp3045
ag3
(g7
S'\xd9\x01a\xb8c\xcc\xf0?'
p3046
tp3047
Rp3048
ag3
(g7
S'4\xd2-t(\x84\xf0?'
p3049
tp3050
Rp3051
asS'r_size:1250\ne_prm:0.200000\ni_scl:0.288889\ns_scl:0.666667\nsp:0.100000\nreg:0.010000'
p3052
(lp3053
g3
(g7
S'\xc8;\x05\xc8\x8a&\xf0?'
p3054
tp3055
Rp3056
ag3
(g7
S'\x1fC\xfb\x8ap-\xf0?'
p3057
tp3058
Rp3059
ag3
(g7
S'\xaf\xb9\x7f\x00H/\xf0?'
p3060
tp3061
Rp3062
asS'r_size:500\ne_prm:0.200000\ni_scl:0.466667\ns_scl:0.200000\nsp:1.000000\nreg:0.010000'
p3063
(lp3064
g3
(g7
S"\x87\xde\x85'd\xc8\xef?"
p3065
tp3066
Rp3067
ag3
(g7
S'\x02\xd4\x03\xd3\xbb\xb1\xef?'
p3068
tp3069
Rp3070
ag3
(g7
S'\xec\xa4\xe5\xee\x95\xd0\xef?'
p3071
tp3072
Rp3073
asS'r_size:1000\ne_prm:0.200000\ni_scl:0.644444\ns_scl:0.200000\nsp:0.100000\nreg:0.010000'
p3074
(lp3075
g3
(g7
S'\x03xk\xe7C\x9e\xf0?'
p3076
tp3077
Rp3078
ag3
(g7
S'\x89\x06:\xdd\x98-\xf0?'
p3079
tp3080
Rp3081
ag3
(g7
S'f\xe0;\xba\xf33\xf0?'
p3082
tp3083
Rp3084
asS'r_size:1250\ne_prm:0.200000\ni_scl:0.200000\ns_scl:0.200000\nsp:0.500000\nreg:0.010000'
p3085
(lp3086
g3
(g7
S'\x86"|&\xfc?\xf0?'
p3087
tp3088
Rp3089
ag3
(g7
S'\x13\x1c\xb9`\xf0O\xf0?'
p3090
tp3091
Rp3092
ag3
(g7
S'\xe4 ;\xe3\x85_\xf0?'
p3093
tp3094
Rp3095
asS'r_size:500\ne_prm:0.200000\ni_scl:0.733333\ns_scl:0.316667\nsp:0.100000\nreg:0.010000'
p3096
(lp3097
g3
(g7
S'^RN\x95\x0b5\xf0?'
p3098
tp3099
Rp3100
ag3
(g7
S'\x87\n%\xf1\xa4G\xf0?'
p3101
tp3102
Rp3103
ag3
(g7
S'\xc0\xc0D\xca\xfe|\xf0?'
p3104
tp3105
Rp3106
asS'r_size:500\ne_prm:0.200000\ni_scl:0.466667\ns_scl:0.666667\nsp:1.000000\nreg:0.010000'
p3107
(lp3108
g3
(g7
S'\xa5\x15\x1f\x9bK\x08\xf4?'
p3109
tp3110
Rp3111
ag3
(g7
S'1k}\x9aX\xf6\xf4?'
p3112
tp3113
Rp3114
ag3
(g7
S'~\x14\xeb\xe0~\xda\xf3?'
p3115
tp3116
Rp3117
asS'r_size:750\ne_prm:0.200000\ni_scl:0.733333\ns_scl:0.433333\nsp:0.100000\nreg:0.010000'
p3118
(lp3119
g3
(g7
S'5\x17\xd643\xbb\xf0?'
p3120
tp3121
Rp3122
ag3
(g7
S'v\xdcn\xc1\x86O\xf0?'
p3123
tp3124
Rp3125
ag3
(g7
S'\xc2Y\xf2\x15xW\xf0?'
p3126
tp3127
Rp3128
asS'r_size:500\ne_prm:0.200000\ni_scl:0.822222\ns_scl:0.200000\nsp:0.500000\nreg:0.010000'
p3129
(lp3130
g3
(g7
S'"\x19\x90,\xb6\x9c\xf0?'
p3131
tp3132
Rp3133
ag3
(g7
S'\x8a1\xc1x\x9a\xa1\xf0?'
p3134
tp3135
Rp3136
ag3
(g7
S'\xd3\x17{z\xa0\xaf\xf0?'
p3137
tp3138
Rp3139
asS'r_size:1250\ne_prm:0.200000\ni_scl:0.288889\ns_scl:0.316667\nsp:0.100000\nreg:0.010000'
p3140
(lp3141
g3
(g7
S'\xacz\xbc\xdf\xb0}\xf0?'
p3142
tp3143
Rp3144
ag3
(g7
S'\x1a\x89\xcc\ruL\xf0?'
p3145
tp3146
Rp3147
ag3
(g7
S'u\xfa\xf7{\t2\xf0?'
p3148
tp3149
Rp3150
asS'r_size:750\ne_prm:0.200000\ni_scl:0.733333\ns_scl:0.316667\nsp:0.100000\nreg:0.010000'
p3151
(lp3152
g3
(g7
S'd\x1e\xfaY\xf6\xa3\xf0?'
p3153
tp3154
Rp3155
ag3
(g7
S"\xf5K\xd7'z:\xf0?"
p3156
tp3157
Rp3158
ag3
(g7
S'\xbfx\xecU\x1f;\xf0?'
p3159
tp3160
Rp3161
asS'r_size:1250\ne_prm:0.200000\ni_scl:1.000000\ns_scl:0.316667\nsp:0.100000\nreg:0.010000'
p3162
(lp3163
g3
(g7
S'\xe2\xde\x9e\xe8W`\xf4?'
p3164
tp3165
Rp3166
ag3
(g7
S'\xe2\xe9S\xb0p\xbd\xf3?'
p3167
tp3168
Rp3169
ag3
(g7
S'\xbf\x08\xc3\x93\xdcz\xf1?'
p3170
tp3171
Rp3172
asS'r_size:500\ne_prm:0.200000\ni_scl:0.644444\ns_scl:0.200000\nsp:1.000000\nreg:0.010000'
p3173
(lp3174
g3
(g7
S'\xc0{\xf1\xfbB\x05\xf0?'
p3175
tp3176
Rp3177
ag3
(g7
S'\xc0\xa2O\x84p\xea\xef?'
p3178
tp3179
Rp3180
ag3
(g7
S'if<~p\x00\xf0?'
p3181
tp3182
Rp3183
asS'r_size:1000\ne_prm:0.200000\ni_scl:0.733333\ns_scl:0.200000\nsp:0.100000\nreg:0.010000'
p3184
(lp3185
g3
(g7
S'\xc0d\xe3\xdd\n\x89\xf0?'
p3186
tp3187
Rp3188
ag3
(g7
S'cJ$\xf2\xfdL\xf0?'
p3189
tp3190
Rp3191
ag3
(g7
S'\x9b\xf6\xc3\xe3\r3\xf0?'
p3192
tp3193
Rp3194
asS'r_size:750\ne_prm:0.200000\ni_scl:0.911111\ns_scl:0.550000\nsp:0.100000\nreg:0.010000'
p3195
(lp3196
g3
(g7
S'\xfa \x16\x1cU\xcc\xf3?'
p3197
tp3198
Rp3199
ag3
(g7
S'-F\x15_\x1b\x7f\xf3?'
p3200
tp3201
Rp3202
ag3
(g7
S'l<\xd4n\xaf\x96\xf3?'
p3203
tp3204
Rp3205
asS'r_size:1000\ne_prm:0.200000\ni_scl:0.733333\ns_scl:0.433333\nsp:1.000000\nreg:0.010000'
p3206
(lp3207
g3
(g7
S'\xa0\xa3\xc6\x950\\\xf2?'
p3208
tp3209
Rp3210
ag3
(g7
S'\x03\xc5\xb0\xed\xf5*\xf3?'
p3211
tp3212
Rp3213
ag3
(g7
S'\xd9\x15R\xa0\x9c\xb2\xf3?'
p3214
tp3215
Rp3216
asS'r_size:1000\ne_prm:0.200000\ni_scl:1.000000\ns_scl:0.316667\nsp:1.000000\nreg:0.010000'
p3217
(lp3218
g3
(g7
S'h y\xdd\xb1\xa1\xf2?'
p3219
tp3220
Rp3221
ag3
(g7
S'\x1d\xc2HY\xbcK\xf3?'
p3222
tp3223
Rp3224
ag3
(g7
S'\x9f\xd9\\0r\xee\xf2?'
p3225
tp3226
Rp3227
asS'r_size:1000\ne_prm:0.200000\ni_scl:0.377778\ns_scl:0.316667\nsp:1.000000\nreg:0.010000'
p3228
(lp3229
g3
(g7
S'm\x8b\xe3\xb4Z\xa8\xed?'
p3230
tp3231
Rp3232
ag3
(g7
S'n\x07\xc4Z\xa6D\xed?'
p3233
tp3234
Rp3235
ag3
(g7
S'\x93\xc36\xbe\x1a\xed\xec?'
p3236
tp3237
Rp3238
asS'r_size:1000\ne_prm:0.200000\ni_scl:0.822222\ns_scl:0.433333\nsp:0.500000\nreg:0.010000'
p3239
(lp3240
g3
(g7
S'\xcdd\xe9l\x1a\x0c\xf1?'
p3241
tp3242
Rp3243
ag3
(g7
S'zt\t\xd4R\x13\xf2?'
p3244
tp3245
Rp3246
ag3
(g7
S'\xfb&\xca,\xe2r\xf2?'
p3247
tp3248
Rp3249
asS'r_size:1250\ne_prm:0.200000\ni_scl:0.555556\ns_scl:0.316667\nsp:1.000000\nreg:0.010000'
p3250
(lp3251
g3
(g7
S'3(\xcb|\xe01\xec?'
p3252
tp3253
Rp3254
ag3
(g7
S'\xf3\xed\x18C\x8e8\xeb?'
p3255
tp3256
Rp3257
ag3
(g7
S'\xd0(\xe4\x00U\xe4\xeb?'
p3258
tp3259
Rp3260
asS'r_size:750\ne_prm:0.200000\ni_scl:0.911111\ns_scl:0.433333\nsp:1.000000\nreg:0.010000'
p3261
(lp3262
g3
(g7
S'5\xd7\x88\xcc<O\xf2?'
p3263
tp3264
Rp3265
ag3
(g7
S';\x8d\x1c\xf3\xac^\xf2?'
p3266
tp3267
Rp3268
ag3
(g7
S'#\xfas\x91\x12\xd2\xf2?'
p3269
tp3270
Rp3271
asS'r_size:1250\ne_prm:0.200000\ni_scl:0.466667\ns_scl:0.550000\nsp:1.000000\nreg:0.010000'
p3272
(lp3273
g3
(g7
S'\xa5\xe3EF\xc0^\xf4?'
p3274
tp3275
Rp3276
ag3
(g7
S'\xd3\x0f\xa5\xf6\xb7\xa7\xf4?'
p3277
tp3278
Rp3279
ag3
(g7
S'\xfd\x05V+\x04\xb0\xf3?'
p3280
tp3281
Rp3282
asS'r_size:1000\ne_prm:0.200000\ni_scl:0.644444\ns_scl:0.316667\nsp:0.500000\nreg:0.010000'
p3283
(lp3284
g3
(g7
S'\xd3\xdaY\x01\xdf\xd5\xf0?'
p3285
tp3286
Rp3287
ag3
(g7
S'\x87\x96\x1b\xf6}\xd9\xf0?'
p3288
tp3289
Rp3290
ag3
(g7
S'A\xe6\xd9\xb4\x1a\xd9\xf0?'
p3291
tp3292
Rp3293
asS'r_size:1250\ne_prm:0.200000\ni_scl:0.377778\ns_scl:0.200000\nsp:0.100000\nreg:0.010000'
p3294
(lp3295
g3
(g7
S"\xa7\xf5\xda.g'\xf0?"
p3296
tp3297
Rp3298
ag3
(g7
S'0\xe4\xdf\x0c\t\x17\xf0?'
p3299
tp3300
Rp3301
ag3
(g7
S'\x13;\x90_\xd8\xd2\xf0?'
p3302
tp3303
Rp3304
asS'r_size:1250\ne_prm:0.200000\ni_scl:0.555556\ns_scl:0.666667\nsp:0.100000\nreg:0.010000'
p3305
(lp3306
g3
(g7
S'\xbb\xec\x15g\xbeP\xf0?'
p3307
tp3308
Rp3309
ag3
(g7
S'\xf1k\x08\x1a/H\xf0?'
p3310
tp3311
Rp3312
ag3
(g7
S'(\xe9\xaf\xf0\xf8z\xf0?'
p3313
tp3314
Rp3315
asS'r_size:750\ne_prm:0.200000\ni_scl:0.377778\ns_scl:0.200000\nsp:1.000000\nreg:0.010000'
p3316
(lp3317
g3
(g7
S'il"!\xb2\xb3\xef?'
p3318
tp3319
Rp3320
ag3
(g7
S';h`\xe6\xd5\xd1\xef?'
p3321
tp3322
Rp3323
ag3
(g7
S'\x8a\xa5\xe6\xa4\x94\xc8\xef?'
p3324
tp3325
Rp3326
asS'r_size:1000\ne_prm:0.200000\ni_scl:0.200000\ns_scl:0.433333\nsp:0.100000\nreg:0.010000'
p3327
(lp3328
g3
(g7
S'\x92h\xd4\x83\x15\x00\xf0?'
p3329
tp3330
Rp3331
ag3
(g7
S'\xf7~\x9d@\x00\xc8\xf0?'
p3332
tp3333
Rp3334
ag3
(g7
S'\xb2\x12\xe5\xde\x01\x7f\xf0?'
p3335
tp3336
Rp3337
asS'r_size:1250\ne_prm:0.200000\ni_scl:1.000000\ns_scl:0.433333\nsp:0.100000\nreg:0.010000'
p3338
(lp3339
g3
(g7
S'\xe2J\x1f\xa8\xa52\xf4?'
p3340
tp3341
Rp3342
ag3
(g7
S'%\xa9\xd7\x10\xcf\x85\xf0?'
p3343
tp3344
Rp3345
ag3
(g7
S'\xd5\xfcu\x84\xe9D\xf4?'
p3346
tp3347
Rp3348
asS'r_size:750\ne_prm:0.200000\ni_scl:0.733333\ns_scl:0.200000\nsp:0.500000\nreg:0.010000'
p3349
(lp3350
g3
(g7
S',\xc87O\x98\xab\xf0?'
p3351
tp3352
Rp3353
ag3
(g7
S'Q\xbbk\xaeo\x89\xf0?'
p3354
tp3355
Rp3356
ag3
(g7
S'\x8c\xdd\xc1O@\xe5\xf0?'
p3357
tp3358
Rp3359
asS'r_size:500\ne_prm:0.200000\ni_scl:0.555556\ns_scl:0.666667\nsp:1.000000\nreg:0.010000'
p3360
(lp3361
g3
(g7
S'\xdb\xd9|Z\xcd\xf9\xf4?'
p3362
tp3363
Rp3364
ag3
(g7
S',\xa0\x97\x89@\x8e\xf4?'
p3365
tp3366
Rp3367
ag3
(g7
S'<\x1e\xc8\x14\xf0\x8c\xf4?'
p3368
tp3369
Rp3370
asS'r_size:750\ne_prm:0.200000\ni_scl:0.911111\ns_scl:0.200000\nsp:0.100000\nreg:0.010000'
p3371
(lp3372
g3
(g7
S'\xe5\x1e\xeb(1P\xf0?'
p3373
tp3374
Rp3375
ag3
(g7
S'\x01\xab\xa9\xfd\x0fz\xf0?'
p3376
tp3377
Rp3378
ag3
(g7
S'\xdc ~\x1e\xe4\xe2\xf0?'
p3379
tp3380
Rp3381
asS'r_size:750\ne_prm:0.200000\ni_scl:0.555556\ns_scl:0.316667\nsp:0.100000\nreg:0.010000'
p3382
(lp3383
g3
(g7
S'\xb5H\x106\xc5&\xf0?'
p3384
tp3385
Rp3386
ag3
(g7
S'\xf0\xf5\xee3\x8cW\xf0?'
p3387
tp3388
Rp3389
ag3
(g7
S';}Xf\xfdK\xf0?'
p3390
tp3391
Rp3392
asS'r_size:1250\ne_prm:0.200000\ni_scl:0.288889\ns_scl:0.666667\nsp:1.000000\nreg:0.010000'
p3393
(lp3394
g3
(g7
S'\x19\xf2\xae\xc1\x81\xd1\xed?'
p3395
tp3396
Rp3397
ag3
(g7
S'\x03\x06\x95^\xe6\xbb\xef?'
p3398
tp3399
Rp3400
ag3
(g7
S'=,,\xdc\xb5A\xf2?'
p3401
tp3402
Rp3403
asS'r_size:750\ne_prm:0.200000\ni_scl:0.644444\ns_scl:0.200000\nsp:1.000000\nreg:0.010000'
p3404
(lp3405
g3
(g7
S'MV\xfes\xc9\xf3\xef?'
p3406
tp3407
Rp3408
ag3
(g7
S'CA\x9ee\xb9\xec\xef?'
p3409
tp3410
Rp3411
ag3
(g7
S'lf\x85~K\xfd\xef?'
p3412
tp3413
Rp3414
asS'r_size:1250\ne_prm:0.200000\ni_scl:1.000000\ns_scl:0.433333\nsp:0.500000\nreg:0.010000'
p3415
(lp3416
g3
(g7
S'\xd9\xc1\xe8\x10$\xa7\xf3?'
p3417
tp3418
Rp3419
ag3
(g7
S'H\xd7)\xc1\x11\x01\xf3?'
p3420
tp3421
Rp3422
ag3
(g7
S'mTE\r/ \xf3?'
p3423
tp3424
Rp3425
asS'r_size:500\ne_prm:0.200000\ni_scl:0.466667\ns_scl:0.550000\nsp:1.000000\nreg:0.010000'
p3426
(lp3427
g3
(g7
S'\xd5\xee\xa7\x01\x993\xf3?'
p3428
tp3429
Rp3430
ag3
(g7
S'\xee\xc2\xb0d\x00E\xf3?'
p3431
tp3432
Rp3433
ag3
(g7
S"'J\xe7\xe1\xd7\x94\xf3?"
p3434
tp3435
Rp3436
asS'r_size:500\ne_prm:0.200000\ni_scl:0.200000\ns_scl:0.316667\nsp:0.500000\nreg:0.010000'
p3437
(lp3438
g3
(g7
S'\xb5\\.3\t \xf0?'
p3439
tp3440
Rp3441
ag3
(g7
S"X\xd40mA'\xf0?"
p3442
tp3443
Rp3444
ag3
(g7
S'\xc9\xd4s\xbf\xf8!\xf0?'
p3445
tp3446
Rp3447
asS'r_size:1000\ne_prm:0.200000\ni_scl:0.200000\ns_scl:0.433333\nsp:0.500000\nreg:0.010000'
p3448
(lp3449
g3
(g7
S'\x1f\xc9\x8f\xf8\xd4*\xf0?'
p3450
tp3451
Rp3452
ag3
(g7
S'trM\xf5\x8f,\xf0?'
p3453
tp3454
Rp3455
ag3
(g7
S'\xda\x92B\xc95-\xf0?'
p3456
tp3457
Rp3458
asS'r_size:1000\ne_prm:0.200000\ni_scl:0.200000\ns_scl:0.666667\nsp:1.000000\nreg:0.010000'
p3459
(lp3460
g3
(g7
S'\xe6\x07\x10\x02k\x14\xec?'
p3461
tp3462
Rp3463
ag3
(g7
S'a\xbf\xefrr\xe3\xec?'
p3464
tp3465
Rp3466
ag3
(g7
S'\x03\xb25\xe0\xa1\x9c\xeb?'
p3467
tp3468
Rp3469
asS'r_size:1250\ne_prm:0.200000\ni_scl:0.911111\ns_scl:0.316667\nsp:0.500000\nreg:0.010000'
p3470
(lp3471
g3
(g7
S'\x81\xe9"&\xfb\xb0\xf2?'
p3472
tp3473
Rp3474
ag3
(g7
S'"\xf5*HKc\xf2?'
p3475
tp3476
Rp3477
ag3
(g7
S'\xb0\xc7\x8e\xae\xf3\xd4\xf2?'
p3478
tp3479
Rp3480
asS'r_size:1000\ne_prm:0.200000\ni_scl:0.733333\ns_scl:0.550000\nsp:0.100000\nreg:0.010000'
p3481
(lp3482
g3
(g7
S'\xc0\xbc\x95\xff\xc7`\xf0?'
p3483
tp3484
Rp3485
ag3
(g7
S'\x12\x1e\xd1,\x82v\xf0?'
p3486
tp3487
Rp3488
ag3
(g7
S'\x965\xd2U\x93f\xf0?'
p3489
tp3490
Rp3491
asS'r_size:1250\ne_prm:0.200000\ni_scl:0.200000\ns_scl:0.200000\nsp:1.000000\nreg:0.010000'
p3492
(lp3493
g3
(g7
S'&7\xa3-v\x9a\xef?'
p3494
tp3495
Rp3496
ag3
(g7
S'\t\xb0\x9a\xae\xe9\x98\xef?'
p3497
tp3498
Rp3499
ag3
(g7
S'1E\xc5\xfd\xe5\x83\xef?'
p3500
tp3501
Rp3502
asS'r_size:1000\ne_prm:0.200000\ni_scl:0.911111\ns_scl:0.550000\nsp:0.500000\nreg:0.010000'
p3503
(lp3504
g3
(g7
S'E:\xa7\xd1i\xaf\xf2?'
p3505
tp3506
Rp3507
ag3
(g7
S'\xcd\xd2\x84[\xa2\x13\xf3?'
p3508
tp3509
Rp3510
ag3
(g7
S'Mti\x9e$\xce\xf2?'
p3511
tp3512
Rp3513
asS'r_size:1000\ne_prm:0.200000\ni_scl:0.200000\ns_scl:0.200000\nsp:1.000000\nreg:0.010000'
p3514
(lp3515
g3
(g7
S'\xe5\x17\x1d7\x1ar\xef?'
p3516
tp3517
Rp3518
ag3
(g7
S'L\xdf\x0e\xf7gy\xef?'
p3519
tp3520
Rp3521
ag3
(g7
S'p^\xcc\xb8\xd8c\xef?'
p3522
tp3523
Rp3524
asS'r_size:500\ne_prm:0.200000\ni_scl:0.822222\ns_scl:0.316667\nsp:0.100000\nreg:0.010000'
p3525
(lp3526
g3
(g7
S'C\xee\x19\xe9\x91\xa2\xf0?'
p3527
tp3528
Rp3529
ag3
(g7
S'2\x86\xf4\x08&@\xf0?'
p3530
tp3531
Rp3532
ag3
(g7
S'\x89\xd8\xa3\x19.\x05\xf2?'
p3533
tp3534
Rp3535
asS'r_size:1000\ne_prm:0.200000\ni_scl:0.733333\ns_scl:0.316667\nsp:1.000000\nreg:0.010000'
p3536
(lp3537
g3
(g7
S'\xba\xaa\xf5\xc5\xa1b\xf0?'
p3538
tp3539
Rp3540
ag3
(g7
S'\xd5\xe8\x9f\x86q\xbf\xf1?'
p3541
tp3542
Rp3543
ag3
(g7
S'\xfa\x88<\xae%\x8a\xf0?'
p3544
tp3545
Rp3546
asS'r_size:750\ne_prm:0.200000\ni_scl:0.377778\ns_scl:0.666667\nsp:0.500000\nreg:0.010000'
p3547
(lp3548
g3
(g7
S'\xf4\xd4^\x82K\xb1\xf0?'
p3549
tp3550
Rp3551
ag3
(g7
S'\xa4\x8b\x85mMn\xf0?'
p3552
tp3553
Rp3554
ag3
(g7
S'\x8e\xb4\xeb\n+w\xf0?'
p3555
tp3556
Rp3557
asS'r_size:750\ne_prm:0.200000\ni_scl:0.466667\ns_scl:0.666667\nsp:0.100000\nreg:0.010000'
p3558
(lp3559
g3
(g7
S'\xf3\xcerY75\xf0?'
p3560
tp3561
Rp3562
ag3
(g7
S'\xf5\x9d~x\xbc\x87\xf0?'
p3563
tp3564
Rp3565
ag3
(g7
S'pa_\xf9\x975\xf0?'
p3566
tp3567
Rp3568
asS'r_size:1250\ne_prm:0.200000\ni_scl:0.466667\ns_scl:0.666667\nsp:0.500000\nreg:0.010000'
p3569
(lp3570
g3
(g7
S'\x80K\x10\xfb<\xae\xf0?'
p3571
tp3572
Rp3573
ag3
(g7
S'TV\xd1%/\xab\xf0?'
p3574
tp3575
Rp3576
ag3
(g7
S'\xfa\x8f\xb0\x021B\xf0?'
p3577
tp3578
Rp3579
asS'r_size:1000\ne_prm:0.200000\ni_scl:0.377778\ns_scl:0.316667\nsp:0.500000\nreg:0.010000'
p3580
(lp3581
g3
(g7
S'_4\x9e`\xb1W\xf0?'
p3582
tp3583
Rp3584
ag3
(g7
S' N@6\xfa^\xf0?'
p3585
tp3586
Rp3587
ag3
(g7
S'\xdb\xae\xd9/\xe8S\xf0?'
p3588
tp3589
Rp3590
asS'r_size:1000\ne_prm:0.200000\ni_scl:0.466667\ns_scl:0.200000\nsp:1.000000\nreg:0.010000'
p3591
(lp3592
g3
(g7
S'+$%\xeb\x9e\r\xf0?'
p3593
tp3594
Rp3595
ag3
(g7
S'z)f\xdf\xa1\xfd\xef?'
p3596
tp3597
Rp3598
ag3
(g7
S'\xad\xc7\x98\xfdY\x05\xf0?'
p3599
tp3600
Rp3601
asS'r_size:1000\ne_prm:0.200000\ni_scl:0.555556\ns_scl:0.433333\nsp:1.000000\nreg:0.010000'
p3602
(lp3603
g3
(g7
S'a\xfdV\xe7s\xda\xf2?'
p3604
tp3605
Rp3606
ag3
(g7
S'\xdeF\x1c\x1e\xc0;\xf1?'
p3607
tp3608
Rp3609
ag3
(g7
S'\xeaVl\xb3(\xfc\xf2?'
p3610
tp3611
Rp3612
asS'r_size:750\ne_prm:0.200000\ni_scl:0.911111\ns_scl:0.433333\nsp:0.500000\nreg:0.010000'
p3613
(lp3614
g3
(g7
S';\x83\x99\x80\x06J\xf3?'
p3615
tp3616
Rp3617
ag3
(g7
S'\\)j\xfb#I\xf3?'
p3618
tp3619
Rp3620
ag3
(g7
S'V>\xeaL\x0b\xce\xf2?'
p3621
tp3622
Rp3623
asS'r_size:500\ne_prm:0.200000\ni_scl:0.377778\ns_scl:0.316667\nsp:0.100000\nreg:0.010000'
p3624
(lp3625
g3
(g7
S'!}]\xa5\xb1D\xf0?'
p3626
tp3627
Rp3628
ag3
(g7
S'\xde\xdb\xb1\xaeI>\xf0?'
p3629
tp3630
Rp3631
ag3
(g7
S'1i\xa0\xefh\x8f\xf0?'
p3632
tp3633
Rp3634
asS'r_size:1000\ne_prm:0.200000\ni_scl:0.733333\ns_scl:0.550000\nsp:0.500000\nreg:0.010000'
p3635
(lp3636
g3
(g7
S'b\xcf#\xbe\x14\xcf\xf1?'
p3637
tp3638
Rp3639
ag3
(g7
S'\xea$7B\x82\x9f\xf1?'
p3640
tp3641
Rp3642
ag3
(g7
S'$\x17\xa9h\x04\xc9\xf0?'
p3643
tp3644
Rp3645
asS'r_size:1250\ne_prm:0.200000\ni_scl:0.466667\ns_scl:0.316667\nsp:0.100000\nreg:0.010000'
p3646
(lp3647
g3
(g7
S'\xc5\x8c\xd7\x99Lk\xf0?'
p3648
tp3649
Rp3650
ag3
(g7
S'\xc5N1n\rV\xf0?'
p3651
tp3652
Rp3653
ag3
(g7
S'\xcf\x84\xceE\x1d7\xf0?'
p3654
tp3655
Rp3656
asS'r_size:1250\ne_prm:0.200000\ni_scl:0.466667\ns_scl:0.433333\nsp:0.100000\nreg:0.010000'
p3657
(lp3658
g3
(g7
S't\xa4\xfd)\x0e!\xf0?'
p3659
tp3660
Rp3661
ag3
(g7
S"/Rb\x04}'\xf0?"
p3662
tp3663
Rp3664
ag3
(g7
S'q\xe0\x19\xf6\x8e!\xf0?'
p3665
tp3666
Rp3667
asS'r_size:1000\ne_prm:0.200000\ni_scl:0.644444\ns_scl:0.550000\nsp:0.500000\nreg:0.010000'
p3668
(lp3669
g3
(g7
S'\xef\xb082\x14\x1e\xf1?'
p3670
tp3671
Rp3672
ag3
(g7
S'>BPt\xd9B\xf1?'
p3673
tp3674
Rp3675
ag3
(g7
S'OH\x08o\xd82\xf1?'
p3676
tp3677
Rp3678
asS'r_size:500\ne_prm:0.200000\ni_scl:0.377778\ns_scl:0.666667\nsp:0.100000\nreg:0.010000'
p3679
(lp3680
g3
(g7
S'\x84Y\xfa1\xe7$\xf0?'
p3681
tp3682
Rp3683
ag3
(g7
S'Sg\xbf\xdf\\\x1f\xf0?'
p3684
tp3685
Rp3686
ag3
(g7
S'\xcd\x1a\xf1=\x97)\xf0?'
p3687
tp3688
Rp3689
asS'r_size:750\ne_prm:0.200000\ni_scl:1.000000\ns_scl:0.316667\nsp:0.100000\nreg:0.010000'
p3690
(lp3691
g3
(g7
S'\x1dM\x9f\x10vh\xf0?'
p3692
tp3693
Rp3694
ag3
(g7
S'\xf4e7L\x8e\x81\xf0?'
p3695
tp3696
Rp3697
ag3
(g7
S'\n\x06\xa6t\xb7\x00\xf4?'
p3698
tp3699
Rp3700
asS'r_size:1250\ne_prm:0.200000\ni_scl:0.377778\ns_scl:0.666667\nsp:1.000000\nreg:0.010000'
p3701
(lp3702
g3
(g7
S'.\xe6\xcb\x98\xac\xa7\xf1?'
p3703
tp3704
Rp3705
ag3
(g7
S'\x91\x95\xbf\xd5K\x8e\xf1?'
p3706
tp3707
Rp3708
ag3
(g7
S'\x8a7\xe3h\xefr\xf1?'
p3709
tp3710
Rp3711
asS'r_size:1000\ne_prm:0.200000\ni_scl:0.822222\ns_scl:0.200000\nsp:0.100000\nreg:0.010000'
p3712
(lp3713
g3
(g7
S'\xf9pk>\xc4Y\xf0?'
p3714
tp3715
Rp3716
ag3
(g7
S'x\x9eKVox\xf0?'
p3717
tp3718
Rp3719
ag3
(g7
S'\xc5D\xc1!\x02:\xf0?'
p3720
tp3721
Rp3722
asS'r_size:1000\ne_prm:0.200000\ni_scl:0.288889\ns_scl:0.433333\nsp:1.000000\nreg:0.010000'
p3723
(lp3724
g3
(g7
S'\xa3\xfa!\xc8\xd8\xad\xea?'
p3725
tp3726
Rp3727
ag3
(g7
S'\x16\x12\x9d\x86H\xc9\xe9?'
p3728
tp3729
Rp3730
ag3
(g7
S'\x02&e\xf4\xe2\xab\xea?'
p3731
tp3732
Rp3733
asS'r_size:1250\ne_prm:0.200000\ni_scl:0.555556\ns_scl:0.550000\nsp:0.500000\nreg:0.010000'
p3734
(lp3735
g3
(g7
S'(\x02Zb&\x98\xf0?'
p3736
tp3737
Rp3738
ag3
(g7
S'=\xc5Y\xa5~\xf8\xf0?'
p3739
tp3740
Rp3741
ag3
(g7
S'6\xad{\x8f\xdc\xf6\xf0?'
p3742
tp3743
Rp3744
asS'r_size:1250\ne_prm:0.200000\ni_scl:1.000000\ns_scl:0.316667\nsp:0.500000\nreg:0.010000'
p3745
(lp3746
g3
(g7
S'\x1560\xc4\xb7_\xf3?'
p3747
tp3748
Rp3749
ag3
(g7
S'h\x9f[\xd4;g\xf3?'
p3750
tp3751
Rp3752
ag3
(g7
S'\xeds\xc7\xb6\xb6D\xf3?'
p3753
tp3754
Rp3755
asS'r_size:750\ne_prm:0.200000\ni_scl:0.200000\ns_scl:0.666667\nsp:0.500000\nreg:0.010000'
p3756
(lp3757
g3
(g7
S'\x94\xc0\x95\xb5\xe65\xf0?'
p3758
tp3759
Rp3760
ag3
(g7
S'8\x9c\x92f\x1fL\xf0?'
p3761
tp3762
Rp3763
ag3
(g7
S'1\xcc\xe5\x06\x1a\\\xf0?'
p3764
tp3765
Rp3766
asS'r_size:1250\ne_prm:0.200000\ni_scl:1.000000\ns_scl:0.433333\nsp:1.000000\nreg:0.010000'
p3767
(lp3768
g3
(g7
S'\xa8\xbe\x92\xf7\xc0y\xf3?'
p3769
tp3770
Rp3771
ag3
(g7
S'2m\\\xa9\xa6\xca\xf2?'
p3772
tp3773
Rp3774
ag3
(g7
S'x_)R\xabG\xf3?'
p3775
tp3776
Rp3777
asS'r_size:1000\ne_prm:0.200000\ni_scl:0.288889\ns_scl:0.316667\nsp:0.100000\nreg:0.010000'
p3778
(lp3779
g3
(g7
S'\xc4=o\xcd\xa2\xc0\xf0?'
p3780
tp3781
Rp3782
ag3
(g7
S'&\xa9\x9f\xc1]\x8b\xf0?'
p3783
tp3784
Rp3785
ag3
(g7
S'\xff\xc7\xb3\x1e]\xb3\xf0?'
p3786
tp3787
Rp3788
asS'r_size:750\ne_prm:0.200000\ni_scl:0.644444\ns_scl:0.550000\nsp:1.000000\nreg:0.010000'
p3789
(lp3790
g3
(g7
S'\x97\xe9\x06R+\x11\xf5?'
p3791
tp3792
Rp3793
ag3
(g7
S'\xd0\r\x9aV\xc7\xc8\xf4?'
p3794
tp3795
Rp3796
ag3
(g7
S'\x99\xf3\x1c2\x8b7\xf4?'
p3797
tp3798
Rp3799
asS'r_size:500\ne_prm:0.200000\ni_scl:0.200000\ns_scl:0.316667\nsp:1.000000\nreg:0.010000'
p3800
(lp3801
g3
(g7
S'\xf4\xe4\x13\xcc\xe5\xb6\xef?'
p3802
tp3803
Rp3804
ag3
(g7
S'T\x0bz\xaa{\xaa\xef?'
p3805
tp3806
Rp3807
ag3
(g7
S'\x95\xd1\x08R\xf3\xb8\xef?'
p3808
tp3809
Rp3810
asS'r_size:1000\ne_prm:0.200000\ni_scl:0.200000\ns_scl:0.433333\nsp:1.000000\nreg:0.010000'
p3811
(lp3812
g3
(g7
S'5\x89M\xd4a\xd8\xeb?'
p3813
tp3814
Rp3815
ag3
(g7
S'\x0e\xd8\x13l\x8e\xa1\xeb?'
p3816
tp3817
Rp3818
ag3
(g7
S'\xe9M>4l\xd9\xeb?'
p3819
tp3820
Rp3821
asS'r_size:1000\ne_prm:0.200000\ni_scl:0.555556\ns_scl:0.316667\nsp:0.100000\nreg:0.010000'
p3822
(lp3823
g3
(g7
S"\xe4\xe1\x01u\x8d'\xf0?"
p3824
tp3825
Rp3826
ag3
(g7
S"\xbb\x9c'\xbc\xbd5\xf1?"
p3827
tp3828
Rp3829
ag3
(g7
S'xg\x8e*\xf3A\xf0?'
p3830
tp3831
Rp3832
asS'r_size:1250\ne_prm:0.200000\ni_scl:0.555556\ns_scl:0.200000\nsp:0.100000\nreg:0.010000'
p3833
(lp3834
g3
(g7
S'\x12\x90\x8e\xeb\xc3)\xf0?'
p3835
tp3836
Rp3837
ag3
(g7
S'|\xd2q\x06(\x8e\xf0?'
p3838
tp3839
Rp3840
ag3
(g7
S'\x0f6\xb6M2k\xf0?'
p3841
tp3842
Rp3843
asS'r_size:750\ne_prm:0.200000\ni_scl:0.377778\ns_scl:0.316667\nsp:0.500000\nreg:0.010000'
p3844
(lp3845
g3
(g7
S'\xd3e\x01(\x99L\xf0?'
p3846
tp3847
Rp3848
ag3
(g7
S'\xcd\x1a\xc9\x9d\xaff\xf0?'
p3849
tp3850
Rp3851
ag3
(g7
S'(\xfe\xf7\xe6dR\xf0?'
p3852
tp3853
Rp3854
asS'r_size:750\ne_prm:0.200000\ni_scl:0.288889\ns_scl:0.666667\nsp:0.500000\nreg:0.010000'
p3855
(lp3856
g3
(g7
S"'\xad\x13(\xb1\x83\xf0?"
p3857
tp3858
Rp3859
ag3
(g7
S'\x13\x99\x0f[\xfcG\xf0?'
p3860
tp3861
Rp3862
ag3
(g7
S'\xa9\x96\xdf\xa6m\x1b\xf0?'
p3863
tp3864
Rp3865
asS'r_size:1250\ne_prm:0.200000\ni_scl:0.288889\ns_scl:0.433333\nsp:0.500000\nreg:0.010000'
p3866
(lp3867
g3
(g7
S'\x8ecu\xc9uU\xf0?'
p3868
tp3869
Rp3870
ag3
(g7
S'\xcc\xd4`#\x1eW\xf0?'
p3871
tp3872
Rp3873
ag3
(g7
S'\x87\xc4GH\xd1U\xf0?'
p3874
tp3875
Rp3876
asS'r_size:1000\ne_prm:0.200000\ni_scl:0.200000\ns_scl:0.200000\nsp:0.500000\nreg:0.010000'
p3877
(lp3878
g3
(g7
S'\x97P\xcfJ\x17K\xf0?'
p3879
tp3880
Rp3881
ag3
(g7
S'w\xf1~\xac8@\xf0?'
p3882
tp3883
Rp3884
ag3
(g7
S'|\x9a\x82\xbfop\xf0?'
p3885
tp3886
Rp3887
asS'r_size:1250\ne_prm:0.200000\ni_scl:0.733333\ns_scl:0.433333\nsp:0.100000\nreg:0.010000'
p3888
(lp3889
g3
(g7
S'\xf4\xc4\x0c\x04\xa7C\xf0?'
p3890
tp3891
Rp3892
ag3
(g7
S'H\xf8\x87y\x9c\xb1\xf2?'
p3893
tp3894
Rp3895
ag3
(g7
S'\xf6\x87\x05\x8c4D\xf0?'
p3896
tp3897
Rp3898
asS'r_size:750\ne_prm:0.200000\ni_scl:0.822222\ns_scl:0.550000\nsp:0.100000\nreg:0.010000'
p3899
(lp3900
g3
(g7
S'#\xa3\xbdE\xa4\xb9\xf0?'
p3901
tp3902
Rp3903
ag3
(g7
S'\x8f\r\xd3u`\x7f\xf1?'
p3904
tp3905
Rp3906
ag3
(g7
S'>n\x02\x0e#\xa6\xf0?'
p3907
tp3908
Rp3909
asS'r_size:500\ne_prm:0.200000\ni_scl:0.555556\ns_scl:0.316667\nsp:1.000000\nreg:0.010000'
p3910
(lp3911
g3
(g7
S'\x1a\\@\x8e\t\x92\xec?'
p3912
tp3913
Rp3914
ag3
(g7
S'Z7\xe0\xdd\x143\xeb?'
p3915
tp3916
Rp3917
ag3
(g7
S'\x06)\xfen\xd1t\xeb?'
p3918
tp3919
Rp3920
asS'r_size:1000\ne_prm:0.200000\ni_scl:0.288889\ns_scl:0.666667\nsp:1.000000\nreg:0.010000'
p3921
(lp3922
g3
(g7
S'\xb2\x0f\xd3\x96\xfc\x9d\xf0?'
p3923
tp3924
Rp3925
ag3
(g7
S'\xb6\xeb$]Kz\xf0?'
p3926
tp3927
Rp3928
ag3
(g7
S'V%_9\x93\xfb\xf0?'
p3929
tp3930
Rp3931
asS'r_size:1250\ne_prm:0.200000\ni_scl:0.466667\ns_scl:0.666667\nsp:1.000000\nreg:0.010000'
p3932
(lp3933
g3
(g7
S'\x85_\xb4)\x17\x13\xf3?'
p3934
tp3935
Rp3936
ag3
(g7
S'[~\xb8\xca\xbe\xf7\xf2?'
p3937
tp3938
Rp3939
ag3
(g7
S'H\x0ey\xbe\x08:\xf1?'
p3940
tp3941
Rp3942
asS'r_size:500\ne_prm:0.200000\ni_scl:0.733333\ns_scl:0.200000\nsp:0.100000\nreg:0.010000'
p3943
(lp3944
g3
(g7
S'M\x1b\xfc\xbb\x08e\xf0?'
p3945
tp3946
Rp3947
ag3
(g7
S'\xa1\x01]\x8f\xbaE\xf0?'
p3948
tp3949
Rp3950
ag3
(g7
S'\\\xce\xd7\xea\xeb>\xf0?'
p3951
tp3952
Rp3953
asS'r_size:750\ne_prm:0.200000\ni_scl:0.822222\ns_scl:0.316667\nsp:1.000000\nreg:0.010000'
p3954
(lp3955
g3
(g7
S'R\x82\x9fvK\xc7\xf2?'
p3956
tp3957
Rp3958
ag3
(g7
S'\xad^\xc4\xedn\xaf\xf1?'
p3959
tp3960
Rp3961
ag3
(g7
S'\x86\xef$j?\x1f\xf3?'
p3962
tp3963
Rp3964
asS'r_size:1250\ne_prm:0.200000\ni_scl:0.200000\ns_scl:0.666667\nsp:0.100000\nreg:0.010000'
p3965
(lp3966
g3
(g7
S'\xbd\x9eX\x17\x11\x1d\xf0?'
p3967
tp3968
Rp3969
ag3
(g7
S'<a\x1fv\x00 \xf0?'
p3970
tp3971
Rp3972
ag3
(g7
S'\xdd\xc8\x0f\xb93@\xf0?'
p3973
tp3974
Rp3975
asS'r_size:500\ne_prm:0.200000\ni_scl:0.288889\ns_scl:0.316667\nsp:1.000000\nreg:0.010000'
p3976
(lp3977
g3
(g7
S'z|\x1b\x80\xbc2\xef?'
p3978
tp3979
Rp3980
ag3
(g7
S'\x02\x80\xf0\x8dqX\xef?'
p3981
tp3982
Rp3983
ag3
(g7
S'\xb9\xee\x1f}\xbd;\xef?'
p3984
tp3985
Rp3986
asS'r_size:1000\ne_prm:0.200000\ni_scl:0.555556\ns_scl:0.433333\nsp:0.500000\nreg:0.010000'
p3987
(lp3988
g3
(g7
S'\x96\xd0\xa0\xbb<\xce\xf0?'
p3989
tp3990
Rp3991
ag3
(g7
S'\xe7\x8bO\ry\xda\xf0?'
p3992
tp3993
Rp3994
ag3
(g7
S'n\xa1\xa1\xfc\xdc\x9e\xf0?'
p3995
tp3996
Rp3997
asS'r_size:1250\ne_prm:0.200000\ni_scl:0.733333\ns_scl:0.200000\nsp:0.100000\nreg:0.010000'
p3998
(lp3999
g3
(g7
S'\xe2\x0c\xf2\x8enB\xf0?'
p4000
tp4001
Rp4002
ag3
(g7
S'\r\x95\x83\x99\xc8^\xf0?'
p4003
tp4004
Rp4005
ag3
(g7
S'g\xb6C_\xc4h\xf0?'
p4006
tp4007
Rp4008
asS'r_size:1250\ne_prm:0.200000\ni_scl:0.288889\ns_scl:0.200000\nsp:0.100000\nreg:0.010000'
p4009
(lp4010
g3
(g7
S'\xb4\xfc\x16k\xdb\xe2\xf0?'
p4011
tp4012
Rp4013
ag3
(g7
S'\x1c\x9c\x99]\xdfs\xf0?'
p4014
tp4015
Rp4016
ag3
(g7
S'0\x88\xd9\xc8\xb7]\xf0?'
p4017
tp4018
Rp4019
asS'r_size:1250\ne_prm:0.200000\ni_scl:1.000000\ns_scl:0.200000\nsp:0.100000\nreg:0.010000'
p4020
(lp4021
g3
(g7
S'lG\xa7Y\x17F\xf2?'
p4022
tp4023
Rp4024
ag3
(g7
S'9\xb6UOrX\xf0?'
p4025
tp4026
Rp4027
ag3
(g7
S'\xf96\xe4\x99\xeet\xf0?'
p4028
tp4029
Rp4030
asS'r_size:500\ne_prm:0.200000\ni_scl:1.000000\ns_scl:0.433333\nsp:1.000000\nreg:0.010000'
p4031
(lp4032
g3
(g7
S'\xae\xeaf \x95\xc7\xf0?'
p4033
tp4034
Rp4035
ag3
(g7
S'\xa3\xc1\xc5\xdb\x0fb\xef?'
p4036
tp4037
Rp4038
ag3
(g7
S']\x18\x988\xb4\x11\xf1?'
p4039
tp4040
Rp4041
asS'r_size:1000\ne_prm:0.200000\ni_scl:1.000000\ns_scl:0.200000\nsp:0.500000\nreg:0.010000'
p4042
(lp4043
g3
(g7
S'\x84\x9bz\xcc\x89\x06\xf2?'
p4044
tp4045
Rp4046
ag3
(g7
S'U[\xc1\xa2\xd1\x1c\xf4?'
p4047
tp4048
Rp4049
ag3
(g7
S'n\xc0\xe0h\ng\xf2?'
p4050
tp4051
Rp4052
asS'r_size:1000\ne_prm:0.200000\ni_scl:0.555556\ns_scl:0.200000\nsp:0.500000\nreg:0.010000'
p4053
(lp4054
g3
(g7
S'\xe1\xbb\xc6\x8e]Z\xf0?'
p4055
tp4056
Rp4057
ag3
(g7
S'\xeb\xa1]\x1a\xa5j\xf0?'
p4058
tp4059
Rp4060
ag3
(g7
S'&0\xf5\xba?O\xf0?'
p4061
tp4062
Rp4063
asS'r_size:1250\ne_prm:0.200000\ni_scl:0.644444\ns_scl:0.316667\nsp:0.500000\nreg:0.010000'
p4064
(lp4065
g3
(g7
S'"\x8fZ\x1e\x85\xd9\xf0?'
p4066
tp4067
Rp4068
ag3
(g7
S'\x01%!\x0e<\xca\xf0?'
p4069
tp4070
Rp4071
ag3
(g7
S'\xcf\x8f:l\xb6\xd3\xf0?'
p4072
tp4073
Rp4074
asS'r_size:1250\ne_prm:0.200000\ni_scl:0.644444\ns_scl:0.200000\nsp:0.100000\nreg:0.010000'
p4075
(lp4076
g3
(g7
S"n\x87\xe6\x97\xbc'\xf0?"
p4077
tp4078
Rp4079
ag3
(g7
S'\xc2\x94\x1b-t\xae\xf0?'
p4080
tp4081
Rp4082
ag3
(g7
S'v\xef&<\x02,\xf0?'
p4083
tp4084
Rp4085
asS'r_size:1000\ne_prm:0.200000\ni_scl:0.200000\ns_scl:0.550000\nsp:0.100000\nreg:0.010000'
p4086
(lp4087
g3
(g7
S'\xa2B*X\xd9n\xf0?'
p4088
tp4089
Rp4090
ag3
(g7
S'\x03\x1a\xa8\x15\x84T\xf0?'
p4091
tp4092
Rp4093
ag3
(g7
S'V\x9e,\x08\xc2\xf6\xef?'
p4094
tp4095
Rp4096
asS'r_size:1000\ne_prm:0.200000\ni_scl:0.466667\ns_scl:0.316667\nsp:0.100000\nreg:0.010000'
p4097
(lp4098
g3
(g7
S"\xf4\xae\xe5\x82\xe6'\xf0?"
p4099
tp4100
Rp4101
ag3
(g7
S'\x05(\xdb\xcd\x7f\x18\xf0?'
p4102
tp4103
Rp4104
ag3
(g7
S'O\xea\xe8\xa7\x9ei\xf0?'
p4105
tp4106
Rp4107
asS'r_size:750\ne_prm:0.200000\ni_scl:0.555556\ns_scl:0.550000\nsp:1.000000\nreg:0.010000'
p4108
(lp4109
g3
(g7
S'\xfb\x11\x0c\x90\x88/\xf4?'
p4110
tp4111
Rp4112
ag3
(g7
S'\xd8:CE\xe6\xe5\xf3?'
p4113
tp4114
Rp4115
ag3
(g7
S'\xfd\xafb\xed\x9c\x97\xf4?'
p4116
tp4117
Rp4118
asS'r_size:1000\ne_prm:0.200000\ni_scl:0.288889\ns_scl:0.433333\nsp:0.500000\nreg:0.010000'
p4119
(lp4120
g3
(g7
S'\xa83\xc9\xc5vR\xf0?'
p4121
tp4122
Rp4123
ag3
(g7
S'\xc7\x06\xb0P\xebZ\xf0?'
p4124
tp4125
Rp4126
ag3
(g7
S'UD\xb3\xb5\x8cR\xf0?'
p4127
tp4128
Rp4129
asS'r_size:1000\ne_prm:0.200000\ni_scl:0.555556\ns_scl:0.550000\nsp:1.000000\nreg:0.010000'
p4130
(lp4131
g3
(g7
S'\x9f\xa9wdry\xf5?'
p4132
tp4133
Rp4134
ag3
(g7
S'\x11kV;\xe9\xf2\xf4?'
p4135
tp4136
Rp4137
ag3
(g7
S'9U\xc0F\x82\x15\xf5?'
p4138
tp4139
Rp4140
asS'r_size:1250\ne_prm:0.200000\ni_scl:0.200000\ns_scl:0.316667\nsp:0.500000\nreg:0.010000'
p4141
(lp4142
g3
(g7
S'F"\xb6/\xdb#\xf0?'
p4143
tp4144
Rp4145
ag3
(g7
S'h[\x1d\xb6h&\xf0?'
p4146
tp4147
Rp4148
ag3
(g7
S'\x0bq\x97\x17\xe0\x1f\xf0?'
p4149
tp4150
Rp4151
asS'r_size:500\ne_prm:0.200000\ni_scl:0.200000\ns_scl:0.433333\nsp:0.500000\nreg:0.010000'
p4152
(lp4153
g3
(g7
S'\xad\xa1qp\xdd+\xf0?'
p4154
tp4155
Rp4156
ag3
(g7
S'|\xf6\xce\x81\xff%\xf0?'
p4157
tp4158
Rp4159
ag3
(g7
S'\x7f\xeb\xe1\x96\x1b*\xf0?'
p4160
tp4161
Rp4162
asS'r_size:1250\ne_prm:0.200000\ni_scl:0.377778\ns_scl:0.433333\nsp:0.100000\nreg:0.010000'
p4163
(lp4164
g3
(g7
S'\xe0/a@f\x1a\xf0?'
p4165
tp4166
Rp4167
ag3
(g7
S'\xfb\x1evm\x98&\xf0?'
p4168
tp4169
Rp4170
ag3
(g7
S'c\xda\x0e\xe0_\x1e\xf0?'
p4171
tp4172
Rp4173
asS'r_size:750\ne_prm:0.200000\ni_scl:0.822222\ns_scl:0.433333\nsp:1.000000\nreg:0.010000'
p4174
(lp4175
g3
(g7
S'\xfd\xb1\x0bL\xd1\xbe\xf2?'
p4176
tp4177
Rp4178
ag3
(g7
S"\x1c\x8a'\xea\x86\xdd\xf2?"
p4179
tp4180
Rp4181
ag3
(g7
S':\x89\xe0\xb5\x18\x8d\xf2?'
p4182
tp4183
Rp4184
asS'r_size:1250\ne_prm:0.200000\ni_scl:0.555556\ns_scl:0.200000\nsp:0.500000\nreg:0.010000'
p4185
(lp4186
g3
(g7
S'o\x00\xe6\xa4eH\xf0?'
p4187
tp4188
Rp4189
ag3
(g7
S'\x7f\xa2\xef\xc5\x15L\xf0?'
p4190
tp4191
Rp4192
ag3
(g7
S'\xe9\x994{^o\xf0?'
p4193
tp4194
Rp4195
asS'r_size:750\ne_prm:0.200000\ni_scl:0.200000\ns_scl:0.666667\nsp:0.100000\nreg:0.010000'
p4196
(lp4197
g3
(g7
S'\xa4\xc2l\x92\xb8\x04\xf0?'
p4198
tp4199
Rp4200
ag3
(g7
S'\xa2\xdd5\x85^U\xf0?'
p4201
tp4202
Rp4203
ag3
(g7
S'\x15\xd3o\x15=2\xf0?'
p4204
tp4205
Rp4206
asS'r_size:1000\ne_prm:0.200000\ni_scl:0.555556\ns_scl:0.666667\nsp:1.000000\nreg:0.010000'
p4207
(lp4208
g3
(g7
S"g\x8c\xdb\x94'%\xf3?"
p4209
tp4210
Rp4211
ag3
(g7
S'\x14\xfe\xbbP\xef\xcb\xf3?'
p4212
tp4213
Rp4214
ag3
(g7
S'\xf9\xf8\xf5\x05\xf5\xd5\xf4?'
p4215
tp4216
Rp4217
asS'r_size:1000\ne_prm:0.200000\ni_scl:0.377778\ns_scl:0.200000\nsp:0.100000\nreg:0.010000'
p4218
(lp4219
g3
(g7
S'G\x8d\x14y1\x81\xf0?'
p4220
tp4221
Rp4222
ag3
(g7
S'\x08A\xaa\xfd\x9b>\xf0?'
p4223
tp4224
Rp4225
ag3
(g7
S'/\xc3<&\xd0h\xf0?'
p4226
tp4227
Rp4228
asS'r_size:750\ne_prm:0.200000\ni_scl:0.377778\ns_scl:0.316667\nsp:1.000000\nreg:0.010000'
p4229
(lp4230
g3
(g7
S'\xa4\xc1\xf1\xacV\xb2\xed?'
p4231
tp4232
Rp4233
ag3
(g7
S's\xe5\xfeT\xc6\xf8\xed?'
p4234
tp4235
Rp4236
ag3
(g7
S'\xde\x02:\xf8\xb0\x92\xed?'
p4237
tp4238
Rp4239
asS'r_size:750\ne_prm:0.200000\ni_scl:0.377778\ns_scl:0.550000\nsp:1.000000\nreg:0.010000'
p4240
(lp4241
g3
(g7
S'\xfdT<s\x8fk\xf3?'
p4242
tp4243
Rp4244
ag3
(g7
S'\xc6CR\x98\xb6y\xf2?'
p4245
tp4246
Rp4247
ag3
(g7
S'\xabJ\xf8M\\\xa5\xf2?'
p4248
tp4249
Rp4250
asS'r_size:1250\ne_prm:0.200000\ni_scl:0.288889\ns_scl:0.433333\nsp:1.000000\nreg:0.010000'
p4251
(lp4252
g3
(g7
S'\x90\xee\x03=e\xee\xea?'
p4253
tp4254
Rp4255
ag3
(g7
S'H\x9fs~\xac\x83\xea?'
p4256
tp4257
Rp4258
ag3
(g7
S'd\x1b\xbb\xd6\xe0\x7f\xea?'
p4259
tp4260
Rp4261
asS'r_size:1000\ne_prm:0.200000\ni_scl:0.911111\ns_scl:0.433333\nsp:0.100000\nreg:0.010000'
p4262
(lp4263
g3
(g7
S'\x8b\x99\xff\xad>\x05\xf2?'
p4264
tp4265
Rp4266
ag3
(g7
S'\xdf\xcb\xb4\xe9@n\xf0?'
p4267
tp4268
Rp4269
ag3
(g7
S'\xfb\xedBl:\xd5\xf2?'
p4270
tp4271
Rp4272
asS'r_size:1250\ne_prm:0.200000\ni_scl:1.000000\ns_scl:0.316667\nsp:1.000000\nreg:0.010000'
p4273
(lp4274
g3
(g7
S'\xa0\xbfgM\x85\xa6\xf1?'
p4275
tp4276
Rp4277
ag3
(g7
S'%\xa9\xb4\xbc\xfb\xd4\xf0?'
p4278
tp4279
Rp4280
ag3
(g7
S'f\xdf)\x9b\xa8]\xf2?'
p4281
tp4282
Rp4283
asS'r_size:1000\ne_prm:0.200000\ni_scl:0.822222\ns_scl:0.316667\nsp:0.100000\nreg:0.010000'
p4284
(lp4285
g3
(g7
S'\x89\xce\x99\xf8UE\xf0?'
p4286
tp4287
Rp4288
ag3
(g7
S'%\xb3G\xfefa\xf0?'
p4289
tp4290
Rp4291
ag3
(g7
S'\xf2\xc2k\xce\xe8E\xf0?'
p4292
tp4293
Rp4294
asS'r_size:500\ne_prm:0.200000\ni_scl:0.555556\ns_scl:0.316667\nsp:0.500000\nreg:0.010000'
p4295
(lp4296
g3
(g7
S'\n\t!\x03=\x99\xf0?'
p4297
tp4298
Rp4299
ag3
(g7
S'\xd9E?\xb8\xda\x9a\xf0?'
p4300
tp4301
Rp4302
ag3
(g7
S'$\xa5\xf9MG\xac\xf0?'
p4303
tp4304
Rp4305
asS'r_size:500\ne_prm:0.200000\ni_scl:0.822222\ns_scl:0.433333\nsp:1.000000\nreg:0.010000'
p4306
(lp4307
g3
(g7
S'#\xd3"\xa4LU\xf1?'
p4308
tp4309
Rp4310
ag3
(g7
S'\xf0\xd1i\n\xe98\xf2?'
p4311
tp4312
Rp4313
ag3
(g7
S'\x08\xbe\x01\x95\x05\x14\xf1?'
p4314
tp4315
Rp4316
asS'r_size:500\ne_prm:0.200000\ni_scl:0.200000\ns_scl:0.666667\nsp:0.500000\nreg:0.010000'
p4317
(lp4318
g3
(g7
S'a\x9a+_zI\xf0?'
p4319
tp4320
Rp4321
ag3
(g7
S's`<\xd2\x18U\xf0?'
p4322
tp4323
Rp4324
ag3
(g7
S'g\xe5\x7f\\\xe0?\xf0?'
p4325
tp4326
Rp4327
asS'r_size:1000\ne_prm:0.200000\ni_scl:0.288889\ns_scl:0.666667\nsp:0.500000\nreg:0.010000'
p4328
(lp4329
g3
(g7
S';)\x08E\xc2y\xf0?'
p4330
tp4331
Rp4332
ag3
(g7
S'\x0c\xfc\x99\x8a\xbc\x88\xf0?'
p4333
tp4334
Rp4335
ag3
(g7
S'u\x03q\xf8\xc3\x82\xf0?'
p4336
tp4337
Rp4338
asS'r_size:750\ne_prm:0.200000\ni_scl:0.555556\ns_scl:0.550000\nsp:0.100000\nreg:0.010000'
p4339
(lp4340
g3
(g7
S'\xaf\xeaZ\x17\xdc\x8d\xf0?'
p4341
tp4342
Rp4343
ag3
(g7
S'fI\x1b!\xb2?\xf0?'
p4344
tp4345
Rp4346
ag3
(g7
S'\xb2k\xf5b\xe6m\xf0?'
p4347
tp4348
Rp4349
asS'r_size:1250\ne_prm:0.200000\ni_scl:0.644444\ns_scl:0.200000\nsp:0.500000\nreg:0.010000'
p4350
(lp4351
g3
(g7
S'q\xec\xf5u{x\xf0?'
p4352
tp4353
Rp4354
ag3
(g7
S'=F\xf1\x05\xcb\xbf\xf0?'
p4355
tp4356
Rp4357
ag3
(g7
S'\xe7\x11\x8ci>\xa9\xf0?'
p4358
tp4359
Rp4360
asS'r_size:750\ne_prm:0.200000\ni_scl:1.000000\ns_scl:0.200000\nsp:0.500000\nreg:0.010000'
p4361
(lp4362
g3
(g7
S'R&\x93a\xf8\xb0\xf1?'
p4363
tp4364
Rp4365
ag3
(g7
S'#\x93Ri\x89\xb5\xf1?'
p4366
tp4367
Rp4368
ag3
(g7
S'.\x95xnx\x84\xf1?'
p4369
tp4370
Rp4371
asS'r_size:500\ne_prm:0.200000\ni_scl:0.377778\ns_scl:0.550000\nsp:1.000000\nreg:0.010000'
p4372
(lp4373
g3
(g7
S'i\x0bj$\xb9\xbb\xf2?'
p4374
tp4375
Rp4376
ag3
(g7
S'\x0e\xe4\xd5\xf5E\xad\xf1?'
p4377
tp4378
Rp4379
ag3
(g7
S'\xb4\xe1z\x9cFE\xf3?'
p4380
tp4381
Rp4382
asS'r_size:500\ne_prm:0.200000\ni_scl:0.288889\ns_scl:0.316667\nsp:0.500000\nreg:0.010000'
p4383
(lp4384
g3
(g7
S'\xf6\x0b\xf2\xbb\x0c8\xf0?'
p4385
tp4386
Rp4387
ag3
(g7
S'\xe4)>i\xe9J\xf0?'
p4388
tp4389
Rp4390
ag3
(g7
S'\xa3\xad;\xd3\x0eh\xf0?'
p4391
tp4392
Rp4393
asS'r_size:750\ne_prm:0.200000\ni_scl:0.466667\ns_scl:0.316667\nsp:0.500000\nreg:0.010000'
p4394
(lp4395
g3
(g7
S'\x1az^\x06\xf8\x8c\xf0?'
p4396
tp4397
Rp4398
ag3
(g7
S'\xbd\xc3\xd3\xc5;~\xf0?'
p4399
tp4400
Rp4401
ag3
(g7
S'|\xeaea\xf2\x8f\xf0?'
p4402
tp4403
Rp4404
asS'r_size:500\ne_prm:0.200000\ni_scl:0.911111\ns_scl:0.200000\nsp:0.100000\nreg:0.010000'
p4405
(lp4406
g3
(g7
S'\x06\x82+\x06\xdaT\xf0?'
p4407
tp4408
Rp4409
ag3
(g7
S'\x12s0\xcb\x02E\xf0?'
p4410
tp4411
Rp4412
ag3
(g7
S'\xd2b\x85\x11\xa8v\xf0?'
p4413
tp4414
Rp4415
asS'r_size:1000\ne_prm:0.200000\ni_scl:0.288889\ns_scl:0.316667\nsp:0.500000\nreg:0.010000'
p4416
(lp4417
g3
(g7
S'^\xe97\xda\xfe3\xf0?'
p4418
tp4419
Rp4420
ag3
(g7
S'2\xce\xfe\xfc\xbc9\xf0?'
p4421
tp4422
Rp4423
ag3
(g7
S'\xb8\x18\x9b\xa2i5\xf0?'
p4424
tp4425
Rp4426
asS'r_size:1000\ne_prm:0.200000\ni_scl:0.466667\ns_scl:0.666667\nsp:0.100000\nreg:0.010000'
p4427
(lp4428
g3
(g7
S'\x12\x1c%j\xe1?\xf0?'
p4429
tp4430
Rp4431
ag3
(g7
S'\x8cH\x97\xf5\xfa6\xf0?'
p4432
tp4433
Rp4434
ag3
(g7
S'\xef\xf0h\x01\x11q\xf0?'
p4435
tp4436
Rp4437
asS'r_size:1000\ne_prm:0.200000\ni_scl:0.822222\ns_scl:0.433333\nsp:0.100000\nreg:0.010000'
p4438
(lp4439
g3
(g7
S'\x18\xe3\x0c\x81\xaaR\xf0?'
p4440
tp4441
Rp4442
ag3
(g7
S'iP\xf7n\xc8Q\xf0?'
p4443
tp4444
Rp4445
ag3
(g7
S'j(\xc7Zwl\xf1?'
p4446
tp4447
Rp4448
asS'r_size:500\ne_prm:0.200000\ni_scl:0.288889\ns_scl:0.666667\nsp:1.000000\nreg:0.010000'
p4449
(lp4450
g3
(g7
S'F]ru\xdaf\xf2?'
p4451
tp4452
Rp4453
ag3
(g7
S'N\x9a\xc6-\xcal\xf2?'
p4454
tp4455
Rp4456
ag3
(g7
S'\xf6\x8b\xbd\xf6\x0b1\xf0?'
p4457
tp4458
Rp4459
asS'r_size:1000\ne_prm:0.200000\ni_scl:1.000000\ns_scl:0.200000\nsp:1.000000\nreg:0.010000'
p4460
(lp4461
g3
(g7
S'\x950\x06\xb4\xbc\xe3\xed?'
p4462
tp4463
Rp4464
ag3
(g7
S'\x8c\xee\x17\xc0[\xa8\xee?'
p4465
tp4466
Rp4467
ag3
(g7
S'\xb7\x03L\xcb\xc1\xf9\xee?'
p4468
tp4469
Rp4470
asS'r_size:1000\ne_prm:0.200000\ni_scl:0.288889\ns_scl:0.200000\nsp:0.500000\nreg:0.010000'
p4471
(lp4472
g3
(g7
S'\xbf\x9e\x84\xd7\xdf\x1e\xf0?'
p4473
tp4474
Rp4475
ag3
(g7
S'Y\x1e\x9e\x04\x9e(\xf0?'
p4476
tp4477
Rp4478
ag3
(g7
S'\xb7\x81\xf8\xc0\xbe.\xf0?'
p4479
tp4480
Rp4481
asS'r_size:1250\ne_prm:0.200000\ni_scl:0.377778\ns_scl:0.550000\nsp:0.100000\nreg:0.010000'
p4482
(lp4483
g3
(g7
S'\xebJ\xe8v\xac\x1d\xf0?'
p4484
tp4485
Rp4486
ag3
(g7
S'\x0b\xd9\xe3\x0f\xdf.\xf0?'
p4487
tp4488
Rp4489
ag3
(g7
S'\xd6\x9b\xf8\x8b\xb9i\xf0?'
p4490
tp4491
Rp4492
asS'r_size:1250\ne_prm:0.200000\ni_scl:1.000000\ns_scl:0.550000\nsp:0.500000\nreg:0.010000'
p4493
(lp4494
g3
(g7
S'P?\x1b\xeb[B\xf3?'
p4495
tp4496
Rp4497
ag3
(g7
S'(\xf3\xe0BM\xfd\xf3?'
p4498
tp4499
Rp4500
ag3
(g7
S'\xd1cPf\xad*\xf4?'
p4501
tp4502
Rp4503
asS'r_size:500\ne_prm:0.200000\ni_scl:0.466667\ns_scl:0.433333\nsp:1.000000\nreg:0.010000'
p4504
(lp4505
g3
(g7
S'n\xef \xddL\xd5\xee?'
p4506
tp4507
Rp4508
ag3
(g7
S'K&\xcdx\x11\xdd\xee?'
p4509
tp4510
Rp4511
ag3
(g7
S'\xb9_\x00%\x1e\t\xea?'
p4512
tp4513
Rp4514
asS'r_size:1250\ne_prm:0.200000\ni_scl:0.733333\ns_scl:0.316667\nsp:1.000000\nreg:0.010000'
p4515
(lp4516
g3
(g7
S'R\xbf\x8f\x0fi7\xf0?'
p4517
tp4518
Rp4519
ag3
(g7
S'\x95P\xcd\xa3#\x07\xf0?'
p4520
tp4521
Rp4522
ag3
(g7
S'O\xc2=Ri\xa5\xf0?'
p4523
tp4524
Rp4525
asS'r_size:500\ne_prm:0.200000\ni_scl:0.200000\ns_scl:0.433333\nsp:1.000000\nreg:0.010000'
p4526
(lp4527
g3
(g7
S'Y\xe0\xc9\xaa\xa4a\xec?'
p4528
tp4529
Rp4530
ag3
(g7
S'\x9e\xc6`g%\xae\xec?'
p4531
tp4532
Rp4533
ag3
(g7
S'\x1d\xf4\xa6\xb3z\x99\xec?'
p4534
tp4535
Rp4536
asS'r_size:1000\ne_prm:0.200000\ni_scl:0.377778\ns_scl:0.200000\nsp:0.500000\nreg:0.010000'
p4537
(lp4538
g3
(g7
S'e\x02\x1c\xc1\xf7+\xf0?'
p4539
tp4540
Rp4541
ag3
(g7
S'\xefpZ\x9fv)\xf0?'
p4542
tp4543
Rp4544
ag3
(g7
S'Yy\xd4\xf1\xf0K\xf0?'
p4545
tp4546
Rp4547
asS'r_size:1250\ne_prm:0.200000\ni_scl:0.466667\ns_scl:0.316667\nsp:0.500000\nreg:0.010000'
p4548
(lp4549
g3
(g7
S'\xda/\x7fs\xd5}\xf0?'
p4550
tp4551
Rp4552
ag3
(g7
S'\xac\x94\xe7\xe9\x19{\xf0?'
p4553
tp4554
Rp4555
ag3
(g7
S'm\x1c\xf0 \xcdz\xf0?'
p4556
tp4557
Rp4558
asS'r_size:750\ne_prm:0.200000\ni_scl:0.644444\ns_scl:0.433333\nsp:0.500000\nreg:0.010000'
p4559
(lp4560
g3
(g7
S'bF\x16\xb0(\xcb\xf0?'
p4561
tp4562
Rp4563
ag3
(g7
S'\x01\x80\xd3\x8c0\x16\xf1?'
p4564
tp4565
Rp4566
ag3
(g7
S'\xee\xad\x92\x81\x96\x15\xf1?'
p4567
tp4568
Rp4569
asS'r_size:1000\ne_prm:0.200000\ni_scl:0.555556\ns_scl:0.666667\nsp:0.500000\nreg:0.010000'
p4570
(lp4571
g3
(g7
S'\x93\xfe\xea\xfb@\xae\xf0?'
p4572
tp4573
Rp4574
ag3
(g7
S'\xa9h2^Q\x05\xf1?'
p4575
tp4576
Rp4577
ag3
(g7
S'D\xb6\xbc\x1f\xb2\xdd\xf0?'
p4578
tp4579
Rp4580
asS'r_size:750\ne_prm:0.200000\ni_scl:0.377778\ns_scl:0.550000\nsp:0.500000\nreg:0.010000'
p4581
(lp4582
g3
(g7
S'XJd\xf73\x8f\xf0?'
p4583
tp4584
Rp4585
ag3
(g7
S'\xfc0\xee\x88?\xa1\xf0?'
p4586
tp4587
Rp4588
ag3
(g7
S'A\x8b_\xda\xaa\xa3\xf0?'
p4589
tp4590
Rp4591
asS'r_size:1250\ne_prm:0.200000\ni_scl:0.733333\ns_scl:0.200000\nsp:0.500000\nreg:0.010000'
p4592
(lp4593
g3
(g7
S'\xf9\xf9aCm\xf6\xf0?'
p4594
tp4595
Rp4596
ag3
(g7
S'\x13\xd2\xc3\x86ue\xf1?'
p4597
tp4598
Rp4599
ag3
(g7
S'A L!\xb2\xaa\xf0?'
p4600
tp4601
Rp4602
asS'r_size:1250\ne_prm:0.200000\ni_scl:0.555556\ns_scl:0.200000\nsp:1.000000\nreg:0.010000'
p4603
(lp4604
g3
(g7
S'\x84%\xfd\xe9\xb4\xf6\xef?'
p4605
tp4606
Rp4607
ag3
(g7
S'x{\x1eW\x96\xed\xef?'
p4608
tp4609
Rp4610
ag3
(g7
S'\xfc\x87Y%H\xee\xef?'
p4611
tp4612
Rp4613
asS'r_size:1250\ne_prm:0.200000\ni_scl:1.000000\ns_scl:0.550000\nsp:0.100000\nreg:0.010000'
p4614
(lp4615
g3
(g7
S'\xf8\x1d\xd4\xd6V\xb8\xf3?'
p4616
tp4617
Rp4618
ag3
(g7
S'\xae\x12]n\xfb\xef\xf0?'
p4619
tp4620
Rp4621
ag3
(g7
S'\x05w\xd1\xfba\x17\xf1?'
p4622
tp4623
Rp4624
asS'r_size:750\ne_prm:0.200000\ni_scl:0.822222\ns_scl:0.316667\nsp:0.500000\nreg:0.010000'
p4625
(lp4626
g3
(g7
S'\xb2\x00\xdc\x0c\x19\xf6\xf1?'
p4627
tp4628
Rp4629
ag3
(g7
S'I\x12%aJu\xf1?'
p4630
tp4631
Rp4632
ag3
(g7
S'\x01;1\xc9LH\xf2?'
p4633
tp4634
Rp4635
asS'r_size:500\ne_prm:0.200000\ni_scl:0.822222\ns_scl:0.433333\nsp:0.500000\nreg:0.010000'
p4636
(lp4637
g3
(g7
S'*\xe2\xd3\xe2\n\xde\xf1?'
p4638
tp4639
Rp4640
ag3
(g7
S'\xce\x1c|\x866\xcf\xf1?'
p4641
tp4642
Rp4643
ag3
(g7
S'\xd5\x1a\x1cv\xc03\xf2?'
p4644
tp4645
Rp4646
asS'r_size:1250\ne_prm:0.200000\ni_scl:0.644444\ns_scl:0.550000\nsp:0.100000\nreg:0.010000'
p4647
(lp4648
g3
(g7
S'\xc4\xc2\xae\xbdR\x97\xf0?'
p4649
tp4650
Rp4651
ag3
(g7
S'{\x14Bc\xd7\x97\xf0?'
p4652
tp4653
Rp4654
ag3
(g7
S'\x82\xf5:bS\x89\xf0?'
p4655
tp4656
Rp4657
asS'r_size:750\ne_prm:0.200000\ni_scl:0.200000\ns_scl:0.433333\nsp:1.000000\nreg:0.010000'
p4658
(lp4659
g3
(g7
S'Y\x04\xdf\x8b\xdb\xb5\xeb?'
p4660
tp4661
Rp4662
ag3
(g7
S'\xe2\xf5\xd6`l\xe3\xeb?'
p4663
tp4664
Rp4665
ag3
(g7
S"\xa2\x1at\xb4\xe9'\xec?"
p4666
tp4667
Rp4668
asS'r_size:500\ne_prm:0.200000\ni_scl:0.200000\ns_scl:0.666667\nsp:1.000000\nreg:0.010000'
p4669
(lp4670
g3
(g7
S'=qK\xf2]I\xed?'
p4671
tp4672
Rp4673
ag3
(g7
S'\xbf\xfa\x95\xd4t\xfa\xec?'
p4674
tp4675
Rp4676
ag3
(g7
S'Q\xde O\x04\x88\xed?'
p4677
tp4678
Rp4679
asS'r_size:750\ne_prm:0.200000\ni_scl:0.733333\ns_scl:0.316667\nsp:1.000000\nreg:0.010000'
p4680
(lp4681
g3
(g7
S'P\xa0@\x90\x9c\x1c\xf1?'
p4682
tp4683
Rp4684
ag3
(g7
S'P\\I\x0f\xfc\x1e\xf0?'
p4685
tp4686
Rp4687
ag3
(g7
S'\x97W{\xb1\xc2\x08\xf0?'
p4688
tp4689
Rp4690
asS'r_size:1250\ne_prm:0.200000\ni_scl:0.644444\ns_scl:0.200000\nsp:1.000000\nreg:0.010000'
p4691
(lp4692
g3
(g7
S'\xce#\x86\x0c[\xc2\xef?'
p4693
tp4694
Rp4695
ag3
(g7
S'&\xfe\xdf\xcb\x0e\xa4\xef?'
p4696
tp4697
Rp4698
ag3
(g7
S'\xd9\x9c"\xd3^\xcd\xef?'
p4699
tp4700
Rp4701
asS'r_size:1250\ne_prm:0.200000\ni_scl:0.644444\ns_scl:0.433333\nsp:0.100000\nreg:0.010000'
p4702
(lp4703
g3
(g7
S'\x91\xc7Q\xa8\x0c\x17\xf1?'
p4704
tp4705
Rp4706
ag3
(g7
S'\xf5\x00y\xef\x05O\xf1?'
p4707
tp4708
Rp4709
ag3
(g7
S'*\xce\xf4\xce\x92\x9d\xf1?'
p4710
tp4711
Rp4712
asS'r_size:1250\ne_prm:0.200000\ni_scl:0.911111\ns_scl:0.316667\nsp:1.000000\nreg:0.010000'
p4713
(lp4714
g3
(g7
S')\x8ar\xef\xc0x\xf1?'
p4715
tp4716
Rp4717
ag3
(g7
S'\x95\xbaF\x96\x06B\xf1?'
p4718
tp4719
Rp4720
ag3
(g7
S'\x9f:\xb0-G\x06\xf2?'
p4721
tp4722
Rp4723
asS'r_size:750\ne_prm:0.200000\ni_scl:0.644444\ns_scl:0.316667\nsp:0.500000\nreg:0.010000'
p4724
(lp4725
g3
(g7
S'\x1c\xfa\xe1\xe2\xcc\xc8\xf0?'
p4726
tp4727
Rp4728
ag3
(g7
S'\x19/\xe4D\xe1\xd8\xf0?'
p4729
tp4730
Rp4731
ag3
(g7
S'\x8e\x81>|\xe9\xc7\xf0?'
p4732
tp4733
Rp4734
asS'r_size:1000\ne_prm:0.200000\ni_scl:0.288889\ns_scl:0.200000\nsp:0.100000\nreg:0.010000'
p4735
(lp4736
g3
(g7
S'\xef\xe1\x10\x10(\x12\xf0?'
p4737
tp4738
Rp4739
ag3
(g7
S'W\xa4\x9d\n\xd1\x0e\xf1?'
p4740
tp4741
Rp4742
ag3
(g7
S'a\xc5\xf0\xe5\nn\xf0?'
p4743
tp4744
Rp4745
asS'r_size:500\ne_prm:0.200000\ni_scl:0.911111\ns_scl:0.200000\nsp:0.500000\nreg:0.010000'
p4746
(lp4747
g3
(g7
S'\xc9\x92\xf4*c\x11\xf1?'
p4748
tp4749
Rp4750
ag3
(g7
S'k\xcb\xe89\xd8\xee\xf0?'
p4751
tp4752
Rp4753
ag3
(g7
S'\x1eIva>@\xf2?'
p4754
tp4755
Rp4756
asS'r_size:1000\ne_prm:0.200000\ni_scl:0.911111\ns_scl:0.550000\nsp:0.100000\nreg:0.010000'
p4757
(lp4758
g3
(g7
S'\xebb\x98\x13\xd4\xa1\xf3?'
p4759
tp4760
Rp4761
ag3
(g7
S'\x00\xaa\xdcm^\xe1\xf2?'
p4762
tp4763
Rp4764
ag3
(g7
S"<5'\xb4|\x8f\xf2?"
p4765
tp4766
Rp4767
asS'r_size:1000\ne_prm:0.200000\ni_scl:0.644444\ns_scl:0.316667\nsp:1.000000\nreg:0.010000'
p4768
(lp4769
g3
(g7
S'\xf5\x00\xc4u\x03@\xf0?'
p4770
tp4771
Rp4772
ag3
(g7
S'\xa8n\xfdJ* \xee?'
p4773
tp4774
Rp4775
ag3
(g7
S'\x83\xc3\x11\x03\xcf\xb1\xef?'
p4776
tp4777
Rp4778
asS'r_size:500\ne_prm:0.200000\ni_scl:0.288889\ns_scl:0.666667\nsp:0.500000\nreg:0.010000'
p4779
(lp4780
g3
(g7
S'\xe3\xd6\xb6\xd3\xb4L\xf0?'
p4781
tp4782
Rp4783
ag3
(g7
S'\x97\x00/\x1a\xaf\x1e\xf0?'
p4784
tp4785
Rp4786
ag3
(g7
S'\xd4\xb2>\x85,M\xf0?'
p4787
tp4788
Rp4789
asS'r_size:1000\ne_prm:0.200000\ni_scl:1.000000\ns_scl:0.433333\nsp:0.100000\nreg:0.010000'
p4790
(lp4791
g3
(g7
S'Xc\x88\x92+\xc8\xf0?'
p4792
tp4793
Rp4794
ag3
(g7
S'C\x93\xc2\xc4\xc5\x87\xf0?'
p4795
tp4796
Rp4797
ag3
(g7
S'\xe3\xba\xe3(1\x7f\xf0?'
p4798
tp4799
Rp4800
asS'r_size:500\ne_prm:0.200000\ni_scl:0.911111\ns_scl:0.433333\nsp:1.000000\nreg:0.010000'
p4801
(lp4802
g3
(g7
S'\x06\xc8Z\xfc\xca\xd3\xf0?'
p4803
tp4804
Rp4805
ag3
(g7
S'\xadU\xeczf\xa5\xf1?'
p4806
tp4807
Rp4808
ag3
(g7
S'\xea\x92\xb4@IN\xf1?'
p4809
tp4810
Rp4811
asS'r_size:1000\ne_prm:0.200000\ni_scl:0.288889\ns_scl:0.200000\nsp:1.000000\nreg:0.010000'
p4812
(lp4813
g3
(g7
S'\x95\xb0F,\x9d\xc0\xef?'
p4814
tp4815
Rp4816
ag3
(g7
S'ZO\xa3\xb5\xa0\xbe\xef?'
p4817
tp4818
Rp4819
ag3
(g7
S'?\xdeL\xb0*\xcc\xef?'
p4820
tp4821
Rp4822
asS'r_size:500\ne_prm:0.200000\ni_scl:0.733333\ns_scl:0.200000\nsp:1.000000\nreg:0.010000'
p4823
(lp4824
g3
(g7
S'\x1b\x0e@\x80,\x0e\xf0?'
p4825
tp4826
Rp4827
ag3
(g7
S'\xb7t\x86-\xb5\x07\xf0?'
p4828
tp4829
Rp4830
ag3
(g7
S'#Z\xd8i3\xf0\xef?'
p4831
tp4832
Rp4833
asS'r_size:750\ne_prm:0.200000\ni_scl:0.466667\ns_scl:0.433333\nsp:1.000000\nreg:0.010000'
p4834
(lp4835
g3
(g7
S'UR\x9f\xc0\xb0\xc0\xef?'
p4836
tp4837
Rp4838
ag3
(g7
S'\xc8\\\xc5\xa1\x99\x9d\xee?'
p4839
tp4840
Rp4841
ag3
(g7
S'G\xe9DUi\x98\xef?'
p4842
tp4843
Rp4844
asS'r_size:500\ne_prm:0.200000\ni_scl:0.555556\ns_scl:0.433333\nsp:1.000000\nreg:0.010000'
p4845
(lp4846
g3
(g7
S'\xb3B\xd8S\x89\n\xf0?'
p4847
tp4848
Rp4849
ag3
(g7
S'5z``*S\xf0?'
p4850
tp4851
Rp4852
ag3
(g7
S'8o\xb2+\xb6\xd1\xee?'
p4853
tp4854
Rp4855
asS'r_size:750\ne_prm:0.200000\ni_scl:0.288889\ns_scl:0.433333\nsp:0.500000\nreg:0.010000'
p4856
(lp4857
g3
(g7
S'k8\xcf\xed.Z\xf0?'
p4858
tp4859
Rp4860
ag3
(g7
S'\x8d\x8e\xd0\x1d\xffN\xf0?'
p4861
tp4862
Rp4863
ag3
(g7
S'\xd8\x86\xc6\x9a4U\xf0?'
p4864
tp4865
Rp4866
asS'r_size:1250\ne_prm:0.200000\ni_scl:0.822222\ns_scl:0.200000\nsp:0.500000\nreg:0.010000'
p4867
(lp4868
g3
(g7
S'\xd1\xd1z\xb4\xdd\xd7\xf0?'
p4869
tp4870
Rp4871
ag3
(g7
S'\x1d\xcb\x9fa,\x07\xf2?'
p4872
tp4873
Rp4874
ag3
(g7
S'mNi\t\xf8\xcd\xf1?'
p4875
tp4876
Rp4877
asS'r_size:1000\ne_prm:0.200000\ni_scl:0.555556\ns_scl:0.666667\nsp:0.100000\nreg:0.010000'
p4878
(lp4879
g3
(g7
S'4\xd7%\x8c\xb5i\xf0?'
p4880
tp4881
Rp4882
ag3
(g7
S'\xa1\xa32\xd6\x07\x89\xf0?'
p4883
tp4884
Rp4885
ag3
(g7
S'e&|\x1c\xeeT\xf0?'
p4886
tp4887
Rp4888
asS'r_size:1000\ne_prm:0.200000\ni_scl:1.000000\ns_scl:0.200000\nsp:0.100000\nreg:0.010000'
p4889
(lp4890
g3
(g7
S'\x82f\xa3\xc3\xf5n\xf0?'
p4891
tp4892
Rp4893
ag3
(g7
S'C\x81Q\xa5\xbb\x88\xf0?'
p4894
tp4895
Rp4896
ag3
(g7
S'\x8e\x04bNdT\xf0?'
p4897
tp4898
Rp4899
asS'r_size:500\ne_prm:0.200000\ni_scl:0.466667\ns_scl:0.550000\nsp:0.100000\nreg:0.010000'
p4900
(lp4901
g3
(g7
S'uh\xa5\xb7\xa5\xa6\xf0?'
p4902
tp4903
Rp4904
ag3
(g7
S'kL\x85.;Y\xf0?'
p4905
tp4906
Rp4907
ag3
(g7
S'\x9f.\xed\xba\xa0)\xf0?'
p4908
tp4909
Rp4910
asS'r_size:500\ne_prm:0.200000\ni_scl:0.644444\ns_scl:0.200000\nsp:0.500000\nreg:0.010000'
p4911
(lp4912
g3
(g7
S'\x9b\xffd\xbeZ|\xf0?'
p4913
tp4914
Rp4915
ag3
(g7
S'b\xd3\x19\x1d\x04\x84\xf0?'
p4916
tp4917
Rp4918
ag3
(g7
S'g\x07\xefQB\x8a\xf0?'
p4919
tp4920
Rp4921
asS'r_size:1000\ne_prm:0.200000\ni_scl:0.733333\ns_scl:0.316667\nsp:0.100000\nreg:0.010000'
p4922
(lp4923
g3
(g7
S'\xca\xe6\xed\xcaB\x05\xf1?'
p4924
tp4925
Rp4926
ag3
(g7
S'=\xc0\xd4\xb0p4\xf0?'
p4927
tp4928
Rp4929
ag3
(g7
S's]x\xd4\x0c:\xf0?'
p4930
tp4931
Rp4932
asS'r_size:1250\ne_prm:0.200000\ni_scl:0.733333\ns_scl:0.200000\nsp:1.000000\nreg:0.010000'
p4933
(lp4934
g3
(g7
S'\x9b\xd1y\xd8\x01v\xef?'
p4935
tp4936
Rp4937
ag3
(g7
S'\x99\x12~}\xb8x\xef?'
p4938
tp4939
Rp4940
ag3
(g7
S'*\x99\x04\xe51s\xef?'
p4941
tp4942
Rp4943
asS'r_size:1250\ne_prm:0.200000\ni_scl:1.000000\ns_scl:0.550000\nsp:1.000000\nreg:0.010000'
p4944
(lp4945
g3
(g7
S'N|?\xd4(\xa5\xf6?'
p4946
tp4947
Rp4948
ag3
(g7
S'\x161\x84iT\xc6\xf6?'
p4949
tp4950
Rp4951
ag3
(g7
S'E_\x93\xf9\x80\xc0\xf6?'
p4952
tp4953
Rp4954
asS'r_size:1000\ne_prm:0.200000\ni_scl:0.644444\ns_scl:0.433333\nsp:0.100000\nreg:0.010000'
p4955
(lp4956
g3
(g7
S'"\x0b\x95\x02R;\xf0?'
p4957
tp4958
Rp4959
ag3
(g7
S'\xb2d\xac\x17\xd74\xf0?'
p4960
tp4961
Rp4962
ag3
(g7
S'\xe3 \x9cPZ6\xf0?'
p4963
tp4964
Rp4965
asS'r_size:750\ne_prm:0.200000\ni_scl:0.733333\ns_scl:0.200000\nsp:0.100000\nreg:0.010000'
p4966
(lp4967
g3
(g7
S'\xe3\xa4"\x03\x101\xf0?'
p4968
tp4969
Rp4970
ag3
(g7
S'\x98\xef$3_\x82\xf0?'
p4971
tp4972
Rp4973
ag3
(g7
S'\x9c\xb2W\x81f^\xf0?'
p4974
tp4975
Rp4976
asS'r_size:500\ne_prm:0.200000\ni_scl:0.288889\ns_scl:0.200000\nsp:1.000000\nreg:0.010000'
p4977
(lp4978
g3
(g7
S'o3\xbd\xf0\x1dQ\xef?'
p4979
tp4980
Rp4981
ag3
(g7
S"\xdc\xd0\xdc'\xf3Q\xef?"
p4982
tp4983
Rp4984
ag3
(g7
S'(\xba\xad\xea\xabZ\xef?'
p4985
tp4986
Rp4987
asS'r_size:1250\ne_prm:0.200000\ni_scl:0.555556\ns_scl:0.316667\nsp:0.100000\nreg:0.010000'
p4988
(lp4989
g3
(g7
S'\xc9k\x04\xd1\xcf#\xf0?'
p4990
tp4991
Rp4992
ag3
(g7
S"'\x17\x058@!\xf0?"
p4993
tp4994
Rp4995
ag3
(g7
S'PYS\xc0\x9bM\xf0?'
p4996
tp4997
Rp4998
asS'r_size:750\ne_prm:0.200000\ni_scl:0.733333\ns_scl:0.316667\nsp:0.500000\nreg:0.010000'
p4999
(lp5000
g3
(g7
S'\xd1,\x91\xd7/\x0b\xf1?'
p5001
tp5002
Rp5003
ag3
(g7
S'Dc\xfb\xe7\xc1\x19\xf1?'
p5004
tp5005
Rp5006
ag3
(g7
S'i\x96\xc9\xaaY$\xf1?'
p5007
tp5008
Rp5009
asS'r_size:500\ne_prm:0.200000\ni_scl:0.377778\ns_scl:0.433333\nsp:1.000000\nreg:0.010000'
p5010
(lp5011
g3
(g7
S'\x07\x11\x13\xa6R\xe6\xe7?'
p5012
tp5013
Rp5014
ag3
(g7
S'\x97\xf1\xe6\xe9\x95\xbc\xe8?'
p5015
tp5016
Rp5017
ag3
(g7
S'0\xc1"k\x96K\xe9?'
p5018
tp5019
Rp5020
asS'r_size:750\ne_prm:0.200000\ni_scl:0.377778\ns_scl:0.200000\nsp:0.100000\nreg:0.010000'
p5021
(lp5022
g3
(g7
S'Y\xc8\xfc\xd1\xc3\x1f\xf0?'
p5023
tp5024
Rp5025
ag3
(g7
S'\x12Unzn\xe0\xf0?'
p5026
tp5027
Rp5028
ag3
(g7
S' Wva\x8e6\xf0?'
p5029
tp5030
Rp5031
asS'r_size:750\ne_prm:0.200000\ni_scl:0.288889\ns_scl:0.666667\nsp:1.000000\nreg:0.010000'
p5032
(lp5033
g3
(g7
S'\xa44\x1e\x13\x06\x98\xed?'
p5034
tp5035
Rp5036
ag3
(g7
S'\x11%\x05\xc6\xbcz\xf1?'
p5037
tp5038
Rp5039
ag3
(g7
S'\xf4D\xdf\xd7\x1co\xf1?'
p5040
tp5041
Rp5042
asS'r_size:1000\ne_prm:0.200000\ni_scl:0.911111\ns_scl:0.200000\nsp:1.000000\nreg:0.010000'
p5043
(lp5044
g3
(g7
S'\x99\xcc\x8d\xa2 D\xef?'
p5045
tp5046
Rp5047
ag3
(g7
S'\x15\x1b\x81\xd5\xd9\xe1\xee?'
p5048
tp5049
Rp5050
ag3
(g7
S'}\xced\x80\xda\xdd\xee?'
p5051
tp5052
Rp5053
asS'r_size:500\ne_prm:0.200000\ni_scl:1.000000\ns_scl:0.433333\nsp:0.100000\nreg:0.010000'
p5054
(lp5055
g3
(g7
S'\xcc\x190u\xd5\xb7\xf0?'
p5056
tp5057
Rp5058
ag3
(g7
S'\x8f\x82\xfd\xa3}\x86\xf3?'
p5059
tp5060
Rp5061
ag3
(g7
S'\xa2\xc6\xc6\x83\x14\xb9\xf2?'
p5062
tp5063
Rp5064
asS'r_size:750\ne_prm:0.200000\ni_scl:0.200000\ns_scl:0.550000\nsp:1.000000\nreg:0.010000'
p5065
(lp5066
g3
(g7
S'\xa5+$\x89\xf9\xf3\xec?'
p5067
tp5068
Rp5069
ag3
(g7
S'E4\x0c*\xd4\xee\xec?'
p5070
tp5071
Rp5072
ag3
(g7
S"K\xc7\x8b'\x9e\x9d\xec?"
p5073
tp5074
Rp5075
asS'r_size:1000\ne_prm:0.200000\ni_scl:0.911111\ns_scl:0.316667\nsp:0.500000\nreg:0.010000'
p5076
(lp5077
g3
(g7
S'\xed~A\x99\x89q\xf2?'
p5078
tp5079
Rp5080
ag3
(g7
S'"\xfc\x98|\x1c\xbb\xf2?'
p5081
tp5082
Rp5083
ag3
(g7
S'\n\x91rB\xd2k\xf2?'
p5084
tp5085
Rp5086
asS'r_size:500\ne_prm:0.200000\ni_scl:0.466667\ns_scl:0.200000\nsp:0.500000\nreg:0.010000'
p5087
(lp5088
g3
(g7
S'\x13\xee\x97\xcdF7\xf0?'
p5089
tp5090
Rp5091
ag3
(g7
S'\xfc?\x82>\xe7;\xf0?'
p5092
tp5093
Rp5094
ag3
(g7
S'\x10\xa6\x06qF\x82\xf0?'
p5095
tp5096
Rp5097
asS'r_size:500\ne_prm:0.200000\ni_scl:0.644444\ns_scl:0.550000\nsp:0.500000\nreg:0.010000'
p5098
(lp5099
g3
(g7
S'\xa5\xf0\xe3+f\x1a\xf1?'
p5100
tp5101
Rp5102
ag3
(g7
S'\x9e\x17\xc5)i>\xf1?'
p5103
tp5104
Rp5105
ag3
(g7
S'7+\xdb\xf5\xcf \xf1?'
p5106
tp5107
Rp5108
asS'r_size:1250\ne_prm:0.200000\ni_scl:0.466667\ns_scl:0.550000\nsp:0.500000\nreg:0.010000'
p5109
(lp5110
g3
(g7
S'"q\xe3\xf8R\xb2\xf0?'
p5111
tp5112
Rp5113
ag3
(g7
S'\xcb3\xc0\xe1\xfef\xf0?'
p5114
tp5115
Rp5116
ag3
(g7
S'\xe1\x04\xa1\xef\xfa\x8c\xf0?'
p5117
tp5118
Rp5119
asS'r_size:500\ne_prm:0.200000\ni_scl:0.733333\ns_scl:0.433333\nsp:0.100000\nreg:0.010000'
p5120
(lp5121
g3
(g7
S'\x91\xca\xc9\xfa\xcet\xf0?'
p5122
tp5123
Rp5124
ag3
(g7
S'\xe8y\ra\xfbo\xf0?'
p5125
tp5126
Rp5127
ag3
(g7
S'E\x8f@\xf2\xaf]\xf0?'
p5128
tp5129
Rp5130
asS'r_size:1000\ne_prm:0.200000\ni_scl:0.644444\ns_scl:0.200000\nsp:1.000000\nreg:0.010000'
p5131
(lp5132
g3
(g7
S'\x9bx\x82\xe0\x0f\xd0\xef?'
p5133
tp5134
Rp5135
ag3
(g7
S'+\xe3#\xae\xdd\xd7\xef?'
p5136
tp5137
Rp5138
ag3
(g7
S'\x9b~\xb7\xcf\x9e\xe0\xef?'
p5139
tp5140
Rp5141
asS'r_size:750\ne_prm:0.200000\ni_scl:0.822222\ns_scl:0.200000\nsp:0.500000\nreg:0.010000'
p5142
(lp5143
g3
(g7
S'\x1d\x8b\x9f\xa5\xe4\xb8\xf0?'
p5144
tp5145
Rp5146
ag3
(g7
S'\x1e\x00\xe9\x03"\xd2\xf1?'
p5147
tp5148
Rp5149
ag3
(g7
S'\x00\x8bj\x82\x16\xa1\xf0?'
p5150
tp5151
Rp5152
asS'r_size:1250\ne_prm:0.200000\ni_scl:0.200000\ns_scl:0.316667\nsp:1.000000\nreg:0.010000'
p5153
(lp5154
g3
(g7
S'n\xb7\xf3\xd3X\xb7\xee?'
p5155
tp5156
Rp5157
ag3
(g7
S'\x96\x1e*\xc4\xaa\xeb\xee?'
p5158
tp5159
Rp5160
ag3
(g7
S'\xdd\xe4\xe7\xe1\xf6\xe8\xee?'
p5161
tp5162
Rp5163
asS'r_size:1250\ne_prm:0.200000\ni_scl:0.377778\ns_scl:0.550000\nsp:1.000000\nreg:0.010000'
p5164
(lp5165
g3
(g7
S'2#\x8b\xc0\xf5u\xf3?'
p5166
tp5167
Rp5168
ag3
(g7
S'\\0\xd9\x9cj\xc7\xf3?'
p5169
tp5170
Rp5171
ag3
(g7
S'V\xce6\xe2w\x0c\xf4?'
p5172
tp5173
Rp5174
asS'r_size:500\ne_prm:0.200000\ni_scl:0.288889\ns_scl:0.550000\nsp:0.100000\nreg:0.010000'
p5175
(lp5176
g3
(g7
S'N\xc0-\xc4\x1d\x0f\xf0?'
p5177
tp5178
Rp5179
ag3
(g7
S'\xb3u\xa8\x85/\x15\xf0?'
p5180
tp5181
Rp5182
ag3
(g7
S'\x89\x07\x96\x1f\xae/\xf0?'
p5183
tp5184
Rp5185
asS'r_size:500\ne_prm:0.200000\ni_scl:0.466667\ns_scl:0.550000\nsp:0.500000\nreg:0.010000'
p5186
(lp5187
g3
(g7
S'\x9aS\\\x85\x13s\xf0?'
p5188
tp5189
Rp5190
ag3
(g7
S'y\xadS\x03\x9b~\xf0?'
p5191
tp5192
Rp5193
ag3
(g7
S'<\xc9\x83P\x8c\xa3\xf0?'
p5194
tp5195
Rp5196
asS'r_size:1000\ne_prm:0.200000\ni_scl:1.000000\ns_scl:0.316667\nsp:0.500000\nreg:0.010000'
p5197
(lp5198
g3
(g7
S'\xda\xc0\x01\xe2h7\xf3?'
p5199
tp5200
Rp5201
ag3
(g7
S'\x9dw\x86\xf9\x89G\xf3?'
p5202
tp5203
Rp5204
ag3
(g7
S'\xb5r4\xec\xebI\xf3?'
p5205
tp5206
Rp5207
asS'r_size:1250\ne_prm:0.200000\ni_scl:0.822222\ns_scl:0.200000\nsp:1.000000\nreg:0.010000'
p5208
(lp5209
g3
(g7
S'\xf1\xf7\xf9\xd4\xad\x1e\xef?'
p5210
tp5211
Rp5212
ag3
(g7
S'\x9e\xfd@7\x15?\xef?'
p5213
tp5214
Rp5215
ag3
(g7
S'\x15\xfd\xe2\xd7\xa7\xb6\xee?'
p5216
tp5217
Rp5218
asS'r_size:750\ne_prm:0.200000\ni_scl:0.644444\ns_scl:0.316667\nsp:1.000000\nreg:0.010000'
p5219
(lp5220
g3
(g7
S'\xd92\xfc]\xde\xbb\xec?'
p5221
tp5222
Rp5223
ag3
(g7
S'I\xc3\x1cJ\x01 \xec?'
p5224
tp5225
Rp5226
ag3
(g7
S'Q\xcb\xab\xc1\x16\x82\xeb?'
p5227
tp5228
Rp5229
asS'r_size:750\ne_prm:0.200000\ni_scl:0.200000\ns_scl:0.200000\nsp:0.500000\nreg:0.010000'
p5230
(lp5231
g3
(g7
S'4\x0c\x93\xde\xd7L\xf0?'
p5232
tp5233
Rp5234
ag3
(g7
S'W\xf3"w`^\xf0?'
p5235
tp5236
Rp5237
ag3
(g7
S'<B\x01\x04\xbaE\xf0?'
p5238
tp5239
Rp5240
asS'r_size:500\ne_prm:0.200000\ni_scl:0.288889\ns_scl:0.433333\nsp:1.000000\nreg:0.010000'
p5241
(lp5242
g3
(g7
S'y\xdd\xcc<\xfc\xaf\xeb?'
p5243
tp5244
Rp5245
ag3
(g7
S'E\xc6HP\x9e\xe4\xeb?'
p5246
tp5247
Rp5248
ag3
(g7
S'\xd4\xe3\x1c\x8b\xc2\x18\xec?'
p5249
tp5250
Rp5251
asS'r_size:1250\ne_prm:0.200000\ni_scl:0.822222\ns_scl:0.433333\nsp:1.000000\nreg:0.010000'
p5252
(lp5253
g3
(g7
S'\xf5\x0c\xc4_\x1dN\xf4?'
p5254
tp5255
Rp5256
ag3
(g7
S'\x83\xe6_\xa2\xc5\xb3\xf2?'
p5257
tp5258
Rp5259
ag3
(g7
S'\xd3h&\x88\xe52\xf3?'
p5260
tp5261
Rp5262
asS'r_size:1000\ne_prm:0.200000\ni_scl:0.200000\ns_scl:0.316667\nsp:0.100000\nreg:0.010000'
p5263
(lp5264
g3
(g7
S'n\xc1\x8d\x0c\xc9\n\xf0?'
p5265
tp5266
Rp5267
ag3
(g7
S'\x07\xa2#\xa6\x18\x06\xf0?'
p5268
tp5269
Rp5270
ag3
(g7
S'\xadb\xccN\x85\xd9\xf0?'
p5271
tp5272
Rp5273
asS'r_size:1000\ne_prm:0.200000\ni_scl:0.644444\ns_scl:0.550000\nsp:1.000000\nreg:0.010000'
p5274
(lp5275
g3
(g7
S'\xfa`\xb2\xa7bu\xf5?'
p5276
tp5277
Rp5278
ag3
(g7
S'M\xb5\xc9=\xd0+\xf5?'
p5279
tp5280
Rp5281
ag3
(g7
S'[\xae\xea@\x01d\xf5?'
p5282
tp5283
Rp5284
asS'r_size:750\ne_prm:0.200000\ni_scl:0.733333\ns_scl:0.550000\nsp:0.500000\nreg:0.010000'
p5285
(lp5286
g3
(g7
S'5h%s\x83\xfa\xf0?'
p5287
tp5288
Rp5289
ag3
(g7
S'\x16\xd1\xc62\xf6\xc4\xf1?'
p5290
tp5291
Rp5292
ag3
(g7
S'x\t\xf0\xa0\x03\xb8\xf1?'
p5293
tp5294
Rp5295
asS'r_size:750\ne_prm:0.200000\ni_scl:0.466667\ns_scl:0.433333\nsp:0.500000\nreg:0.010000'
p5296
(lp5297
g3
(g7
S'\xa9&\xa4X\xa7\xaa\xf0?'
p5298
tp5299
Rp5300
ag3
(g7
S'\xaat\xf4v\xc9\xa9\xf0?'
p5301
tp5302
Rp5303
ag3
(g7
S'\xc2\xeb\x9d\x9e\x9a\x9a\xf0?'
p5304
tp5305
Rp5306
asS'r_size:750\ne_prm:0.200000\ni_scl:0.466667\ns_scl:0.666667\nsp:1.000000\nreg:0.010000'
p5307
(lp5308
g3
(g7
S'$\x10ba[\xa0\xf3?'
p5309
tp5310
Rp5311
ag3
(g7
S'\x87\x7f?F\xf2&\xf2?'
p5312
tp5313
Rp5314
ag3
(g7
S'\xc4\x1bsT\x16g\xf3?'
p5315
tp5316
Rp5317
asS'r_size:1250\ne_prm:0.200000\ni_scl:0.200000\ns_scl:0.316667\nsp:0.100000\nreg:0.010000'
p5318
(lp5319
g3
(g7
S'\xd0\xea\xbe\xb6|"\xf0?'
p5320
tp5321
Rp5322
ag3
(g7
S'+\xf8-y4\x90\xf0?'
p5323
tp5324
Rp5325
ag3
(g7
S'\xcd\x7f\xfe\xaa\x85\x04\xf1?'
p5326
tp5327
Rp5328
asS'r_size:750\ne_prm:0.200000\ni_scl:1.000000\ns_scl:0.550000\nsp:1.000000\nreg:0.010000'
p5329
(lp5330
g3
(g7
S'\x02#2j\xd2\x95\xf5?'
p5331
tp5332
Rp5333
ag3
(g7
S'\xca|\xb8\x8d\x8e\xdb\xf5?'
p5334
tp5335
Rp5336
ag3
(g7
S']p\x93\xfc,\xb3\xf5?'
p5337
tp5338
Rp5339
asS'r_size:500\ne_prm:0.200000\ni_scl:0.733333\ns_scl:0.433333\nsp:0.500000\nreg:0.010000'
p5340
(lp5341
g3
(g7
S'(M\xb6\xce\xd8\x85\xf1?'
p5342
tp5343
Rp5344
ag3
(g7
S'l%\x88\x9d\xd6t\xf1?'
p5345
tp5346
Rp5347
ag3
(g7
S't\xbd\xc4nLS\xf1?'
p5348
tp5349
Rp5350
asS'r_size:1000\ne_prm:0.200000\ni_scl:0.377778\ns_scl:0.433333\nsp:0.100000\nreg:0.010000'
p5351
(lp5352
g3
(g7
S'T\x12\x16\xc5\xc2\x1e\xf0?'
p5353
tp5354
Rp5355
ag3
(g7
S'\x89\xb2\x8a\xb2a\x16\xf0?'
p5356
tp5357
Rp5358
ag3
(g7
S'`(\xec\xd7\x8eM\xf0?'
p5359
tp5360
Rp5361
asS'r_size:1000\ne_prm:0.200000\ni_scl:0.377778\ns_scl:0.550000\nsp:0.500000\nreg:0.010000'
p5362
(lp5363
g3
(g7
S'*L\x19\xcb9\x81\xf0?'
p5364
tp5365
Rp5366
ag3
(g7
S'C\xf6\x8f\xeaL\x93\xf0?'
p5367
tp5368
Rp5369
ag3
(g7
S'\x1fL\x08.\xdb|\xf0?'
p5370
tp5371
Rp5372
asS'r_size:1000\ne_prm:0.200000\ni_scl:0.911111\ns_scl:0.200000\nsp:0.500000\nreg:0.010000'
p5373
(lp5374
g3
(g7
S'XG\xc2\x0f\xc4\xf3\xf0?'
p5375
tp5376
Rp5377
ag3
(g7
S'\xf7\xde\x88\xf9EN\xf1?'
p5378
tp5379
Rp5380
ag3
(g7
S'\x90GC\xb2f=\xf1?'
p5381
tp5382
Rp5383
asS'r_size:1000\ne_prm:0.200000\ni_scl:1.000000\ns_scl:0.550000\nsp:0.100000\nreg:0.010000'
p5384
(lp5385
g3
(g7
S'\xa4))8yV\xf1?'
p5386
tp5387
Rp5388
ag3
(g7
S'"\xd16*\xd5\x9b\xf2?'
p5389
tp5390
Rp5391
ag3
(g7
S'\xbf\xb2\x9ec\x7f\xd4\xf2?'
p5392
tp5393
Rp5394
asS'r_size:750\ne_prm:0.200000\ni_scl:0.377778\ns_scl:0.433333\nsp:0.100000\nreg:0.010000'
p5395
(lp5396
g3
(g7
S'\x927d#U1\xf0?'
p5397
tp5398
Rp5399
ag3
(g7
S'"JE<n"\xf0?'
p5400
tp5401
Rp5402
ag3
(g7
S'\x15V\x80Yl\x13\xf0?'
p5403
tp5404
Rp5405
asS'r_size:750\ne_prm:0.200000\ni_scl:0.644444\ns_scl:0.550000\nsp:0.100000\nreg:0.010000'
p5406
(lp5407
g3
(g7
S'\xe9\xca*\xeb\x9bb\xf1?'
p5408
tp5409
Rp5410
ag3
(g7
S'\x91\xe7H\x95Q\xff\xf0?'
p5411
tp5412
Rp5413
ag3
(g7
S'\x98\x91\xf97\x04E\xf0?'
p5414
tp5415
Rp5416
asS'r_size:500\ne_prm:0.200000\ni_scl:0.200000\ns_scl:0.316667\nsp:0.100000\nreg:0.010000'
p5417
(lp5418
g3
(g7
S'\xf7R\xc9\x11\xaa\xde\xf0?'
p5419
tp5420
Rp5421
ag3
(g7
S'k\xb4\xa0\xf2!\x18\xf1?'
p5422
tp5423
Rp5424
ag3
(g7
S'0\x84\xe1\x8c5\xd3\xf0?'
p5425
tp5426
Rp5427
asS'r_size:750\ne_prm:0.200000\ni_scl:0.200000\ns_scl:0.316667\nsp:0.500000\nreg:0.010000'
p5428
(lp5429
g3
(g7
S'|\xd4+,\xf3\x19\xf0?'
p5430
tp5431
Rp5432
ag3
(g7
S'\xc2\xc7d\xf4\xa8\x1a\xf0?'
p5433
tp5434
Rp5435
ag3
(g7
S'\x80\x9b\x07\xab\xb5\x1e\xf0?'
p5436
tp5437
Rp5438
asS'r_size:1250\ne_prm:0.200000\ni_scl:0.288889\ns_scl:0.550000\nsp:1.000000\nreg:0.010000'
p5439
(lp5440
g3
(g7
S'\xcf{\xca\x81\xffs\xf1?'
p5441
tp5442
Rp5443
ag3
(g7
S'\xbe\xa7\xc1\xdbk\xda\xf1?'
p5444
tp5445
Rp5446
ag3
(g7
S'\x12:h\xf3g\xa9\xf1?'
p5447
tp5448
Rp5449
asS'r_size:750\ne_prm:0.200000\ni_scl:0.288889\ns_scl:0.550000\nsp:1.000000\nreg:0.010000'
p5450
(lp5451
g3
(g7
S'\xbfe\x87~{\xe3\xee?'
p5452
tp5453
Rp5454
ag3
(g7
S'@/\xbfx,F\xed?'
p5455
tp5456
Rp5457
ag3
(g7
S'izSo\xc0C\xee?'
p5458
tp5459
Rp5460
asS'r_size:750\ne_prm:0.200000\ni_scl:0.288889\ns_scl:0.200000\nsp:0.100000\nreg:0.010000'
p5461
(lp5462
g3
(g7
S'\xa0J4\x17\x08+\xf1?'
p5463
tp5464
Rp5465
ag3
(g7
S'eJ\xd9V,#\xf1?'
p5466
tp5467
Rp5468
ag3
(g7
S'\x82;\x04eY\xf7\xf0?'
p5469
tp5470
Rp5471
asS'r_size:1000\ne_prm:0.200000\ni_scl:0.644444\ns_scl:0.200000\nsp:0.500000\nreg:0.010000'
p5472
(lp5473
g3
(g7
S']\xe2\xf0\x9d{\xa4\xf0?'
p5474
tp5475
Rp5476
ag3
(g7
S'\xd9\x88\xa1\x9cj\xa7\xf0?'
p5477
tp5478
Rp5479
ag3
(g7
S'\x93\xac%@\x97e\xf0?'
p5480
tp5481
Rp5482
asS'r_size:1250\ne_prm:0.200000\ni_scl:0.911111\ns_scl:0.550000\nsp:0.500000\nreg:0.010000'
p5483
(lp5484
g3
(g7
S'\xb1\x9a\rN=\x9a\xf3?'
p5485
tp5486
Rp5487
ag3
(g7
S'B\x98\xaf}\xb3~\xf2?'
p5488
tp5489
Rp5490
ag3
(g7
S'8\x07A\x87%\xa4\xf3?'
p5491
tp5492
Rp5493
asS'r_size:500\ne_prm:0.200000\ni_scl:0.644444\ns_scl:0.550000\nsp:1.000000\nreg:0.010000'
p5494
(lp5495
g3
(g7
S'\xe2\xedt\xb5\xd8R\xf4?'
p5496
tp5497
Rp5498
ag3
(g7
S'\x15E`(\x92\x9d\xf4?'
p5499
tp5500
Rp5501
ag3
(g7
S'\rp\xac\x97\xb0\x9f\xf4?'
p5502
tp5503
Rp5504
asS'r_size:1250\ne_prm:0.200000\ni_scl:0.377778\ns_scl:0.550000\nsp:0.500000\nreg:0.010000'
p5505
(lp5506
g3
(g7
S'\xc3A\x93\xe2\xaa\x9c\xf0?'
p5507
tp5508
Rp5509
ag3
(g7
S'\xa7\x99[\x89Ei\xf0?'
p5510
tp5511
Rp5512
ag3
(g7
S"|D'\xd9L\x93\xf0?"
p5513
tp5514
Rp5515
asS'r_size:1250\ne_prm:0.200000\ni_scl:0.466667\ns_scl:0.433333\nsp:0.500000\nreg:0.010000'
p5516
(lp5517
g3
(g7
S'\x18\xbf*:J\x97\xf0?'
p5518
tp5519
Rp5520
ag3
(g7
S'\xf3\x9cz\x93u\xa9\xf0?'
p5521
tp5522
Rp5523
ag3
(g7
S'\x06\xbd\x16\xef:\xa1\xf0?'
p5524
tp5525
Rp5526
asS'r_size:750\ne_prm:0.200000\ni_scl:1.000000\ns_scl:0.433333\nsp:0.100000\nreg:0.010000'
p5527
(lp5528
g3
(g7
S'\xdb\xda\xe0\x03\x87\x8d\xf0?'
p5529
tp5530
Rp5531
ag3
(g7
S'\x87\xd6\x1fKN\x10\xf1?'
p5532
tp5533
Rp5534
ag3
(g7
S'T\xfcJE]\xd4\xf3?'
p5535
tp5536
Rp5537
asS'r_size:500\ne_prm:0.200000\ni_scl:0.466667\ns_scl:0.433333\nsp:0.500000\nreg:0.010000'
p5538
(lp5539
g3
(g7
S'\xfbr\x030\xd8j\xf0?'
p5540
tp5541
Rp5542
ag3
(g7
S'4U\xdc\x18n\xb0\xf0?'
p5543
tp5544
Rp5545
ag3
(g7
S'.\xdd\x05\xe0U\xa7\xf0?'
p5546
tp5547
Rp5548
asS'r_size:1000\ne_prm:0.200000\ni_scl:0.644444\ns_scl:0.550000\nsp:0.100000\nreg:0.010000'
p5549
(lp5550
g3
(g7
S'\x01\xb7o\x88]\xec\xf0?'
p5551
tp5552
Rp5553
ag3
(g7
S'<\x8b\x85\x16\xb8\xf8\xf0?'
p5554
tp5555
Rp5556
ag3
(g7
S'#)!\xbf\xc5K\xf0?'
p5557
tp5558
Rp5559
asS'r_size:1000\ne_prm:0.200000\ni_scl:0.822222\ns_scl:0.200000\nsp:0.500000\nreg:0.010000'
p5560
(lp5561
g3
(g7
S'\x1d\x9d\x9a\xc6\x16\x97\xf0?'
p5562
tp5563
Rp5564
ag3
(g7
S',\xbbBB\x0b\x9c\xf0?'
p5565
tp5566
Rp5567
ag3
(g7
S'\xf6\xe31v\xec\xe7\xf0?'
p5568
tp5569
Rp5570
asS'r_size:750\ne_prm:0.200000\ni_scl:0.200000\ns_scl:0.200000\nsp:1.000000\nreg:0.010000'
p5571
(lp5572
g3
(g7
S'l\x90\x12r\xe66\xef?'
p5573
tp5574
Rp5575
ag3
(g7
S'\xaa\x90\x0c\xd8\x99L\xef?'
p5576
tp5577
Rp5578
ag3
(g7
S'\xe9N\x88`\x0bB\xef?'
p5579
tp5580
Rp5581
asS'r_size:500\ne_prm:0.200000\ni_scl:0.288889\ns_scl:0.433333\nsp:0.500000\nreg:0.010000'
p5582
(lp5583
g3
(g7
S'\xb4\x7f\x97\xea\x86X\xf0?'
p5584
tp5585
Rp5586
ag3
(g7
S'\xe8\x07\x8a\x83XO\xf0?'
p5587
tp5588
Rp5589
ag3
(g7
S'\xf3\xa2\xc4Z%V\xf0?'
p5590
tp5591
Rp5592
asS'r_size:500\ne_prm:0.200000\ni_scl:0.822222\ns_scl:0.316667\nsp:0.500000\nreg:0.010000'
p5593
(lp5594
g3
(g7
S'\x0b0q\xf16\xb2\xf1?'
p5595
tp5596
Rp5597
ag3
(g7
S'b\x01\xf1&\xc0\xad\xf1?'
p5598
tp5599
Rp5600
ag3
(g7
S'\xe6\x13\x16.\xfb\x92\xf1?'
p5601
tp5602
Rp5603
asS'r_size:1250\ne_prm:0.200000\ni_scl:0.822222\ns_scl:0.433333\nsp:0.500000\nreg:0.010000'
p5604
(lp5605
g3
(g7
S'H_\x1e\x16\x8c/\xf2?'
p5606
tp5607
Rp5608
ag3
(g7
S'\xc6\x83-%B\x15\xf2?'
p5609
tp5610
Rp5611
ag3
(g7
S'\xcd\xa4\xe8A<$\xf1?'
p5612
tp5613
Rp5614
asS'r_size:500\ne_prm:0.200000\ni_scl:0.822222\ns_scl:0.316667\nsp:1.000000\nreg:0.010000'
p5615
(lp5616
g3
(g7
S'\t\x9f\xeb\xd7s\xa6\xf2?'
p5617
tp5618
Rp5619
ag3
(g7
S'\x13\xf6\x0f\x0b\xa2M\xf2?'
p5620
tp5621
Rp5622
ag3
(g7
S'\xea\x0e?A\xfa\xfb\xf1?'
p5623
tp5624
Rp5625
asS'r_size:500\ne_prm:0.200000\ni_scl:0.911111\ns_scl:0.550000\nsp:0.100000\nreg:0.010000'
p5626
(lp5627
g3
(g7
S'#\xe0\xfb\xab\xb3\x8b\xf0?'
p5628
tp5629
Rp5630
ag3
(g7
S'\xff]bq\xb6\xd9\xf0?'
p5631
tp5632
Rp5633
ag3
(g7
S'6\xc0\xa4\x92\xda\x94\xf0?'
p5634
tp5635
Rp5636
asS'r_size:1250\ne_prm:0.200000\ni_scl:0.644444\ns_scl:0.316667\nsp:1.000000\nreg:0.010000'
p5637
(lp5638
g3
(g7
S'\xd7\xbeo\x08+\xae\xef?'
p5639
tp5640
Rp5641
ag3
(g7
S'\xbe\x8ee\x7f\x9c=\xef?'
p5642
tp5643
Rp5644
ag3
(g7
S"3\xab\x1e\xcd'\x88\xf0?"
p5645
tp5646
Rp5647
asS'r_size:750\ne_prm:0.200000\ni_scl:0.733333\ns_scl:0.550000\nsp:1.000000\nreg:0.010000'
p5648
(lp5649
g3
(g7
S'\xd2\xf5\x05U%k\xf5?'
p5650
tp5651
Rp5652
ag3
(g7
S'\x95@h\xfd\x14\x85\xf5?'
p5653
tp5654
Rp5655
ag3
(g7
S'\x1ap\xf3\xf9Bx\xf5?'
p5656
tp5657
Rp5658
asS'r_size:1000\ne_prm:0.200000\ni_scl:0.911111\ns_scl:0.316667\nsp:0.100000\nreg:0.010000'
p5659
(lp5660
g3
(g7
S'+\xf0u\xe6-V\xf0?'
p5661
tp5662
Rp5663
ag3
(g7
S'>2\xe1\x11\xc4\x02\xf1?'
p5664
tp5665
Rp5666
ag3
(g7
S'z\xc8\xa9\xe8\x89g\xf0?'
p5667
tp5668
Rp5669
asS'r_size:1250\ne_prm:0.200000\ni_scl:0.377778\ns_scl:0.200000\nsp:1.000000\nreg:0.010000'
p5670
(lp5671
g3
(g7
S'\x1fmC\x95\xc6\x07\xf0?'
p5672
tp5673
Rp5674
ag3
(g7
S'\xac\xf9=\x1e\x11\n\xf0?'
p5675
tp5676
Rp5677
ag3
(g7
S'DXP\xa2D\t\xf0?'
p5678
tp5679
Rp5680
asS'r_size:500\ne_prm:0.200000\ni_scl:0.644444\ns_scl:0.550000\nsp:0.100000\nreg:0.010000'
p5681
(lp5682
g3
(g7
S'\x82\x11n<C\x1c\xf1?'
p5683
tp5684
Rp5685
ag3
(g7
S'^\x91\xb8\x9epD\xf0?'
p5686
tp5687
Rp5688
ag3
(g7
S'ka\xa9j>\xec\xf0?'
p5689
tp5690
Rp5691
asS'r_size:1250\ne_prm:0.200000\ni_scl:0.911111\ns_scl:0.200000\nsp:0.500000\nreg:0.010000'
p5692
(lp5693
g3
(g7
S'5l\nlu\xf9\xf0?'
p5694
tp5695
Rp5696
ag3
(g7
S'\xa8\xa9\xe6\xee\xe1\xe4\xf2?'
p5697
tp5698
Rp5699
ag3
(g7
S'\xcf\x0b\xe9\x89GN\xf1?'
p5700
tp5701
Rp5702
asS'r_size:500\ne_prm:0.200000\ni_scl:0.377778\ns_scl:0.433333\nsp:0.100000\nreg:0.010000'
p5703
(lp5704
g3
(g7
S'\x8e\x1d|i+*\xf0?'
p5705
tp5706
Rp5707
ag3
(g7
S'\x8f\xe4\xeck\x1d1\xf0?'
p5708
tp5709
Rp5710
ag3
(g7
S'\x03Z\xbd\xca\x01N\xf0?'
p5711
tp5712
Rp5713
asS'r_size:750\ne_prm:0.200000\ni_scl:0.822222\ns_scl:0.200000\nsp:0.100000\nreg:0.010000'
p5714
(lp5715
g3
(g7
S'k@o>z\xb8\xf0?'
p5716
tp5717
Rp5718
ag3
(g7
S'^\x10\xb4\x0b7\xf0\xf0?'
p5719
tp5720
Rp5721
ag3
(g7
S'\x8b\xcb\xb3V\xf3@\xf0?'
p5722
tp5723
Rp5724
asS'r_size:1250\ne_prm:0.200000\ni_scl:0.466667\ns_scl:0.316667\nsp:1.000000\nreg:0.010000'
p5725
(lp5726
g3
(g7
S'\xfc\x81\x98\x97\x90\x90\xe7?'
p5727
tp5728
Rp5729
ag3
(g7
S'\x02|R\xb1L\xc1\xe8?'
p5730
tp5731
Rp5732
ag3
(g7
S'l-\x8c\x99\xa7\xcc\xe9?'
p5733
tp5734
Rp5735
asS'r_size:500\ne_prm:0.200000\ni_scl:0.200000\ns_scl:0.550000\nsp:0.100000\nreg:0.010000'
p5736
(lp5737
g3
(g7
S'[\x13\x84\xe62\x7f\xf0?'
p5738
tp5739
Rp5740
ag3
(g7
S'\xc8\xd3\x93\xf3\x8a,\xf0?'
p5741
tp5742
Rp5743
ag3
(g7
S'\x89\x17\rw\x18\n\xf0?'
p5744
tp5745
Rp5746
asS'r_size:500\ne_prm:0.200000\ni_scl:0.733333\ns_scl:0.433333\nsp:1.000000\nreg:0.010000'
p5747
(lp5748
g3
(g7
S'\x88\xf9\xc8\x8c>\x12\xf2?'
p5749
tp5750
Rp5751
ag3
(g7
S'\x12\xeaU\xcaC\xc1\xf2?'
p5752
tp5753
Rp5754
ag3
(g7
S'9\xf0\xedS\xb7\x14\xf1?'
p5755
tp5756
Rp5757
asS'r_size:750\ne_prm:0.200000\ni_scl:0.466667\ns_scl:0.550000\nsp:0.100000\nreg:0.010000'
p5758
(lp5759
g3
(g7
S'\\U\xe8\xae\xdc/\xf0?'
p5760
tp5761
Rp5762
ag3
(g7
S'\x17\x1e\xf2\xe8\xa7(\xf0?'
p5763
tp5764
Rp5765
ag3
(g7
S"{\xf9\xe2\xbe\\'\xf0?"
p5766
tp5767
Rp5768
asS'r_size:1000\ne_prm:0.200000\ni_scl:0.377778\ns_scl:0.550000\nsp:1.000000\nreg:0.010000'
p5769
(lp5770
g3
(g7
S'\t\xf5\x8fG;a\xf3?'
p5771
tp5772
Rp5773
ag3
(g7
S'l:\xa5\xef\xabJ\xf3?'
p5774
tp5775
Rp5776
ag3
(g7
S'\x7f\xfaJ\xd2\xcay\xf3?'
p5777
tp5778
Rp5779
asS'r_size:500\ne_prm:0.200000\ni_scl:0.911111\ns_scl:0.316667\nsp:1.000000\nreg:0.010000'
p5780
(lp5781
g3
(g7
S'\xd9\xcfy\xe2\xde\x07\xf2?'
p5782
tp5783
Rp5784
ag3
(g7
S'\x12\xa5\xebo\xb7\x17\xf3?'
p5785
tp5786
Rp5787
ag3
(g7
S'\x8d\xc3\xbc\xb7\x9c\xaf\xf2?'
p5788
tp5789
Rp5790
asS'r_size:1250\ne_prm:0.200000\ni_scl:0.377778\ns_scl:0.666667\nsp:0.500000\nreg:0.010000'
p5791
(lp5792
g3
(g7
S'&\xed\xa84,\xac\xf0?'
p5793
tp5794
Rp5795
ag3
(g7
S'E\x89Mq\x00\x03\xf0?'
p5796
tp5797
Rp5798
ag3
(g7
S'\xb3\x0c\xbe\xfbK\x9f\xf0?'
p5799
tp5800
Rp5801
asS'r_size:500\ne_prm:0.200000\ni_scl:0.377778\ns_scl:0.200000\nsp:0.500000\nreg:0.010000'
p5802
(lp5803
g3
(g7
S'\x0b\x9b\xd4\xab\x9e1\xf0?'
p5804
tp5805
Rp5806
ag3
(g7
S'\xe4\xef\xf0&d2\xf0?'
p5807
tp5808
Rp5809
ag3
(g7
S"\xf7?t\xfa\x8b'\xf0?"
p5810
tp5811
Rp5812
asS'r_size:750\ne_prm:0.200000\ni_scl:0.644444\ns_scl:0.433333\nsp:1.000000\nreg:0.010000'
p5813
(lp5814
g3
(g7
S'\xc1l\xc7\r\xfa\x1b\xf2?'
p5815
tp5816
Rp5817
ag3
(g7
S'\xeb\rk\xaa\xcf\x13\xf2?'
p5818
tp5819
Rp5820
ag3
(g7
S"`\xab'\xe3\xb79\xf2?"
p5821
tp5822
Rp5823
asS'r_size:1000\ne_prm:0.200000\ni_scl:0.466667\ns_scl:0.316667\nsp:1.000000\nreg:0.010000'
p5824
(lp5825
g3
(g7
S'T}!\xc8z\x85\xe8?'
p5826
tp5827
Rp5828
ag3
(g7
S')\\\x80\xca7_\xea?'
p5829
tp5830
Rp5831
ag3
(g7
S'd\x01\x15\xc99=\xea?'
p5832
tp5833
Rp5834
asS'r_size:1000\ne_prm:0.200000\ni_scl:0.644444\ns_scl:0.433333\nsp:0.500000\nreg:0.010000'
p5835
(lp5836
g3
(g7
S'\x12\xa1\xde\xaa\xd3\x13\xf1?'
p5837
tp5838
Rp5839
ag3
(g7
S'x5\x1bt\xd2\x1f\xf1?'
p5840
tp5841
Rp5842
ag3
(g7
S'\xf4\xaf\x99\x96\xe2\xfc\xf0?'
p5843
tp5844
Rp5845
asS'r_size:1000\ne_prm:0.200000\ni_scl:0.733333\ns_scl:0.433333\nsp:0.100000\nreg:0.010000'
p5846
(lp5847
g3
(g7
S'Zm\xde\x03\xd8?\xf2?'
p5848
tp5849
Rp5850
ag3
(g7
S'q\x05?[\x88S\xf0?'
p5851
tp5852
Rp5853
ag3
(g7
S'P\x90\x89_\x16C\xf0?'
p5854
tp5855
Rp5856
asS'r_size:1000\ne_prm:0.200000\ni_scl:0.377778\ns_scl:0.433333\nsp:1.000000\nreg:0.010000'
p5857
(lp5858
g3
(g7
S'\xa2=\x9f\x80\xcd[\xec?'
p5859
tp5860
Rp5861
ag3
(g7
S'\xf8#\x7f\x04\xc2K\xee?'
p5862
tp5863
Rp5864
ag3
(g7
S'D~\x92o~\x02\xef?'
p5865
tp5866
Rp5867
asS'r_size:1250\ne_prm:0.200000\ni_scl:0.288889\ns_scl:0.433333\nsp:0.100000\nreg:0.010000'
p5868
(lp5869
g3
(g7
S'J=\x022jt\xf0?'
p5870
tp5871
Rp5872
ag3
(g7
S'\xc5\xf3\xc3\x9c\xa1\x12\xf0?'
p5873
tp5874
Rp5875
ag3
(g7
S'H"\xf9\x1d,>\xf0?'
p5876
tp5877
Rp5878
asS'r_size:1000\ne_prm:0.200000\ni_scl:1.000000\ns_scl:0.433333\nsp:1.000000\nreg:0.010000'
p5879
(lp5880
g3
(g7
S'\xa7\xcc\tGR\xc9\xf2?'
p5881
tp5882
Rp5883
ag3
(g7
S'\xe9\xdfT\x92\x01I\xf3?'
p5884
tp5885
Rp5886
ag3
(g7
S'SS\x1b\xc5f`\xf2?'
p5887
tp5888
Rp5889
asS'r_size:1250\ne_prm:0.200000\ni_scl:0.911111\ns_scl:0.316667\nsp:0.100000\nreg:0.010000'
p5890
(lp5891
g3
(g7
S'\x15\x7f\xb3R\xa5s\xf0?'
p5892
tp5893
Rp5894
ag3
(g7
S'\x03\xfa\x00:xW\xf0?'
p5895
tp5896
Rp5897
ag3
(g7
S'\x1f\xa5\xc3\xc3\xcfU\xf0?'
p5898
tp5899
Rp5900
asS'r_size:1250\ne_prm:0.200000\ni_scl:0.911111\ns_scl:0.550000\nsp:1.000000\nreg:0.010000'
p5901
(lp5902
g3
(g7
S'\x0f\xeb\xdev\x1f\xe2\xf6?'
p5903
tp5904
Rp5905
ag3
(g7
S'\xd1!\xd8\xcbO\x98\xf6?'
p5906
tp5907
Rp5908
ag3
(g7
S'\x06q}Z\x95\xd8\xf6?'
p5909
tp5910
Rp5911
asS'r_size:750\ne_prm:0.200000\ni_scl:0.466667\ns_scl:0.316667\nsp:1.000000\nreg:0.010000'
p5912
(lp5913
g3
(g7
S'\xd9\xc48\xdb?\xd4\xec?'
p5914
tp5915
Rp5916
ag3
(g7
S'\xda\x96\x06k|\xb3\xec?'
p5917
tp5918
Rp5919
ag3
(g7
S'\xb7G\xd7\xa9\x94\x01\xed?'
p5920
tp5921
Rp5922
asS'r_size:750\ne_prm:0.200000\ni_scl:0.200000\ns_scl:0.316667\nsp:1.000000\nreg:0.010000'
p5923
(lp5924
g3
(g7
S'\xc0\xba)\x14\xf3W\xef?'
p5925
tp5926
Rp5927
ag3
(g7
S'\xe1\xb0\n\x0eY\xa0\xef?'
p5928
tp5929
Rp5930
ag3
(g7
S'=\x1dC#:c\xef?'
p5931
tp5932
Rp5933
as.