cnumpy.core.multiarray
_reconstruct
p0
(cnumpy
ndarray
p1
(I0
tp2
S'b'
p3
tp4
Rp5
(I1
(I3
tp6
cnumpy
dtype
p7
(S'f8'
p8
I0
I1
tp9
Rp10
(I3
S'<'
p11
NNNI-1
I-1
I0
tp12
bI00
S'\x06\x94\x12\xb2;\xce\xe7?L\x8b\xdb`.\xb6\xc1?6\xd4\xf2\x16\xfdB\xdb?'
p13
tp14
b.