cnumpy.core.multiarray
_reconstruct
p0
(cnumpy
ndarray
p1
(I0
tp2
S'b'
p3
tp4
Rp5
(I1
(I3
tp6
cnumpy
dtype
p7
(S'f8'
p8
I0
I1
tp9
Rp10
(I3
S'<'
p11
NNNI-1
I-1
I0
tp12
bI00
S'\x85\x9c\xbb~\xa8\xa8\xed?gr\xfe\xc8\xc8r\xee?(9\x95z\xef\xc5\xe6?'
p13
tp14
b.