((lp0
cnumpy.core.multiarray
scalar
p1
(cnumpy
dtype
p2
(S'f8'
p3
I0
I1
tp4
Rp5
(I3
S'<'
p6
NNNI-1
I-1
I0
tp7
bS'a\x9b=\xde\xec0\xe3\xbf'
p8
tp9
Rp10
a(lp11
g1
(g5
S'\x8d\xd0\x1a\xc4\xb1y\xd1\xbf'
p12
tp13
Rp14
atp15
.