(dp0
S'\n        num_res: 10\nres_sizes:[200 200 200 200 200 200 200 200 200 200]\necho_params:[0.84999999999999998, 0.81111111111111112, 0.77222222222222214, 0.73333333333333328, 0.69444444444444442, 0.65555555555555556, 0.6166666666666667, 0.57777777777777772, 0.53888888888888886, 0.5]\ninput_scales:[1.0, 0.91111111111111109, 0.82222222222222219, 0.73333333333333339, 0.64444444444444438, 0.55555555555555558, 0.46666666666666667, 0.37777777777777777, 0.28888888888888886, 0.20000000000000001]\nspectral_scales:[1.0, 1.0, 1.0, 1.0, 1.0, 1.0, 1.0, 1.0, 1.0, 1.0]\n        regulariser: 0.000100'
p1
(lp2
cnumpy.core.multiarray
scalar
p3
(cnumpy
dtype
p4
(S'f8'
p5
I0
I1
tp6
Rp7
(I3
S'<'
p8
NNNI-1
I-1
I0
tp9
bS'H\xd5\n\xc0y\xbc\xf5?'
p10
tp11
Rp12
ag3
(g7
S'*\xed\xb8\xaa\xd2w\xf0?'
p13
tp14
Rp15
ag3
(g7
S'\xa0\xc9Y"\xa0\xe9\xf3?'
p16
tp17
Rp18
asS'\n        num_res: 10\nres_sizes:[200 200 200 200 200 200 200 200 200 200]\necho_params:[0.84999999999999998, 0.81111111111111112, 0.77222222222222214, 0.73333333333333328, 0.69444444444444442, 0.65555555555555556, 0.6166666666666667, 0.57777777777777772, 0.53888888888888886, 0.5]\ninput_scales:[0.20000000000000001, 0.20000000000000001, 0.20000000000000001, 0.20000000000000001, 0.20000000000000001, 0.20000000000000001, 0.20000000000000001, 0.20000000000000001, 0.20000000000000001, 0.20000000000000001]\nspectral_scales:[0.5, 0.58333333333333337, 0.66666666666666663, 0.75, 0.83333333333333326, 0.91666666666666663, 1.0, 1.0833333333333333, 1.1666666666666665, 1.25]\n        regulariser: 0.001000'
p19
(lp20
g3
(g7
S'\x1b\x8f\xf3g\xa1\xfe\xe6?'
p21
tp22
Rp23
ag3
(g7
S'(\xc4\xecFwm\xf0?'
p24
tp25
Rp26
ag3
(g7
S'\xc4\xe4\x07\xc1{\xaf\xe9?'
p27
tp28
Rp29
asS'\n        num_res: 10\nres_sizes:[ 50  72  94 116 138 161 183 205 227 250]\necho_params:[0.84999999999999998, 0.81111111111111112, 0.77222222222222214, 0.73333333333333328, 0.69444444444444442, 0.65555555555555556, 0.6166666666666667, 0.57777777777777772, 0.53888888888888886, 0.5]\ninput_scales:[0.20000000000000001, 0.28888888888888892, 0.37777777777777777, 0.46666666666666667, 0.55555555555555558, 0.64444444444444449, 0.73333333333333339, 0.82222222222222219, 0.9111111111111112, 1.0]\nspectral_scales:[1.0, 1.0, 1.0, 1.0, 1.0, 1.0, 1.0, 1.0, 1.0, 1.0]\n        regulariser: 0.001000'
p30
(lp31
g3
(g7
S']8"\xdc\xb2L\xc6?'
p32
tp33
Rp34
ag3
(g7
S'\x95h\x84\xc9\xc9\xb9\xda?'
p35
tp36
Rp37
ag3
(g7
S'\xa3v\xb8v._\xce?'
p38
tp39
Rp40
asS'\n        num_res: 10\nres_sizes:[ 50  72  94 116 138 161 183 205 227 250]\necho_params:[0.84999999999999998, 0.81111111111111112, 0.77222222222222214, 0.73333333333333328, 0.69444444444444442, 0.65555555555555556, 0.6166666666666667, 0.57777777777777772, 0.53888888888888886, 0.5]\ninput_scales:[1.0, 0.91111111111111109, 0.82222222222222219, 0.73333333333333339, 0.64444444444444438, 0.55555555555555558, 0.46666666666666667, 0.37777777777777777, 0.28888888888888886, 0.20000000000000001]\nspectral_scales:[0.5, 0.58333333333333337, 0.66666666666666663, 0.75, 0.83333333333333326, 0.91666666666666663, 1.0, 1.0833333333333333, 1.1666666666666665, 1.25]\n        regulariser: 0.010000'
p41
(lp42
g3
(g7
S'R\xa5i`\x03\x95\xf0?'
p43
tp44
Rp45
ag3
(g7
S'\xe8\x1e\xc3\xcbGJ\xeb?'
p46
tp47
Rp48
ag3
(g7
S'M,\xf6-\xff\xa7\xea?'
p49
tp50
Rp51
asS'\n        num_res: 10\nres_sizes:[ 50  72  94 116 138 161 183 205 227 250]\necho_params:[0.84999999999999998, 0.81111111111111112, 0.77222222222222214, 0.73333333333333328, 0.69444444444444442, 0.65555555555555556, 0.6166666666666667, 0.57777777777777772, 0.53888888888888886, 0.5]\ninput_scales:[0.20000000000000001, 0.20000000000000001, 0.20000000000000001, 0.20000000000000001, 0.20000000000000001, 0.20000000000000001, 0.20000000000000001, 0.20000000000000001, 0.20000000000000001, 0.20000000000000001]\nspectral_scales:[0.90000000000000002, 0.87777777777777777, 0.85555555555555551, 0.83333333333333337, 0.81111111111111112, 0.78888888888888886, 0.76666666666666661, 0.74444444444444446, 0.72222222222222221, 0.69999999999999996]\n        regulariser: 0.010000'
p52
(lp53
g3
(g7
S'\x92C\xc1\xadf\x17\xf8?'
p54
tp55
Rp56
ag3
(g7
S'\xa4\x02\xcd|\x11\xd9\xf4?'
p57
tp58
Rp59
ag3
(g7
S'\xda\xb4\xf6\\\xb8X\x91G'
p60
tp61
Rp62
asS'\n        num_res: 10\nres_sizes:[100 111 122 133 144 155 166 177 188 200]\necho_params:[0.84999999999999998, 0.81111111111111112, 0.77222222222222214, 0.73333333333333328, 0.69444444444444442, 0.65555555555555556, 0.6166666666666667, 0.57777777777777772, 0.53888888888888886, 0.5]\ninput_scales:[0.5, 0.5, 0.5, 0.5, 0.5, 0.5, 0.5, 0.5, 0.5, 0.5]\nspectral_scales:[0.90000000000000002, 0.93888888888888888, 0.97777777777777786, 1.0166666666666666, 1.0555555555555556, 1.0944444444444446, 1.1333333333333333, 1.1722222222222223, 1.2111111111111112, 1.25]\n        regulariser: 0.000100'
p63
(lp64
g3
(g7
S'\x88\xea9\x13\xc3\xce\xdd?'
p65
tp66
Rp67
ag3
(g7
S"'+\x95gD\xf3\xe4?"
p68
tp69
Rp70
ag3
(g7
S'i}\xcd\x1b\xd6\xce\xb7?'
p71
tp72
Rp73
asS'\n        num_res: 10\nres_sizes:[100 111 122 133 144 155 166 177 188 200]\necho_params:[0.84999999999999998, 0.81111111111111112, 0.77222222222222214, 0.73333333333333328, 0.69444444444444442, 0.65555555555555556, 0.6166666666666667, 0.57777777777777772, 0.53888888888888886, 0.5]\ninput_scales:[1.0, 0.91111111111111109, 0.82222222222222219, 0.73333333333333339, 0.64444444444444438, 0.55555555555555558, 0.46666666666666667, 0.37777777777777777, 0.28888888888888886, 0.20000000000000001]\nspectral_scales:[0.90000000000000002, 0.87777777777777777, 0.85555555555555551, 0.83333333333333337, 0.81111111111111112, 0.78888888888888886, 0.76666666666666661, 0.74444444444444446, 0.72222222222222221, 0.69999999999999996]\n        regulariser: 0.001000'
p74
(lp75
g3
(g7
S'ST\x1d;\xbe\xbd\xe7?'
p76
tp77
Rp78
ag3
(g7
S'\xfe\xbb\xc2{gI\xf4?'
p79
tp80
Rp81
ag3
(g7
S'\x84\xf6\x7f\xfa\xce\xe3\xe3?'
p82
tp83
Rp84
asS'\n        num_res: 10\nres_sizes:[100 111 122 133 144 155 166 177 188 200]\necho_params:[0.84999999999999998, 0.81111111111111112, 0.77222222222222214, 0.73333333333333328, 0.69444444444444442, 0.65555555555555556, 0.6166666666666667, 0.57777777777777772, 0.53888888888888886, 0.5]\ninput_scales:[0.20000000000000001, 0.20000000000000001, 0.20000000000000001, 0.20000000000000001, 0.20000000000000001, 0.20000000000000001, 0.20000000000000001, 0.20000000000000001, 0.20000000000000001, 0.20000000000000001]\nspectral_scales:[0.5, 0.58333333333333337, 0.66666666666666663, 0.75, 0.83333333333333326, 0.91666666666666663, 1.0, 1.0833333333333333, 1.1666666666666665, 1.25]\n        regulariser: 0.010000'
p85
(lp86
g3
(g7
S'\xbdAl\xaf<\x7f\xf2?'
p87
tp88
Rp89
ag3
(g7
S'\x9e\xc3\xed\x93\xe4\xdb\xf4?'
p90
tp91
Rp92
ag3
(g7
S'[\x11O\xe1\xd0\xe2\xe2?'
p93
tp94
Rp95
asS'\n        num_res: 10\nres_sizes:[200 200 200 200 200 200 200 200 200 200]\necho_params:[0.84999999999999998, 0.81111111111111112, 0.77222222222222214, 0.73333333333333328, 0.69444444444444442, 0.65555555555555556, 0.6166666666666667, 0.57777777777777772, 0.53888888888888886, 0.5]\ninput_scales:[1.0, 0.91111111111111109, 0.82222222222222219, 0.73333333333333339, 0.64444444444444438, 0.55555555555555558, 0.46666666666666667, 0.37777777777777777, 0.28888888888888886, 0.20000000000000001]\nspectral_scales:[0.90000000000000002, 0.93888888888888888, 0.97777777777777786, 1.0166666666666666, 1.0555555555555556, 1.0944444444444446, 1.1333333333333333, 1.1722222222222223, 1.2111111111111112, 1.25]\n        regulariser: 0.010000'
p96
(lp97
g3
(g7
S'\xae\x92\xb7\x00$\xbf\xf2?'
p98
tp99
Rp100
ag3
(g7
S'r\xde\x11\xf0\xaa\xe0\xf4?'
p101
tp102
Rp103
ag3
(g7
S'\x9fV\xf3Kj\x80\xee?'
p104
tp105
Rp106
asS'\n        num_res: 10\nres_sizes:[ 50  72  94 116 138 161 183 205 227 250]\necho_params:[0.84999999999999998, 0.81111111111111112, 0.77222222222222214, 0.73333333333333328, 0.69444444444444442, 0.65555555555555556, 0.6166666666666667, 0.57777777777777772, 0.53888888888888886, 0.5]\ninput_scales:[0.5, 0.5, 0.5, 0.5, 0.5, 0.5, 0.5, 0.5, 0.5, 0.5]\nspectral_scales:[0.5, 0.58333333333333337, 0.66666666666666663, 0.75, 0.83333333333333326, 0.91666666666666663, 1.0, 1.0833333333333333, 1.1666666666666665, 1.25]\n        regulariser: 0.010000'
p107
(lp108
g3
(g7
S'\xa0+\x1e\xd1\xc4\xf9\xe3?'
p109
tp110
Rp111
ag3
(g7
S'I,`\xe9\xe9\x01\xd9?'
p112
tp113
Rp114
ag3
(g7
S'qAJ\xbdX\xe1\xe1?'
p115
tp116
Rp117
asS'\n        num_res: 10\nres_sizes:[ 50  72  94 116 138 161 183 205 227 250]\necho_params:[0.84999999999999998, 0.81111111111111112, 0.77222222222222214, 0.73333333333333328, 0.69444444444444442, 0.65555555555555556, 0.6166666666666667, 0.57777777777777772, 0.53888888888888886, 0.5]\ninput_scales:[0.20000000000000001, 0.20000000000000001, 0.20000000000000001, 0.20000000000000001, 0.20000000000000001, 0.20000000000000001, 0.20000000000000001, 0.20000000000000001, 0.20000000000000001, 0.20000000000000001]\nspectral_scales:[0.90000000000000002, 0.93888888888888888, 0.97777777777777786, 1.0166666666666666, 1.0555555555555556, 1.0944444444444446, 1.1333333333333333, 1.1722222222222223, 1.2111111111111112, 1.25]\n        regulariser: 0.001000'
p118
(lp119
g3
(g7
S'\x15\x83}S\xea9\xe5?'
p120
tp121
Rp122
ag3
(g7
S'\x90\x80\xd7\x14\x98+\xef?'
p123
tp124
Rp125
ag3
(g7
S'\xfc\xbe\x1e\xcc\xec\x1c\xea?'
p126
tp127
Rp128
asS'\n        num_res: 10\nres_sizes:[ 50  72  94 116 138 161 183 205 227 250]\necho_params:[0.84999999999999998, 0.81111111111111112, 0.77222222222222214, 0.73333333333333328, 0.69444444444444442, 0.65555555555555556, 0.6166666666666667, 0.57777777777777772, 0.53888888888888886, 0.5]\ninput_scales:[0.5, 0.5, 0.5, 0.5, 0.5, 0.5, 0.5, 0.5, 0.5, 0.5]\nspectral_scales:[1.0, 1.0, 1.0, 1.0, 1.0, 1.0, 1.0, 1.0, 1.0, 1.0]\n        regulariser: 0.001000'
p129
(lp130
g3
(g7
S'\xd2O\xfa\xc4\xed\x90\xe0?'
p131
tp132
Rp133
ag3
(g7
S'\xac\xcd\x18\xb4\xeaA\xd9?'
p134
tp135
Rp136
ag3
(g7
S'\xf9\x06nH\xf0\x1d\xd9?'
p137
tp138
Rp139
asS'\n        num_res: 10\nres_sizes:[ 50  72  94 116 138 161 183 205 227 250]\necho_params:[0.84999999999999998, 0.81111111111111112, 0.77222222222222214, 0.73333333333333328, 0.69444444444444442, 0.65555555555555556, 0.6166666666666667, 0.57777777777777772, 0.53888888888888886, 0.5]\ninput_scales:[0.20000000000000001, 0.20000000000000001, 0.20000000000000001, 0.20000000000000001, 0.20000000000000001, 0.20000000000000001, 0.20000000000000001, 0.20000000000000001, 0.20000000000000001, 0.20000000000000001]\nspectral_scales:[0.90000000000000002, 0.93888888888888888, 0.97777777777777786, 1.0166666666666666, 1.0555555555555556, 1.0944444444444446, 1.1333333333333333, 1.1722222222222223, 1.2111111111111112, 1.25]\n        regulariser: 0.010000'
p140
(lp141
g3
(g7
S'\xd2B\x126\x9b:\xee?'
p142
tp143
Rp144
ag3
(g7
S'T\x12j\xa3\xb2\xf6\xdc?'
p145
tp146
Rp147
ag3
(g7
S'\x87M*\xfcM4\xeb?'
p148
tp149
Rp150
asS'\n        num_res: 10\nres_sizes:[200 200 200 200 200 200 200 200 200 200]\necho_params:[0.84999999999999998, 0.81111111111111112, 0.77222222222222214, 0.73333333333333328, 0.69444444444444442, 0.65555555555555556, 0.6166666666666667, 0.57777777777777772, 0.53888888888888886, 0.5]\ninput_scales:[0.20000000000000001, 0.28888888888888892, 0.37777777777777777, 0.46666666666666667, 0.55555555555555558, 0.64444444444444449, 0.73333333333333339, 0.82222222222222219, 0.9111111111111112, 1.0]\nspectral_scales:[1.0, 1.0, 1.0, 1.0, 1.0, 1.0, 1.0, 1.0, 1.0, 1.0]\n        regulariser: 0.010000'
p151
(lp152
g3
(g7
S'\x919\xb2\xc3c\x90\xd9?'
p153
tp154
Rp155
ag3
(g7
S'\xedH\x19\xf8\xbd\xb1\xe7?'
p156
tp157
Rp158
ag3
(g7
S'\xe1\xd7\xa8s\x11\x14\xe7?'
p159
tp160
Rp161
asS'\n        num_res: 10\nres_sizes:[100 111 122 133 144 155 166 177 188 200]\necho_params:[0.84999999999999998, 0.81111111111111112, 0.77222222222222214, 0.73333333333333328, 0.69444444444444442, 0.65555555555555556, 0.6166666666666667, 0.57777777777777772, 0.53888888888888886, 0.5]\ninput_scales:[0.20000000000000001, 0.28888888888888892, 0.37777777777777777, 0.46666666666666667, 0.55555555555555558, 0.64444444444444449, 0.73333333333333339, 0.82222222222222219, 0.9111111111111112, 1.0]\nspectral_scales:[0.5, 0.58333333333333337, 0.66666666666666663, 0.75, 0.83333333333333326, 0.91666666666666663, 1.0, 1.0833333333333333, 1.1666666666666665, 1.25]\n        regulariser: 0.001000'
p162
(lp163
g3
(g7
S'\x9b\xa6E$\xb1l\xe8?'
p164
tp165
Rp166
ag3
(g7
S'@\xef\x91\xe6\xbd\x8f\xeb?'
p167
tp168
Rp169
ag3
(g7
S';\x0fT#\xfa\x15\xd5?'
p170
tp171
Rp172
asS'\n        num_res: 10\nres_sizes:[ 50  72  94 116 138 161 183 205 227 250]\necho_params:[0.84999999999999998, 0.81111111111111112, 0.77222222222222214, 0.73333333333333328, 0.69444444444444442, 0.65555555555555556, 0.6166666666666667, 0.57777777777777772, 0.53888888888888886, 0.5]\ninput_scales:[0.20000000000000001, 0.28888888888888892, 0.37777777777777777, 0.46666666666666667, 0.55555555555555558, 0.64444444444444449, 0.73333333333333339, 0.82222222222222219, 0.9111111111111112, 1.0]\nspectral_scales:[0.90000000000000002, 0.93888888888888888, 0.97777777777777786, 1.0166666666666666, 1.0555555555555556, 1.0944444444444446, 1.1333333333333333, 1.1722222222222223, 1.2111111111111112, 1.25]\n        regulariser: 0.000100'
p173
(lp174
g3
(g7
S'\x7fylJ\xd7#\xe0?'
p175
tp176
Rp177
ag3
(g7
S'\x91\xedX\xe1 \xcb\xda?'
p178
tp179
Rp180
ag3
(g7
S'\xab\x17\xfa<\xcd\xd8\xe4?'
p181
tp182
Rp183
asS'\n        num_res: 10\nres_sizes:[100 111 122 133 144 155 166 177 188 200]\necho_params:[0.84999999999999998, 0.81111111111111112, 0.77222222222222214, 0.73333333333333328, 0.69444444444444442, 0.65555555555555556, 0.6166666666666667, 0.57777777777777772, 0.53888888888888886, 0.5]\ninput_scales:[1.0, 0.91111111111111109, 0.82222222222222219, 0.73333333333333339, 0.64444444444444438, 0.55555555555555558, 0.46666666666666667, 0.37777777777777777, 0.28888888888888886, 0.20000000000000001]\nspectral_scales:[0.90000000000000002, 0.87777777777777777, 0.85555555555555551, 0.83333333333333337, 0.81111111111111112, 0.78888888888888886, 0.76666666666666661, 0.74444444444444446, 0.72222222222222221, 0.69999999999999996]\n        regulariser: 0.000100'
p184
(lp185
g3
(g7
S'"\n\xad\xc5j\x8f\xf1?'
p186
tp187
Rp188
ag3
(g7
S'\xd4b\x08\x9c\xa5\x84\xf1?'
p189
tp190
Rp191
ag3
(g7
S'\x83\x8f\xdc)\x9dI\x03@'
p192
tp193
Rp194
asS'\n        num_res: 10\nres_sizes:[100 111 122 133 144 155 166 177 188 200]\necho_params:[0.84999999999999998, 0.81111111111111112, 0.77222222222222214, 0.73333333333333328, 0.69444444444444442, 0.65555555555555556, 0.6166666666666667, 0.57777777777777772, 0.53888888888888886, 0.5]\ninput_scales:[0.20000000000000001, 0.28888888888888892, 0.37777777777777777, 0.46666666666666667, 0.55555555555555558, 0.64444444444444449, 0.73333333333333339, 0.82222222222222219, 0.9111111111111112, 1.0]\nspectral_scales:[0.90000000000000002, 0.93888888888888888, 0.97777777777777786, 1.0166666666666666, 1.0555555555555556, 1.0944444444444446, 1.1333333333333333, 1.1722222222222223, 1.2111111111111112, 1.25]\n        regulariser: 0.010000'
p195
(lp196
g3
(g7
S'\xce\xad\xb0\x85\x99\x18\xdc?'
p197
tp198
Rp199
ag3
(g7
S'b\xb2Vs\x99p\xe7?'
p200
tp201
Rp202
ag3
(g7
S'H\xf8M{Mi\xea?'
p203
tp204
Rp205
asS'\n        num_res: 10\nres_sizes:[100 111 122 133 144 155 166 177 188 200]\necho_params:[0.84999999999999998, 0.81111111111111112, 0.77222222222222214, 0.73333333333333328, 0.69444444444444442, 0.65555555555555556, 0.6166666666666667, 0.57777777777777772, 0.53888888888888886, 0.5]\ninput_scales:[0.5, 0.5, 0.5, 0.5, 0.5, 0.5, 0.5, 0.5, 0.5, 0.5]\nspectral_scales:[1.0, 1.0, 1.0, 1.0, 1.0, 1.0, 1.0, 1.0, 1.0, 1.0]\n        regulariser: 0.000100'
p206
(lp207
g3
(g7
S'\xf0\x1f\x86\x9en\x15\xa8?'
p208
tp209
Rp210
ag3
(g7
S'j\xd6\xeb\x90\xfd\xf5\xe4?'
p211
tp212
Rp213
ag3
(g7
S'\xffZt\xda\x92b\xe8?'
p214
tp215
Rp216
asS'\n        num_res: 10\nres_sizes:[200 200 200 200 200 200 200 200 200 200]\necho_params:[0.84999999999999998, 0.81111111111111112, 0.77222222222222214, 0.73333333333333328, 0.69444444444444442, 0.65555555555555556, 0.6166666666666667, 0.57777777777777772, 0.53888888888888886, 0.5]\ninput_scales:[0.20000000000000001, 0.28888888888888892, 0.37777777777777777, 0.46666666666666667, 0.55555555555555558, 0.64444444444444449, 0.73333333333333339, 0.82222222222222219, 0.9111111111111112, 1.0]\nspectral_scales:[1.0, 1.0, 1.0, 1.0, 1.0, 1.0, 1.0, 1.0, 1.0, 1.0]\n        regulariser: 0.001000'
p217
(lp218
g3
(g7
S'w\xa3\xa6\x12\x11\xdc\xde?'
p219
tp220
Rp221
ag3
(g7
S'?\xc4\xe9\xea\xfa\x04\xda?'
p222
tp223
Rp224
ag3
(g7
S'H\x07\xf8\r\x02O\xdc?'
p225
tp226
Rp227
asS'\n        num_res: 10\nres_sizes:[ 50  72  94 116 138 161 183 205 227 250]\necho_params:[0.84999999999999998, 0.81111111111111112, 0.77222222222222214, 0.73333333333333328, 0.69444444444444442, 0.65555555555555556, 0.6166666666666667, 0.57777777777777772, 0.53888888888888886, 0.5]\ninput_scales:[0.20000000000000001, 0.20000000000000001, 0.20000000000000001, 0.20000000000000001, 0.20000000000000001, 0.20000000000000001, 0.20000000000000001, 0.20000000000000001, 0.20000000000000001, 0.20000000000000001]\nspectral_scales:[1.0, 1.0, 1.0, 1.0, 1.0, 1.0, 1.0, 1.0, 1.0, 1.0]\n        regulariser: 0.010000'
p228
(lp229
g3
(g7
S'\x8f\xe1\xf8\xcf9\xc8\xf2?'
p230
tp231
Rp232
ag3
(g7
S'\x8e\x8d\xc9\x18\xf9{\xdb?'
p233
tp234
Rp235
ag3
(g7
S'L\xc4y\xa5$\xc0\xd9?'
p236
tp237
Rp238
asS'\n        num_res: 10\nres_sizes:[200 200 200 200 200 200 200 200 200 200]\necho_params:[0.84999999999999998, 0.84999999999999998, 0.84999999999999998, 0.84999999999999998, 0.84999999999999998, 0.84999999999999998, 0.84999999999999998, 0.84999999999999998, 0.84999999999999998, 0.84999999999999998]\ninput_scales:[0.5, 0.5, 0.5, 0.5, 0.5, 0.5, 0.5, 0.5, 0.5, 0.5]\nspectral_scales:[0.90000000000000002, 0.87777777777777777, 0.85555555555555551, 0.83333333333333337, 0.81111111111111112, 0.78888888888888886, 0.76666666666666661, 0.74444444444444446, 0.72222222222222221, 0.69999999999999996]\n        regulariser: 0.010000'
p239
(lp240
g3
(g7
S'\xcd\xf3\xe4\x83\x1a\x14\x12@'
p241
tp242
Rp243
ag3
(g7
S'\x9e\xc4$\xda\xe7\xea\xff?'
p244
tp245
Rp246
ag3
(g7
S'sQ\x9f9\xef,\xf7?'
p247
tp248
Rp249
asS'\n        num_res: 10\nres_sizes:[200 200 200 200 200 200 200 200 200 200]\necho_params:[0.84999999999999998, 0.81111111111111112, 0.77222222222222214, 0.73333333333333328, 0.69444444444444442, 0.65555555555555556, 0.6166666666666667, 0.57777777777777772, 0.53888888888888886, 0.5]\ninput_scales:[0.20000000000000001, 0.28888888888888892, 0.37777777777777777, 0.46666666666666667, 0.55555555555555558, 0.64444444444444449, 0.73333333333333339, 0.82222222222222219, 0.9111111111111112, 1.0]\nspectral_scales:[0.5, 0.58333333333333337, 0.66666666666666663, 0.75, 0.83333333333333326, 0.91666666666666663, 1.0, 1.0833333333333333, 1.1666666666666665, 1.25]\n        regulariser: 0.000100'
p250
(lp251
g3
(g7
S'%w\x0e\xf9\x98\xc1\xe5?'
p252
tp253
Rp254
ag3
(g7
S'\xe9\x97\x02y\xf3\xa97@'
p255
tp256
Rp257
ag3
(g7
S'\x07^P\x1c!\xa7\xee?'
p258
tp259
Rp260
asS'\n        num_res: 10\nres_sizes:[ 50  72  94 116 138 161 183 205 227 250]\necho_params:[0.84999999999999998, 0.81111111111111112, 0.77222222222222214, 0.73333333333333328, 0.69444444444444442, 0.65555555555555556, 0.6166666666666667, 0.57777777777777772, 0.53888888888888886, 0.5]\ninput_scales:[0.5, 0.5, 0.5, 0.5, 0.5, 0.5, 0.5, 0.5, 0.5, 0.5]\nspectral_scales:[0.90000000000000002, 0.93888888888888888, 0.97777777777777786, 1.0166666666666666, 1.0555555555555556, 1.0944444444444446, 1.1333333333333333, 1.1722222222222223, 1.2111111111111112, 1.25]\n        regulariser: 0.000100'
p261
(lp262
g3
(g7
S'|\x96\xe5\x0e\x99\xc9\xe6?'
p263
tp264
Rp265
ag3
(g7
S'\x17n\x842|\xfb\xdc?'
p266
tp267
Rp268
ag3
(g7
S'h,\x80\x1ay\x00\xda?'
p269
tp270
Rp271
asS'\n        num_res: 10\nres_sizes:[ 50  72  94 116 138 161 183 205 227 250]\necho_params:[0.84999999999999998, 0.81111111111111112, 0.77222222222222214, 0.73333333333333328, 0.69444444444444442, 0.65555555555555556, 0.6166666666666667, 0.57777777777777772, 0.53888888888888886, 0.5]\ninput_scales:[0.5, 0.5, 0.5, 0.5, 0.5, 0.5, 0.5, 0.5, 0.5, 0.5]\nspectral_scales:[1.0, 1.0, 1.0, 1.0, 1.0, 1.0, 1.0, 1.0, 1.0, 1.0]\n        regulariser: 0.000100'
p272
(lp273
g3
(g7
S'\x96.\xfe\x98\xe3\xd9\xdc?'
p274
tp275
Rp276
ag3
(g7
S'9,.\x07s\xb8\xde?'
p277
tp278
Rp279
ag3
(g7
S'\xb6\x12\xe8\x05\x07[\xe1?'
p280
tp281
Rp282
asS'\n        num_res: 10\nres_sizes:[200 200 200 200 200 200 200 200 200 200]\necho_params:[0.84999999999999998, 0.81111111111111112, 0.77222222222222214, 0.73333333333333328, 0.69444444444444442, 0.65555555555555556, 0.6166666666666667, 0.57777777777777772, 0.53888888888888886, 0.5]\ninput_scales:[1.0, 0.91111111111111109, 0.82222222222222219, 0.73333333333333339, 0.64444444444444438, 0.55555555555555558, 0.46666666666666667, 0.37777777777777777, 0.28888888888888886, 0.20000000000000001]\nspectral_scales:[0.5, 0.58333333333333337, 0.66666666666666663, 0.75, 0.83333333333333326, 0.91666666666666663, 1.0, 1.0833333333333333, 1.1666666666666665, 1.25]\n        regulariser: 0.010000'
p283
(lp284
g3
(g7
S'\xa2\xfe\x9f\x9a0\xaa\xf6?'
p285
tp286
Rp287
ag3
(g7
S'\xac\x1cu\xd5C\xf3\xf3?'
p288
tp289
Rp290
ag3
(g7
S'\xec\xceu\xbaL\xc8\xe7?'
p291
tp292
Rp293
asS'\n        num_res: 10\nres_sizes:[100 111 122 133 144 155 166 177 188 200]\necho_params:[0.84999999999999998, 0.81111111111111112, 0.77222222222222214, 0.73333333333333328, 0.69444444444444442, 0.65555555555555556, 0.6166666666666667, 0.57777777777777772, 0.53888888888888886, 0.5]\ninput_scales:[0.20000000000000001, 0.28888888888888892, 0.37777777777777777, 0.46666666666666667, 0.55555555555555558, 0.64444444444444449, 0.73333333333333339, 0.82222222222222219, 0.9111111111111112, 1.0]\nspectral_scales:[0.90000000000000002, 0.87777777777777777, 0.85555555555555551, 0.83333333333333337, 0.81111111111111112, 0.78888888888888886, 0.76666666666666661, 0.74444444444444446, 0.72222222222222221, 0.69999999999999996]\n        regulariser: 0.001000'
p294
(lp295
g3
(g7
S'\xf2\x85\xc0Q\x8c\x89\xd9?'
p296
tp297
Rp298
ag3
(g7
S'\xdf\xe0s\xa1)\xa0\xde?'
p299
tp300
Rp301
ag3
(g7
S'q$c&O\x99\xee?'
p302
tp303
Rp304
asS'\n        num_res: 10\nres_sizes:[200 200 200 200 200 200 200 200 200 200]\necho_params:[0.84999999999999998, 0.81111111111111112, 0.77222222222222214, 0.73333333333333328, 0.69444444444444442, 0.65555555555555556, 0.6166666666666667, 0.57777777777777772, 0.53888888888888886, 0.5]\ninput_scales:[0.20000000000000001, 0.20000000000000001, 0.20000000000000001, 0.20000000000000001, 0.20000000000000001, 0.20000000000000001, 0.20000000000000001, 0.20000000000000001, 0.20000000000000001, 0.20000000000000001]\nspectral_scales:[0.90000000000000002, 0.93888888888888888, 0.97777777777777786, 1.0166666666666666, 1.0555555555555556, 1.0944444444444446, 1.1333333333333333, 1.1722222222222223, 1.2111111111111112, 1.25]\n        regulariser: 0.001000'
p305
(lp306
g3
(g7
S'\x8e\xd0I\xb2+ \xda?'
p307
tp308
Rp309
ag3
(g7
S'qH[f\xc87\xdc?'
p310
tp311
Rp312
ag3
(g7
S'\x16\xd3\xae\x9d7\xef\xc6?'
p313
tp314
Rp315
asS'\n        num_res: 10\nres_sizes:[ 50  72  94 116 138 161 183 205 227 250]\necho_params:[0.84999999999999998, 0.81111111111111112, 0.77222222222222214, 0.73333333333333328, 0.69444444444444442, 0.65555555555555556, 0.6166666666666667, 0.57777777777777772, 0.53888888888888886, 0.5]\ninput_scales:[0.5, 0.5, 0.5, 0.5, 0.5, 0.5, 0.5, 0.5, 0.5, 0.5]\nspectral_scales:[0.90000000000000002, 0.87777777777777777, 0.85555555555555551, 0.83333333333333337, 0.81111111111111112, 0.78888888888888886, 0.76666666666666661, 0.74444444444444446, 0.72222222222222221, 0.69999999999999996]\n        regulariser: 0.010000'
p316
(lp317
g3
(g7
S'\xf2+\x93-Z)\xc3?'
p318
tp319
Rp320
ag3
(g7
S'\xd5B\xc7\xc6K\xee\xd1?'
p321
tp322
Rp323
ag3
(g7
S'\x04\x89\xc6\xcb\x80,\xd1?'
p324
tp325
Rp326
asS'\n        num_res: 10\nres_sizes:[ 50  72  94 116 138 161 183 205 227 250]\necho_params:[0.84999999999999998, 0.81111111111111112, 0.77222222222222214, 0.73333333333333328, 0.69444444444444442, 0.65555555555555556, 0.6166666666666667, 0.57777777777777772, 0.53888888888888886, 0.5]\ninput_scales:[0.20000000000000001, 0.20000000000000001, 0.20000000000000001, 0.20000000000000001, 0.20000000000000001, 0.20000000000000001, 0.20000000000000001, 0.20000000000000001, 0.20000000000000001, 0.20000000000000001]\nspectral_scales:[1.0, 1.0, 1.0, 1.0, 1.0, 1.0, 1.0, 1.0, 1.0, 1.0]\n        regulariser: 0.000100'
p327
(lp328
g3
(g7
S'2\n\xb9E\xdb=\xd8?'
p329
tp330
Rp331
ag3
(g7
S'\xeb\x11/T\xef\x13\xd6I'
p332
tp333
Rp334
ag3
(g7
S'S\xc6\x8443\x94\xdd?'
p335
tp336
Rp337
asS'\n        num_res: 10\nres_sizes:[100 111 122 133 144 155 166 177 188 200]\necho_params:[0.84999999999999998, 0.81111111111111112, 0.77222222222222214, 0.73333333333333328, 0.69444444444444442, 0.65555555555555556, 0.6166666666666667, 0.57777777777777772, 0.53888888888888886, 0.5]\ninput_scales:[0.5, 0.5, 0.5, 0.5, 0.5, 0.5, 0.5, 0.5, 0.5, 0.5]\nspectral_scales:[0.5, 0.58333333333333337, 0.66666666666666663, 0.75, 0.83333333333333326, 0.91666666666666663, 1.0, 1.0833333333333333, 1.1666666666666665, 1.25]\n        regulariser: 0.000100'
p338
(lp339
g3
(g7
S'(\xcbF\xd2\xe4\xa4\xde?'
p340
tp341
Rp342
ag3
(g7
S'\xbf\x04\x02\xa8\x07\x9e\xc4?'
p343
tp344
Rp345
ag3
(g7
S'\xf0\x98\xb4\xa5\x9b(\xeb?'
p346
tp347
Rp348
asS'\n        num_res: 10\nres_sizes:[ 50  72  94 116 138 161 183 205 227 250]\necho_params:[0.84999999999999998, 0.81111111111111112, 0.77222222222222214, 0.73333333333333328, 0.69444444444444442, 0.65555555555555556, 0.6166666666666667, 0.57777777777777772, 0.53888888888888886, 0.5]\ninput_scales:[1.0, 0.91111111111111109, 0.82222222222222219, 0.73333333333333339, 0.64444444444444438, 0.55555555555555558, 0.46666666666666667, 0.37777777777777777, 0.28888888888888886, 0.20000000000000001]\nspectral_scales:[1.0, 1.0, 1.0, 1.0, 1.0, 1.0, 1.0, 1.0, 1.0, 1.0]\n        regulariser: 0.000100'
p349
(lp350
g3
(g7
S"B:\xff'\x9a\xf7\xe5?"
p351
tp352
Rp353
ag3
(g7
S'%_\x1c6\xd8\x06\xd9?'
p354
tp355
Rp356
ag3
(g7
S'\x91U\xbe`H\x1f\xf4?'
p357
tp358
Rp359
asS'\n        num_res: 10\nres_sizes:[ 50  72  94 116 138 161 183 205 227 250]\necho_params:[0.84999999999999998, 0.81111111111111112, 0.77222222222222214, 0.73333333333333328, 0.69444444444444442, 0.65555555555555556, 0.6166666666666667, 0.57777777777777772, 0.53888888888888886, 0.5]\ninput_scales:[1.0, 0.91111111111111109, 0.82222222222222219, 0.73333333333333339, 0.64444444444444438, 0.55555555555555558, 0.46666666666666667, 0.37777777777777777, 0.28888888888888886, 0.20000000000000001]\nspectral_scales:[0.5, 0.58333333333333337, 0.66666666666666663, 0.75, 0.83333333333333326, 0.91666666666666663, 1.0, 1.0833333333333333, 1.1666666666666665, 1.25]\n        regulariser: 0.001000'
p360
(lp361
g3
(g7
S'v\x0c\xb9\xc5\xb9\xe2\xe7?'
p362
tp363
Rp364
ag3
(g7
S'\xb4C\x91\x9a\xe4\xc4\xe0?'
p365
tp366
Rp367
ag3
(g7
S'\x99  7\xfb\xc7\xd9?'
p368
tp369
Rp370
asS'\n        num_res: 10\nres_sizes:[200 200 200 200 200 200 200 200 200 200]\necho_params:[0.84999999999999998, 0.81111111111111112, 0.77222222222222214, 0.73333333333333328, 0.69444444444444442, 0.65555555555555556, 0.6166666666666667, 0.57777777777777772, 0.53888888888888886, 0.5]\ninput_scales:[0.5, 0.5, 0.5, 0.5, 0.5, 0.5, 0.5, 0.5, 0.5, 0.5]\nspectral_scales:[0.90000000000000002, 0.87777777777777777, 0.85555555555555551, 0.83333333333333337, 0.81111111111111112, 0.78888888888888886, 0.76666666666666661, 0.74444444444444446, 0.72222222222222221, 0.69999999999999996]\n        regulariser: 0.000100'
p371
(lp372
g3
(g7
S'\x9f\x02\xc5\xd552\xe2?'
p373
tp374
Rp375
ag3
(g7
S'\t\t]\xa2\xb0[\xe0?'
p376
tp377
Rp378
ag3
(g7
S'YK{\x0c\xe8J @'
p379
tp380
Rp381
asS'\n        num_res: 10\nres_sizes:[ 50  72  94 116 138 161 183 205 227 250]\necho_params:[0.84999999999999998, 0.81111111111111112, 0.77222222222222214, 0.73333333333333328, 0.69444444444444442, 0.65555555555555556, 0.6166666666666667, 0.57777777777777772, 0.53888888888888886, 0.5]\ninput_scales:[0.20000000000000001, 0.28888888888888892, 0.37777777777777777, 0.46666666666666667, 0.55555555555555558, 0.64444444444444449, 0.73333333333333339, 0.82222222222222219, 0.9111111111111112, 1.0]\nspectral_scales:[0.5, 0.58333333333333337, 0.66666666666666663, 0.75, 0.83333333333333326, 0.91666666666666663, 1.0, 1.0833333333333333, 1.1666666666666665, 1.25]\n        regulariser: 0.001000'
p382
(lp383
g3
(g7
S'\xbe\xdf\x9bmS\xf6\xda?'
p384
tp385
Rp386
ag3
(g7
S',\x1f\x8c\x0c\xb8W\xec?'
p387
tp388
Rp389
ag3
(g7
S'\xecq+\xc9\xa7\\\xf1?'
p390
tp391
Rp392
asS'\n        num_res: 10\nres_sizes:[ 50  72  94 116 138 161 183 205 227 250]\necho_params:[0.84999999999999998, 0.81111111111111112, 0.77222222222222214, 0.73333333333333328, 0.69444444444444442, 0.65555555555555556, 0.6166666666666667, 0.57777777777777772, 0.53888888888888886, 0.5]\ninput_scales:[0.5, 0.5, 0.5, 0.5, 0.5, 0.5, 0.5, 0.5, 0.5, 0.5]\nspectral_scales:[0.5, 0.58333333333333337, 0.66666666666666663, 0.75, 0.83333333333333326, 0.91666666666666663, 1.0, 1.0833333333333333, 1.1666666666666665, 1.25]\n        regulariser: 0.001000'
p393
(lp394
g3
(g7
S'\xa5n|\xbar\x02\xe8?'
p395
tp396
Rp397
ag3
(g7
S'\x8d\x14\xa0\\V-\xdb?'
p398
tp399
Rp400
ag3
(g7
S'`\x1aS\x1f^&\xc4?'
p401
tp402
Rp403
asS'\n        num_res: 10\nres_sizes:[200 200 200 200 200 200 200 200 200 200]\necho_params:[0.84999999999999998, 0.81111111111111112, 0.77222222222222214, 0.73333333333333328, 0.69444444444444442, 0.65555555555555556, 0.6166666666666667, 0.57777777777777772, 0.53888888888888886, 0.5]\ninput_scales:[0.20000000000000001, 0.20000000000000001, 0.20000000000000001, 0.20000000000000001, 0.20000000000000001, 0.20000000000000001, 0.20000000000000001, 0.20000000000000001, 0.20000000000000001, 0.20000000000000001]\nspectral_scales:[1.0, 1.0, 1.0, 1.0, 1.0, 1.0, 1.0, 1.0, 1.0, 1.0]\n        regulariser: 0.001000'
p404
(lp405
g3
(g7
S'\x10\xd1\x19y\xe3\xab\xdd?'
p406
tp407
Rp408
ag3
(g7
S'\xf3\x9aW\xee7~\xe0?'
p409
tp410
Rp411
ag3
(g7
S'\xc4\x86\xec\xc7\xc1+\xd9?'
p412
tp413
Rp414
asS'\n        num_res: 10\nres_sizes:[100 111 122 133 144 155 166 177 188 200]\necho_params:[0.84999999999999998, 0.81111111111111112, 0.77222222222222214, 0.73333333333333328, 0.69444444444444442, 0.65555555555555556, 0.6166666666666667, 0.57777777777777772, 0.53888888888888886, 0.5]\ninput_scales:[0.20000000000000001, 0.20000000000000001, 0.20000000000000001, 0.20000000000000001, 0.20000000000000001, 0.20000000000000001, 0.20000000000000001, 0.20000000000000001, 0.20000000000000001, 0.20000000000000001]\nspectral_scales:[0.5, 0.58333333333333337, 0.66666666666666663, 0.75, 0.83333333333333326, 0.91666666666666663, 1.0, 1.0833333333333333, 1.1666666666666665, 1.25]\n        regulariser: 0.000100'
p415
(lp416
g3
(g7
S'Yld\xc2\xceQ\xe4?'
p417
tp418
Rp419
ag3
(g7
S'\x9aI\x07\x1du\xdd\xdc?'
p420
tp421
Rp422
ag3
(g7
S'mZ\x00\xa0\xd5\xa8\xdf?'
p423
tp424
Rp425
asS'\n        num_res: 10\nres_sizes:[ 50  72  94 116 138 161 183 205 227 250]\necho_params:[0.84999999999999998, 0.81111111111111112, 0.77222222222222214, 0.73333333333333328, 0.69444444444444442, 0.65555555555555556, 0.6166666666666667, 0.57777777777777772, 0.53888888888888886, 0.5]\ninput_scales:[0.5, 0.5, 0.5, 0.5, 0.5, 0.5, 0.5, 0.5, 0.5, 0.5]\nspectral_scales:[0.90000000000000002, 0.87777777777777777, 0.85555555555555551, 0.83333333333333337, 0.81111111111111112, 0.78888888888888886, 0.76666666666666661, 0.74444444444444446, 0.72222222222222221, 0.69999999999999996]\n        regulariser: 0.000100'
p426
(lp427
g3
(g7
S'\xe5\x98\x84h\xf7\x00\xdb?'
p428
tp429
Rp430
ag3
(g7
S'8\x11\x04\xc6\xea\x9d\xe6?'
p431
tp432
Rp433
ag3
(g7
S"\x95\xfb\xd7?\x03w'@"
p434
tp435
Rp436
asS'\n        num_res: 10\nres_sizes:[100 111 122 133 144 155 166 177 188 200]\necho_params:[0.84999999999999998, 0.81111111111111112, 0.77222222222222214, 0.73333333333333328, 0.69444444444444442, 0.65555555555555556, 0.6166666666666667, 0.57777777777777772, 0.53888888888888886, 0.5]\ninput_scales:[0.20000000000000001, 0.28888888888888892, 0.37777777777777777, 0.46666666666666667, 0.55555555555555558, 0.64444444444444449, 0.73333333333333339, 0.82222222222222219, 0.9111111111111112, 1.0]\nspectral_scales:[0.90000000000000002, 0.93888888888888888, 0.97777777777777786, 1.0166666666666666, 1.0555555555555556, 1.0944444444444446, 1.1333333333333333, 1.1722222222222223, 1.2111111111111112, 1.25]\n        regulariser: 0.001000'
p437
(lp438
g3
(g7
S'\x8f\x91\x1d\t\xf2\xb2\xda?'
p439
tp440
Rp441
ag3
(g7
S'\x05\xb9\xa2U\xbd \xe7?'
p442
tp443
Rp444
ag3
(g7
S's\xfbSK\x08\x1a\xdd?'
p445
tp446
Rp447
asS'\n        num_res: 10\nres_sizes:[ 50  72  94 116 138 161 183 205 227 250]\necho_params:[0.84999999999999998, 0.81111111111111112, 0.77222222222222214, 0.73333333333333328, 0.69444444444444442, 0.65555555555555556, 0.6166666666666667, 0.57777777777777772, 0.53888888888888886, 0.5]\ninput_scales:[0.20000000000000001, 0.20000000000000001, 0.20000000000000001, 0.20000000000000001, 0.20000000000000001, 0.20000000000000001, 0.20000000000000001, 0.20000000000000001, 0.20000000000000001, 0.20000000000000001]\nspectral_scales:[0.90000000000000002, 0.93888888888888888, 0.97777777777777786, 1.0166666666666666, 1.0555555555555556, 1.0944444444444446, 1.1333333333333333, 1.1722222222222223, 1.2111111111111112, 1.25]\n        regulariser: 0.000100'
p448
(lp449
g3
(g7
S'\xa4\xae\x07\xf6)k\xd9?'
p450
tp451
Rp452
ag3
(g7
S'b!\x18_Go\xe6?'
p453
tp454
Rp455
ag3
(g7
S'\x17Xc\xd5\xe0u\xdc?'
p456
tp457
Rp458
asS'\n        num_res: 10\nres_sizes:[100 111 122 133 144 155 166 177 188 200]\necho_params:[0.84999999999999998, 0.81111111111111112, 0.77222222222222214, 0.73333333333333328, 0.69444444444444442, 0.65555555555555556, 0.6166666666666667, 0.57777777777777772, 0.53888888888888886, 0.5]\ninput_scales:[1.0, 0.91111111111111109, 0.82222222222222219, 0.73333333333333339, 0.64444444444444438, 0.55555555555555558, 0.46666666666666667, 0.37777777777777777, 0.28888888888888886, 0.20000000000000001]\nspectral_scales:[0.90000000000000002, 0.93888888888888888, 0.97777777777777786, 1.0166666666666666, 1.0555555555555556, 1.0944444444444446, 1.1333333333333333, 1.1722222222222223, 1.2111111111111112, 1.25]\n        regulariser: 0.000100'
p459
(lp460
g3
(g7
S'\xbcv\xb9\xf0\xd0\xa0\xec?'
p461
tp462
Rp463
ag3
(g7
S'\xac\x8d\x0b\xa9\x9f*\xe5?'
p464
tp465
Rp466
ag3
(g7
S'\xbf\xd2d\xa60\x9a\xe2?'
p467
tp468
Rp469
asS'\n        num_res: 10\nres_sizes:[ 50  72  94 116 138 161 183 205 227 250]\necho_params:[0.84999999999999998, 0.81111111111111112, 0.77222222222222214, 0.73333333333333328, 0.69444444444444442, 0.65555555555555556, 0.6166666666666667, 0.57777777777777772, 0.53888888888888886, 0.5]\ninput_scales:[0.20000000000000001, 0.28888888888888892, 0.37777777777777777, 0.46666666666666667, 0.55555555555555558, 0.64444444444444449, 0.73333333333333339, 0.82222222222222219, 0.9111111111111112, 1.0]\nspectral_scales:[0.90000000000000002, 0.87777777777777777, 0.85555555555555551, 0.83333333333333337, 0.81111111111111112, 0.78888888888888886, 0.76666666666666661, 0.74444444444444446, 0.72222222222222221, 0.69999999999999996]\n        regulariser: 0.001000'
p470
(lp471
g3
(g7
S'\x90\xccVp\xae2\xe5?'
p472
tp473
Rp474
ag3
(g7
S'U\xcd\xd6%\x7f\xd3\xe6?'
p475
tp476
Rp477
ag3
(g7
S'y\xf6$\xe7H!\xe0?'
p478
tp479
Rp480
asS'\n        num_res: 10\nres_sizes:[100 111 122 133 144 155 166 177 188 200]\necho_params:[0.84999999999999998, 0.81111111111111112, 0.77222222222222214, 0.73333333333333328, 0.69444444444444442, 0.65555555555555556, 0.6166666666666667, 0.57777777777777772, 0.53888888888888886, 0.5]\ninput_scales:[0.5, 0.5, 0.5, 0.5, 0.5, 0.5, 0.5, 0.5, 0.5, 0.5]\nspectral_scales:[0.90000000000000002, 0.93888888888888888, 0.97777777777777786, 1.0166666666666666, 1.0555555555555556, 1.0944444444444446, 1.1333333333333333, 1.1722222222222223, 1.2111111111111112, 1.25]\n        regulariser: 0.001000'
p481
(lp482
g3
(g7
S'*\xdd1\xb6\x98\x89\xdf?'
p483
tp484
Rp485
ag3
(g7
S'3\xdf\xa0\xfd!H\xd1?'
p486
tp487
Rp488
ag3
(g7
S'r\xf7YM\x01y\xe4?'
p489
tp490
Rp491
asS'\n        num_res: 10\nres_sizes:[200 200 200 200 200 200 200 200 200 200]\necho_params:[0.84999999999999998, 0.81111111111111112, 0.77222222222222214, 0.73333333333333328, 0.69444444444444442, 0.65555555555555556, 0.6166666666666667, 0.57777777777777772, 0.53888888888888886, 0.5]\ninput_scales:[0.20000000000000001, 0.20000000000000001, 0.20000000000000001, 0.20000000000000001, 0.20000000000000001, 0.20000000000000001, 0.20000000000000001, 0.20000000000000001, 0.20000000000000001, 0.20000000000000001]\nspectral_scales:[0.5, 0.58333333333333337, 0.66666666666666663, 0.75, 0.83333333333333326, 0.91666666666666663, 1.0, 1.0833333333333333, 1.1666666666666665, 1.25]\n        regulariser: 0.010000'
p492
(lp493
g3
(g7
S'\xf6\xfd\xea\xb1\xe3\xdd\xe4?'
p494
tp495
Rp496
ag3
(g7
S'Em\xa3\xb2E\xbb\xe7?'
p497
tp498
Rp499
ag3
(g7
S'3r\xa9\xa5\xe0\xf8\xf5?'
p500
tp501
Rp502
asS'\n        num_res: 10\nres_sizes:[200 200 200 200 200 200 200 200 200 200]\necho_params:[0.84999999999999998, 0.81111111111111112, 0.77222222222222214, 0.73333333333333328, 0.69444444444444442, 0.65555555555555556, 0.6166666666666667, 0.57777777777777772, 0.53888888888888886, 0.5]\ninput_scales:[0.20000000000000001, 0.28888888888888892, 0.37777777777777777, 0.46666666666666667, 0.55555555555555558, 0.64444444444444449, 0.73333333333333339, 0.82222222222222219, 0.9111111111111112, 1.0]\nspectral_scales:[0.90000000000000002, 0.93888888888888888, 0.97777777777777786, 1.0166666666666666, 1.0555555555555556, 1.0944444444444446, 1.1333333333333333, 1.1722222222222223, 1.2111111111111112, 1.25]\n        regulariser: 0.010000'
p503
(lp504
g3
(g7
S'\x14\xcd\xee\xcc\xa4f\xde?'
p505
tp506
Rp507
ag3
(g7
S'Z\xc5\xcd\xbb\x02\xf3\xb1?'
p508
tp509
Rp510
ag3
(g7
S',\x0f\x94\xd3k\xcf\xdd?'
p511
tp512
Rp513
asS'\n        num_res: 10\nres_sizes:[200 200 200 200 200 200 200 200 200 200]\necho_params:[0.84999999999999998, 0.81111111111111112, 0.77222222222222214, 0.73333333333333328, 0.69444444444444442, 0.65555555555555556, 0.6166666666666667, 0.57777777777777772, 0.53888888888888886, 0.5]\ninput_scales:[1.0, 0.91111111111111109, 0.82222222222222219, 0.73333333333333339, 0.64444444444444438, 0.55555555555555558, 0.46666666666666667, 0.37777777777777777, 0.28888888888888886, 0.20000000000000001]\nspectral_scales:[0.90000000000000002, 0.87777777777777777, 0.85555555555555551, 0.83333333333333337, 0.81111111111111112, 0.78888888888888886, 0.76666666666666661, 0.74444444444444446, 0.72222222222222221, 0.69999999999999996]\n        regulariser: 0.000100'
p514
(lp515
g3
(g7
S'\xd1/\xb0A\x8d\xbc\x18@'
p516
tp517
Rp518
ag3
(g7
S'7\xfa\x1b\x83\xea\xb6\x12@'
p519
tp520
Rp521
ag3
(g7
S'x\xda\xa9/\xd6\x8e\n@'
p522
tp523
Rp524
asS'\n        num_res: 10\nres_sizes:[ 50  72  94 116 138 161 183 205 227 250]\necho_params:[0.84999999999999998, 0.81111111111111112, 0.77222222222222214, 0.73333333333333328, 0.69444444444444442, 0.65555555555555556, 0.6166666666666667, 0.57777777777777772, 0.53888888888888886, 0.5]\ninput_scales:[0.5, 0.5, 0.5, 0.5, 0.5, 0.5, 0.5, 0.5, 0.5, 0.5]\nspectral_scales:[0.90000000000000002, 0.93888888888888888, 0.97777777777777786, 1.0166666666666666, 1.0555555555555556, 1.0944444444444446, 1.1333333333333333, 1.1722222222222223, 1.2111111111111112, 1.25]\n        regulariser: 0.001000'
p525
(lp526
g3
(g7
S'Q\x8b)\xfe8\xe9\xf2?'
p527
tp528
Rp529
ag3
(g7
S'\xaapHb\xad\xca\xdd?'
p530
tp531
Rp532
ag3
(g7
S'\x81{\xc5\x1a\x93\xa1\xf3?'
p533
tp534
Rp535
asS'\n        num_res: 10\nres_sizes:[200 200 200 200 200 200 200 200 200 200]\necho_params:[0.84999999999999998, 0.81111111111111112, 0.77222222222222214, 0.73333333333333328, 0.69444444444444442, 0.65555555555555556, 0.6166666666666667, 0.57777777777777772, 0.53888888888888886, 0.5]\ninput_scales:[0.20000000000000001, 0.20000000000000001, 0.20000000000000001, 0.20000000000000001, 0.20000000000000001, 0.20000000000000001, 0.20000000000000001, 0.20000000000000001, 0.20000000000000001, 0.20000000000000001]\nspectral_scales:[0.90000000000000002, 0.93888888888888888, 0.97777777777777786, 1.0166666666666666, 1.0555555555555556, 1.0944444444444446, 1.1333333333333333, 1.1722222222222223, 1.2111111111111112, 1.25]\n        regulariser: 0.010000'
p536
(lp537
g3
(g7
S'\x8f\x97S\xdep\xff\xde?'
p538
tp539
Rp540
ag3
(g7
S':\xee\xab\xc82\x19\xe9?'
p541
tp542
Rp543
ag3
(g7
S'\xddu\xcf\xbf\xbfW\xd5?'
p544
tp545
Rp546
asS'\n        num_res: 10\nres_sizes:[ 50  72  94 116 138 161 183 205 227 250]\necho_params:[0.84999999999999998, 0.81111111111111112, 0.77222222222222214, 0.73333333333333328, 0.69444444444444442, 0.65555555555555556, 0.6166666666666667, 0.57777777777777772, 0.53888888888888886, 0.5]\ninput_scales:[0.5, 0.5, 0.5, 0.5, 0.5, 0.5, 0.5, 0.5, 0.5, 0.5]\nspectral_scales:[0.90000000000000002, 0.93888888888888888, 0.97777777777777786, 1.0166666666666666, 1.0555555555555556, 1.0944444444444446, 1.1333333333333333, 1.1722222222222223, 1.2111111111111112, 1.25]\n        regulariser: 0.010000'
p547
(lp548
g3
(g7
S'\\%\xa6%vp\xdf?'
p549
tp550
Rp551
ag3
(g7
S'J\xd6jqs\xca\xcd?'
p552
tp553
Rp554
ag3
(g7
S'\xe2\xe7N\xe2\x0fK\xda?'
p555
tp556
Rp557
asS'\n        num_res: 10\nres_sizes:[100 111 122 133 144 155 166 177 188 200]\necho_params:[0.84999999999999998, 0.81111111111111112, 0.77222222222222214, 0.73333333333333328, 0.69444444444444442, 0.65555555555555556, 0.6166666666666667, 0.57777777777777772, 0.53888888888888886, 0.5]\ninput_scales:[1.0, 0.91111111111111109, 0.82222222222222219, 0.73333333333333339, 0.64444444444444438, 0.55555555555555558, 0.46666666666666667, 0.37777777777777777, 0.28888888888888886, 0.20000000000000001]\nspectral_scales:[0.90000000000000002, 0.87777777777777777, 0.85555555555555551, 0.83333333333333337, 0.81111111111111112, 0.78888888888888886, 0.76666666666666661, 0.74444444444444446, 0.72222222222222221, 0.69999999999999996]\n        regulariser: 0.010000'
p558
(lp559
g3
(g7
S'\xcb\x12\x988\xb7\xdc\xe1?'
p560
tp561
Rp562
ag3
(g7
S')\xe6R\xe1\xdao\xf0?'
p563
tp564
Rp565
ag3
(g7
S'e\xcb\xdc\xaa{\xc3\xda?'
p566
tp567
Rp568
asS'\n        num_res: 10\nres_sizes:[200 200 200 200 200 200 200 200 200 200]\necho_params:[0.84999999999999998, 0.81111111111111112, 0.77222222222222214, 0.73333333333333328, 0.69444444444444442, 0.65555555555555556, 0.6166666666666667, 0.57777777777777772, 0.53888888888888886, 0.5]\ninput_scales:[1.0, 0.91111111111111109, 0.82222222222222219, 0.73333333333333339, 0.64444444444444438, 0.55555555555555558, 0.46666666666666667, 0.37777777777777777, 0.28888888888888886, 0.20000000000000001]\nspectral_scales:[0.5, 0.58333333333333337, 0.66666666666666663, 0.75, 0.83333333333333326, 0.91666666666666663, 1.0, 1.0833333333333333, 1.1666666666666665, 1.25]\n        regulariser: 0.000100'
p569
(lp570
g3
(g7
S'BX\x1c\x1d\xc28\xec?'
p571
tp572
Rp573
ag3
(g7
S'\x0e~,M\x17<\x19@'
p574
tp575
Rp576
ag3
(g7
S'dt\x87,\x82\x80%@'
p577
tp578
Rp579
asS'\n        num_res: 10\nres_sizes:[ 50  72  94 116 138 161 183 205 227 250]\necho_params:[0.84999999999999998, 0.81111111111111112, 0.77222222222222214, 0.73333333333333328, 0.69444444444444442, 0.65555555555555556, 0.6166666666666667, 0.57777777777777772, 0.53888888888888886, 0.5]\ninput_scales:[0.20000000000000001, 0.28888888888888892, 0.37777777777777777, 0.46666666666666667, 0.55555555555555558, 0.64444444444444449, 0.73333333333333339, 0.82222222222222219, 0.9111111111111112, 1.0]\nspectral_scales:[0.90000000000000002, 0.87777777777777777, 0.85555555555555551, 0.83333333333333337, 0.81111111111111112, 0.78888888888888886, 0.76666666666666661, 0.74444444444444446, 0.72222222222222221, 0.69999999999999996]\n        regulariser: 0.010000'
p580
(lp581
g3
(g7
S's\xec?[\xd7\x89\xdf?'
p582
tp583
Rp584
ag3
(g7
S'\xb05X\xce\xbe.\xee?'
p585
tp586
Rp587
ag3
(g7
S'\xb0\x81=\xa7\xbc\xb0\xe0?'
p588
tp589
Rp590
asS'\n        num_res: 10\nres_sizes:[ 50  72  94 116 138 161 183 205 227 250]\necho_params:[0.84999999999999998, 0.81111111111111112, 0.77222222222222214, 0.73333333333333328, 0.69444444444444442, 0.65555555555555556, 0.6166666666666667, 0.57777777777777772, 0.53888888888888886, 0.5]\ninput_scales:[0.5, 0.5, 0.5, 0.5, 0.5, 0.5, 0.5, 0.5, 0.5, 0.5]\nspectral_scales:[0.5, 0.58333333333333337, 0.66666666666666663, 0.75, 0.83333333333333326, 0.91666666666666663, 1.0, 1.0833333333333333, 1.1666666666666665, 1.25]\n        regulariser: 0.000100'
p591
(lp592
g3
(g7
S'\x9dL\xa15\xb9\xe4\xe3?'
p593
tp594
Rp595
ag3
(g7
S'\xa3\xb4u\x08%g\xf3?'
p596
tp597
Rp598
ag3
(g7
S'\x9eE\x1bH\x13\xa5\xdc?'
p599
tp600
Rp601
asS'\n        num_res: 10\nres_sizes:[100 111 122 133 144 155 166 177 188 200]\necho_params:[0.84999999999999998, 0.81111111111111112, 0.77222222222222214, 0.73333333333333328, 0.69444444444444442, 0.65555555555555556, 0.6166666666666667, 0.57777777777777772, 0.53888888888888886, 0.5]\ninput_scales:[1.0, 0.91111111111111109, 0.82222222222222219, 0.73333333333333339, 0.64444444444444438, 0.55555555555555558, 0.46666666666666667, 0.37777777777777777, 0.28888888888888886, 0.20000000000000001]\nspectral_scales:[0.5, 0.58333333333333337, 0.66666666666666663, 0.75, 0.83333333333333326, 0.91666666666666663, 1.0, 1.0833333333333333, 1.1666666666666665, 1.25]\n        regulariser: 0.000100'
p602
(lp603
g3
(g7
S'\xec3\x98DF\x18\xe0?'
p604
tp605
Rp606
ag3
(g7
S'H\x93Id\xaf\x9f\xea?'
p607
tp608
Rp609
ag3
(g7
S'\x99\xe6\x97<u\xe5\xe8?'
p610
tp611
Rp612
asS'\n        num_res: 10\nres_sizes:[200 200 200 200 200 200 200 200 200 200]\necho_params:[0.84999999999999998, 0.81111111111111112, 0.77222222222222214, 0.73333333333333328, 0.69444444444444442, 0.65555555555555556, 0.6166666666666667, 0.57777777777777772, 0.53888888888888886, 0.5]\ninput_scales:[0.5, 0.5, 0.5, 0.5, 0.5, 0.5, 0.5, 0.5, 0.5, 0.5]\nspectral_scales:[0.90000000000000002, 0.93888888888888888, 0.97777777777777786, 1.0166666666666666, 1.0555555555555556, 1.0944444444444446, 1.1333333333333333, 1.1722222222222223, 1.2111111111111112, 1.25]\n        regulariser: 0.010000'
p613
(lp614
g3
(g7
S'2\xbe%\xcc\x98\x0c\xe2?'
p615
tp616
Rp617
ag3
(g7
S'\x12\x07\xbfwk\xe2\xd8?'
p618
tp619
Rp620
ag3
(g7
S'\xc8\r\xd7\xe6*\xf1\xe1?'
p621
tp622
Rp623
asS'\n        num_res: 10\nres_sizes:[ 50  72  94 116 138 161 183 205 227 250]\necho_params:[0.84999999999999998, 0.81111111111111112, 0.77222222222222214, 0.73333333333333328, 0.69444444444444442, 0.65555555555555556, 0.6166666666666667, 0.57777777777777772, 0.53888888888888886, 0.5]\ninput_scales:[0.20000000000000001, 0.28888888888888892, 0.37777777777777777, 0.46666666666666667, 0.55555555555555558, 0.64444444444444449, 0.73333333333333339, 0.82222222222222219, 0.9111111111111112, 1.0]\nspectral_scales:[1.0, 1.0, 1.0, 1.0, 1.0, 1.0, 1.0, 1.0, 1.0, 1.0]\n        regulariser: 0.000100'
p624
(lp625
g3
(g7
S'\x92\x1bF\xe1\n\xdd\xd7?'
p626
tp627
Rp628
ag3
(g7
S'\x8d|\xce\xe0b.\xde?'
p629
tp630
Rp631
ag3
(g7
S'\x1e\x8d\xcf\xdb\xb6\x1e\xda?'
p632
tp633
Rp634
asS'\n        num_res: 10\nres_sizes:[100 111 122 133 144 155 166 177 188 200]\necho_params:[0.84999999999999998, 0.81111111111111112, 0.77222222222222214, 0.73333333333333328, 0.69444444444444442, 0.65555555555555556, 0.6166666666666667, 0.57777777777777772, 0.53888888888888886, 0.5]\ninput_scales:[0.5, 0.5, 0.5, 0.5, 0.5, 0.5, 0.5, 0.5, 0.5, 0.5]\nspectral_scales:[0.90000000000000002, 0.87777777777777777, 0.85555555555555551, 0.83333333333333337, 0.81111111111111112, 0.78888888888888886, 0.76666666666666661, 0.74444444444444446, 0.72222222222222221, 0.69999999999999996]\n        regulariser: 0.010000'
p635
(lp636
g3
(g7
S'\xae\x1a\xb6\xab\xde\xd4\xe8?'
p637
tp638
Rp639
ag3
(g7
S'<C\xe9\xe2\xda\x04\xd6?'
p640
tp641
Rp642
ag3
(g7
S'\xe6_\x84\xcef\xe7\xee?'
p643
tp644
Rp645
asS'\n        num_res: 10\nres_sizes:[100 111 122 133 144 155 166 177 188 200]\necho_params:[0.84999999999999998, 0.81111111111111112, 0.77222222222222214, 0.73333333333333328, 0.69444444444444442, 0.65555555555555556, 0.6166666666666667, 0.57777777777777772, 0.53888888888888886, 0.5]\ninput_scales:[0.5, 0.5, 0.5, 0.5, 0.5, 0.5, 0.5, 0.5, 0.5, 0.5]\nspectral_scales:[0.5, 0.58333333333333337, 0.66666666666666663, 0.75, 0.83333333333333326, 0.91666666666666663, 1.0, 1.0833333333333333, 1.1666666666666665, 1.25]\n        regulariser: 0.010000'
p646
(lp647
g3
(g7
S'e)\xff\x94\xea\xee\xe3?'
p648
tp649
Rp650
ag3
(g7
S'\xd0\xee\x89;e\xff\xf0?'
p651
tp652
Rp653
ag3
(g7
S'\x87\x87\xcb\x85\x11\x9b\xed?'
p654
tp655
Rp656
asS'\n        num_res: 10\nres_sizes:[200 200 200 200 200 200 200 200 200 200]\necho_params:[0.84999999999999998, 0.81111111111111112, 0.77222222222222214, 0.73333333333333328, 0.69444444444444442, 0.65555555555555556, 0.6166666666666667, 0.57777777777777772, 0.53888888888888886, 0.5]\ninput_scales:[0.5, 0.5, 0.5, 0.5, 0.5, 0.5, 0.5, 0.5, 0.5, 0.5]\nspectral_scales:[1.0, 1.0, 1.0, 1.0, 1.0, 1.0, 1.0, 1.0, 1.0, 1.0]\n        regulariser: 0.000100'
p657
(lp658
g3
(g7
S'Q\xf7_\xe2\x967\xd1?'
p659
tp660
Rp661
ag3
(g7
S'"\xe9\xcb\xe4\xa6K\xa7?'
p662
tp663
Rp664
ag3
(g7
S'\xce\n\xc3p\xb3\xe2\xd9?'
p665
tp666
Rp667
asS'\n        num_res: 10\nres_sizes:[100 111 122 133 144 155 166 177 188 200]\necho_params:[0.84999999999999998, 0.81111111111111112, 0.77222222222222214, 0.73333333333333328, 0.69444444444444442, 0.65555555555555556, 0.6166666666666667, 0.57777777777777772, 0.53888888888888886, 0.5]\ninput_scales:[0.20000000000000001, 0.28888888888888892, 0.37777777777777777, 0.46666666666666667, 0.55555555555555558, 0.64444444444444449, 0.73333333333333339, 0.82222222222222219, 0.9111111111111112, 1.0]\nspectral_scales:[0.90000000000000002, 0.87777777777777777, 0.85555555555555551, 0.83333333333333337, 0.81111111111111112, 0.78888888888888886, 0.76666666666666661, 0.74444444444444446, 0.72222222222222221, 0.69999999999999996]\n        regulariser: 0.010000'
p668
(lp669
g3
(g7
S'!\xda\xea\xf8z\x17\xe4?'
p670
tp671
Rp672
ag3
(g7
S'\xafAAJN\xf0\xe3?'
p673
tp674
Rp675
ag3
(g7
S'/\xa4\x9d\xf1b\x80\xdd?'
p676
tp677
Rp678
asS'\n        num_res: 10\nres_sizes:[200 200 200 200 200 200 200 200 200 200]\necho_params:[0.84999999999999998, 0.81111111111111112, 0.77222222222222214, 0.73333333333333328, 0.69444444444444442, 0.65555555555555556, 0.6166666666666667, 0.57777777777777772, 0.53888888888888886, 0.5]\ninput_scales:[0.5, 0.5, 0.5, 0.5, 0.5, 0.5, 0.5, 0.5, 0.5, 0.5]\nspectral_scales:[0.5, 0.58333333333333337, 0.66666666666666663, 0.75, 0.83333333333333326, 0.91666666666666663, 1.0, 1.0833333333333333, 1.1666666666666665, 1.25]\n        regulariser: 0.000100'
p679
(lp680
g3
(g7
S's\xbe\xc2J\xaa\x97\xeb?'
p681
tp682
Rp683
ag3
(g7
S'\xed$f\xcd\x1e\xbf\xf0?'
p684
tp685
Rp686
ag3
(g7
S'\x06\x89E\x8a\xeci\xe0?'
p687
tp688
Rp689
asS'\n        num_res: 10\nres_sizes:[200 200 200 200 200 200 200 200 200 200]\necho_params:[0.84999999999999998, 0.81111111111111112, 0.77222222222222214, 0.73333333333333328, 0.69444444444444442, 0.65555555555555556, 0.6166666666666667, 0.57777777777777772, 0.53888888888888886, 0.5]\ninput_scales:[0.20000000000000001, 0.20000000000000001, 0.20000000000000001, 0.20000000000000001, 0.20000000000000001, 0.20000000000000001, 0.20000000000000001, 0.20000000000000001, 0.20000000000000001, 0.20000000000000001]\nspectral_scales:[0.90000000000000002, 0.87777777777777777, 0.85555555555555551, 0.83333333333333337, 0.81111111111111112, 0.78888888888888886, 0.76666666666666661, 0.74444444444444446, 0.72222222222222221, 0.69999999999999996]\n        regulariser: 0.000100'
p690
(lp691
g3
(g7
S'\xffo\x80G\x01\xc8\xd9?'
p692
tp693
Rp694
ag3
(g7
S'8F\x9a\x84\xaa\xed\xda?'
p695
tp696
Rp697
ag3
(g7
S'\x83\xb7s\x8e\xa7\x0f\xe3?'
p698
tp699
Rp700
asS'\n        num_res: 10\nres_sizes:[100 111 122 133 144 155 166 177 188 200]\necho_params:[0.84999999999999998, 0.81111111111111112, 0.77222222222222214, 0.73333333333333328, 0.69444444444444442, 0.65555555555555556, 0.6166666666666667, 0.57777777777777772, 0.53888888888888886, 0.5]\ninput_scales:[0.20000000000000001, 0.20000000000000001, 0.20000000000000001, 0.20000000000000001, 0.20000000000000001, 0.20000000000000001, 0.20000000000000001, 0.20000000000000001, 0.20000000000000001, 0.20000000000000001]\nspectral_scales:[0.5, 0.58333333333333337, 0.66666666666666663, 0.75, 0.83333333333333326, 0.91666666666666663, 1.0, 1.0833333333333333, 1.1666666666666665, 1.25]\n        regulariser: 0.001000'
p701
(lp702
g3
(g7
S'\x92\xb8D\xce\xe0\xc3\xe4?'
p703
tp704
Rp705
ag3
(g7
S'i{(-r\xfc\xe4?'
p706
tp707
Rp708
ag3
(g7
S"'\xcd\xf3h3{\xe2?"
p709
tp710
Rp711
asS'\n        num_res: 10\nres_sizes:[200 200 200 200 200 200 200 200 200 200]\necho_params:[0.84999999999999998, 0.81111111111111112, 0.77222222222222214, 0.73333333333333328, 0.69444444444444442, 0.65555555555555556, 0.6166666666666667, 0.57777777777777772, 0.53888888888888886, 0.5]\ninput_scales:[0.20000000000000001, 0.20000000000000001, 0.20000000000000001, 0.20000000000000001, 0.20000000000000001, 0.20000000000000001, 0.20000000000000001, 0.20000000000000001, 0.20000000000000001, 0.20000000000000001]\nspectral_scales:[0.90000000000000002, 0.93888888888888888, 0.97777777777777786, 1.0166666666666666, 1.0555555555555556, 1.0944444444444446, 1.1333333333333333, 1.1722222222222223, 1.2111111111111112, 1.25]\n        regulariser: 0.000100'
p712
(lp713
g3
(g7
S'\xfc+\xec\xae\xd3\x07\xc9?'
p714
tp715
Rp716
ag3
(g7
S'w\x13\xdcyk\xd7\xda?'
p717
tp718
Rp719
ag3
(g7
S'r`\x98\xb8\x81|\xc4?'
p720
tp721
Rp722
asS'\n        num_res: 10\nres_sizes:[100 111 122 133 144 155 166 177 188 200]\necho_params:[0.84999999999999998, 0.84999999999999998, 0.84999999999999998, 0.84999999999999998, 0.84999999999999998, 0.84999999999999998, 0.84999999999999998, 0.84999999999999998, 0.84999999999999998, 0.84999999999999998]\ninput_scales:[0.5, 0.5, 0.5, 0.5, 0.5, 0.5, 0.5, 0.5, 0.5, 0.5]\nspectral_scales:[0.90000000000000002, 0.87777777777777777, 0.85555555555555551, 0.83333333333333337, 0.81111111111111112, 0.78888888888888886, 0.76666666666666661, 0.74444444444444446, 0.72222222222222221, 0.69999999999999996]\n        regulariser: 0.010000'
p723
(lp724
g3
(g7
S'\x83\xb6\x81k\xfc\xee\xe6?'
p725
tp726
Rp727
ag3
(g7
S'\xd6\xef+\xc9?\xea\xf4?'
p728
tp729
Rp730
ag3
(g7
S'\x8e\x88\xb3\xe3\x8a \xe6?'
p731
tp732
Rp733
asS'\n        num_res: 10\nres_sizes:[200 200 200 200 200 200 200 200 200 200]\necho_params:[0.84999999999999998, 0.81111111111111112, 0.77222222222222214, 0.73333333333333328, 0.69444444444444442, 0.65555555555555556, 0.6166666666666667, 0.57777777777777772, 0.53888888888888886, 0.5]\ninput_scales:[0.20000000000000001, 0.28888888888888892, 0.37777777777777777, 0.46666666666666667, 0.55555555555555558, 0.64444444444444449, 0.73333333333333339, 0.82222222222222219, 0.9111111111111112, 1.0]\nspectral_scales:[0.90000000000000002, 0.87777777777777777, 0.85555555555555551, 0.83333333333333337, 0.81111111111111112, 0.78888888888888886, 0.76666666666666661, 0.74444444444444446, 0.72222222222222221, 0.69999999999999996]\n        regulariser: 0.001000'
p734
(lp735
g3
(g7
S'\xbfple\xb2\x88\xda?'
p736
tp737
Rp738
ag3
(g7
S'~9\x06[\xfc\xef\xe3?'
p739
tp740
Rp741
ag3
(g7
S'\xf6Y\x87\x1e,T\xe3?'
p742
tp743
Rp744
asS'\n        num_res: 10\nres_sizes:[100 111 122 133 144 155 166 177 188 200]\necho_params:[0.84999999999999998, 0.81111111111111112, 0.77222222222222214, 0.73333333333333328, 0.69444444444444442, 0.65555555555555556, 0.6166666666666667, 0.57777777777777772, 0.53888888888888886, 0.5]\ninput_scales:[0.5, 0.5, 0.5, 0.5, 0.5, 0.5, 0.5, 0.5, 0.5, 0.5]\nspectral_scales:[0.5, 0.58333333333333337, 0.66666666666666663, 0.75, 0.83333333333333326, 0.91666666666666663, 1.0, 1.0833333333333333, 1.1666666666666665, 1.25]\n        regulariser: 0.001000'
p745
(lp746
g3
(g7
S'@&\xd7\xdb\x0eM\xe2?'
p747
tp748
Rp749
ag3
(g7
S'\x8aY*\xbf\xe9\xa0\xe2?'
p750
tp751
Rp752
ag3
(g7
S'\xa0\x136\xcd\\\x9c\xf3?'
p753
tp754
Rp755
asS'\n        num_res: 10\nres_sizes:[ 50  72  94 116 138 161 183 205 227 250]\necho_params:[0.84999999999999998, 0.81111111111111112, 0.77222222222222214, 0.73333333333333328, 0.69444444444444442, 0.65555555555555556, 0.6166666666666667, 0.57777777777777772, 0.53888888888888886, 0.5]\ninput_scales:[0.20000000000000001, 0.28888888888888892, 0.37777777777777777, 0.46666666666666667, 0.55555555555555558, 0.64444444444444449, 0.73333333333333339, 0.82222222222222219, 0.9111111111111112, 1.0]\nspectral_scales:[0.90000000000000002, 0.93888888888888888, 0.97777777777777786, 1.0166666666666666, 1.0555555555555556, 1.0944444444444446, 1.1333333333333333, 1.1722222222222223, 1.2111111111111112, 1.25]\n        regulariser: 0.010000'
p756
(lp757
g3
(g7
S'\x08@\xc2\x10\x97>\xe3?'
p758
tp759
Rp760
ag3
(g7
S'\xd0\xd1\x8e\x12\xba;\xe9?'
p761
tp762
Rp763
ag3
(g7
S'\x91\xfb>\xf9\xfbI\xe7?'
p764
tp765
Rp766
asS'\n        num_res: 10\nres_sizes:[ 50  72  94 116 138 161 183 205 227 250]\necho_params:[0.84999999999999998, 0.81111111111111112, 0.77222222222222214, 0.73333333333333328, 0.69444444444444442, 0.65555555555555556, 0.6166666666666667, 0.57777777777777772, 0.53888888888888886, 0.5]\ninput_scales:[0.20000000000000001, 0.28888888888888892, 0.37777777777777777, 0.46666666666666667, 0.55555555555555558, 0.64444444444444449, 0.73333333333333339, 0.82222222222222219, 0.9111111111111112, 1.0]\nspectral_scales:[1.0, 1.0, 1.0, 1.0, 1.0, 1.0, 1.0, 1.0, 1.0, 1.0]\n        regulariser: 0.010000'
p767
(lp768
g3
(g7
S'\x81\x90w\xd6\xb8\xbb\xb6?'
p769
tp770
Rp771
ag3
(g7
S'\xc4A\xa5I\xdf\xb6\xe3?'
p772
tp773
Rp774
ag3
(g7
S'v\n\x92\xa6\x15\xfb\xd9?'
p775
tp776
Rp777
asS'\n        num_res: 10\nres_sizes:[100 111 122 133 144 155 166 177 188 200]\necho_params:[0.84999999999999998, 0.81111111111111112, 0.77222222222222214, 0.73333333333333328, 0.69444444444444442, 0.65555555555555556, 0.6166666666666667, 0.57777777777777772, 0.53888888888888886, 0.5]\ninput_scales:[1.0, 0.91111111111111109, 0.82222222222222219, 0.73333333333333339, 0.64444444444444438, 0.55555555555555558, 0.46666666666666667, 0.37777777777777777, 0.28888888888888886, 0.20000000000000001]\nspectral_scales:[1.0, 1.0, 1.0, 1.0, 1.0, 1.0, 1.0, 1.0, 1.0, 1.0]\n        regulariser: 0.000100'
p778
(lp779
g3
(g7
S'\xd4\x02\xf5\xc0C\xae\xd1?'
p780
tp781
Rp782
ag3
(g7
S'\x99\x19\x01\xa5\x93\x81\xe9?'
p783
tp784
Rp785
ag3
(g7
S'\xb5\xe8u\xc5\x83.\xef?'
p786
tp787
Rp788
asS'\n        num_res: 10\nres_sizes:[100 111 122 133 144 155 166 177 188 200]\necho_params:[0.84999999999999998, 0.81111111111111112, 0.77222222222222214, 0.73333333333333328, 0.69444444444444442, 0.65555555555555556, 0.6166666666666667, 0.57777777777777772, 0.53888888888888886, 0.5]\ninput_scales:[0.5, 0.5, 0.5, 0.5, 0.5, 0.5, 0.5, 0.5, 0.5, 0.5]\nspectral_scales:[0.90000000000000002, 0.93888888888888888, 0.97777777777777786, 1.0166666666666666, 1.0555555555555556, 1.0944444444444446, 1.1333333333333333, 1.1722222222222223, 1.2111111111111112, 1.25]\n        regulariser: 0.010000'
p789
(lp790
g3
(g7
S'\xfd\xeao\x1f\xb0a\xe5?'
p791
tp792
Rp793
ag3
(g7
S'\x85\xc9\xe1\x9b\x1eF\xe5?'
p794
tp795
Rp796
ag3
(g7
S'\xa5\x96+2\xb8\xc5\xf2?'
p797
tp798
Rp799
asS'\n        num_res: 10\nres_sizes:[200 200 200 200 200 200 200 200 200 200]\necho_params:[0.84999999999999998, 0.81111111111111112, 0.77222222222222214, 0.73333333333333328, 0.69444444444444442, 0.65555555555555556, 0.6166666666666667, 0.57777777777777772, 0.53888888888888886, 0.5]\ninput_scales:[0.5, 0.5, 0.5, 0.5, 0.5, 0.5, 0.5, 0.5, 0.5, 0.5]\nspectral_scales:[0.90000000000000002, 0.93888888888888888, 0.97777777777777786, 1.0166666666666666, 1.0555555555555556, 1.0944444444444446, 1.1333333333333333, 1.1722222222222223, 1.2111111111111112, 1.25]\n        regulariser: 0.001000'
p800
(lp801
g3
(g7
S'\x9d"\xde\x1b)\xa7\xd0?'
p802
tp803
Rp804
ag3
(g7
S'\xe4\xb9>\xaaG\xc5\xe1?'
p805
tp806
Rp807
ag3
(g7
S'y\xd6\xe4$\xdd\x9d\xe0?'
p808
tp809
Rp810
asS'\n        num_res: 10\nres_sizes:[100 111 122 133 144 155 166 177 188 200]\necho_params:[0.84999999999999998, 0.81111111111111112, 0.77222222222222214, 0.73333333333333328, 0.69444444444444442, 0.65555555555555556, 0.6166666666666667, 0.57777777777777772, 0.53888888888888886, 0.5]\ninput_scales:[0.5, 0.5, 0.5, 0.5, 0.5, 0.5, 0.5, 0.5, 0.5, 0.5]\nspectral_scales:[0.90000000000000002, 0.87777777777777777, 0.85555555555555551, 0.83333333333333337, 0.81111111111111112, 0.78888888888888886, 0.76666666666666661, 0.74444444444444446, 0.72222222222222221, 0.69999999999999996]\n        regulariser: 0.001000'
p811
(lp812
g3
(g7
S'\xfd\xd8\x97\xa3a\x16\xdf?'
p813
tp814
Rp815
ag3
(g7
S'\x1duxZ\xd7\xe7\xe4?'
p816
tp817
Rp818
ag3
(g7
S'7_B\xa3T\xef\xdf?'
p819
tp820
Rp821
asS'\n        num_res: 10\nres_sizes:[100 111 122 133 144 155 166 177 188 200]\necho_params:[0.84999999999999998, 0.81111111111111112, 0.77222222222222214, 0.73333333333333328, 0.69444444444444442, 0.65555555555555556, 0.6166666666666667, 0.57777777777777772, 0.53888888888888886, 0.5]\ninput_scales:[0.20000000000000001, 0.20000000000000001, 0.20000000000000001, 0.20000000000000001, 0.20000000000000001, 0.20000000000000001, 0.20000000000000001, 0.20000000000000001, 0.20000000000000001, 0.20000000000000001]\nspectral_scales:[0.90000000000000002, 0.87777777777777777, 0.85555555555555551, 0.83333333333333337, 0.81111111111111112, 0.78888888888888886, 0.76666666666666661, 0.74444444444444446, 0.72222222222222221, 0.69999999999999996]\n        regulariser: 0.000100'
p822
(lp823
g3
(g7
S'\x00\x95\xe1(\xca\x0f\xe5?'
p824
tp825
Rp826
ag3
(g7
S'\xb4\xcc\xec\xc3\xe5\xe2\xee?'
p827
tp828
Rp829
ag3
(g7
S'\x10\x19g\xf4tV\xf4?'
p830
tp831
Rp832
asS'\n        num_res: 10\nres_sizes:[100 111 122 133 144 155 166 177 188 200]\necho_params:[0.84999999999999998, 0.81111111111111112, 0.77222222222222214, 0.73333333333333328, 0.69444444444444442, 0.65555555555555556, 0.6166666666666667, 0.57777777777777772, 0.53888888888888886, 0.5]\ninput_scales:[0.5, 0.5, 0.5, 0.5, 0.5, 0.5, 0.5, 0.5, 0.5, 0.5]\nspectral_scales:[1.0, 1.0, 1.0, 1.0, 1.0, 1.0, 1.0, 1.0, 1.0, 1.0]\n        regulariser: 0.010000'
p833
(lp834
g3
(g7
S'\xb5\xe4\xa3\xcf\xf0u\xa8?'
p835
tp836
Rp837
ag3
(g7
S'\x07n\xb2\xdd,U\xe2?'
p838
tp839
Rp840
ag3
(g7
S'\x97\x05\x0c\x80t\xe6\xe4?'
p841
tp842
Rp843
asS'\n        num_res: 10\nres_sizes:[200 200 200 200 200 200 200 200 200 200]\necho_params:[0.84999999999999998, 0.81111111111111112, 0.77222222222222214, 0.73333333333333328, 0.69444444444444442, 0.65555555555555556, 0.6166666666666667, 0.57777777777777772, 0.53888888888888886, 0.5]\ninput_scales:[0.20000000000000001, 0.20000000000000001, 0.20000000000000001, 0.20000000000000001, 0.20000000000000001, 0.20000000000000001, 0.20000000000000001, 0.20000000000000001, 0.20000000000000001, 0.20000000000000001]\nspectral_scales:[1.0, 1.0, 1.0, 1.0, 1.0, 1.0, 1.0, 1.0, 1.0, 1.0]\n        regulariser: 0.010000'
p844
(lp845
g3
(g7
S'\xe4\x82\xa1\xa7\x10\xbd\xee?'
p846
tp847
Rp848
ag3
(g7
S'\x89m\x8e\x02b\xd6\xdd?'
p849
tp850
Rp851
ag3
(g7
S'd\xae\x11(q;\xe5?'
p852
tp853
Rp854
asS'\n        num_res: 10\nres_sizes:[200 200 200 200 200 200 200 200 200 200]\necho_params:[0.84999999999999998, 0.81111111111111112, 0.77222222222222214, 0.73333333333333328, 0.69444444444444442, 0.65555555555555556, 0.6166666666666667, 0.57777777777777772, 0.53888888888888886, 0.5]\ninput_scales:[0.20000000000000001, 0.28888888888888892, 0.37777777777777777, 0.46666666666666667, 0.55555555555555558, 0.64444444444444449, 0.73333333333333339, 0.82222222222222219, 0.9111111111111112, 1.0]\nspectral_scales:[0.5, 0.58333333333333337, 0.66666666666666663, 0.75, 0.83333333333333326, 0.91666666666666663, 1.0, 1.0833333333333333, 1.1666666666666665, 1.25]\n        regulariser: 0.010000'
p855
(lp856
g3
(g7
S'k\x00)\x98\xc3\xa3\xe7?'
p857
tp858
Rp859
ag3
(g7
S'`\x8c4\xee\x89l\xeb?'
p860
tp861
Rp862
ag3
(g7
S'\xe4!\xdd\x86\x8a\xda\xee?'
p863
tp864
Rp865
asS'\n        num_res: 10\nres_sizes:[ 50  72  94 116 138 161 183 205 227 250]\necho_params:[0.84999999999999998, 0.84999999999999998, 0.84999999999999998, 0.84999999999999998, 0.84999999999999998, 0.84999999999999998, 0.84999999999999998, 0.84999999999999998, 0.84999999999999998, 0.84999999999999998]\ninput_scales:[0.20000000000000001, 0.20000000000000001, 0.20000000000000001, 0.20000000000000001, 0.20000000000000001, 0.20000000000000001, 0.20000000000000001, 0.20000000000000001, 0.20000000000000001, 0.20000000000000001]\nspectral_scales:[0.90000000000000002, 0.87777777777777777, 0.85555555555555551, 0.83333333333333337, 0.81111111111111112, 0.78888888888888886, 0.76666666666666661, 0.74444444444444446, 0.72222222222222221, 0.69999999999999996]\n        regulariser: 0.010000'
p866
(lp867
g3
(g7
S'l,\x0e\xc2\x10\xf5\xf4?'
p868
tp869
Rp870
ag3
(g7
S'\x95*[\xbd\xda\x92\xf6?'
p871
tp872
Rp873
ag3
(g7
S'5G[]\xfeD\xe4?'
p874
tp875
Rp876
asS'\n        num_res: 10\nres_sizes:[200 200 200 200 200 200 200 200 200 200]\necho_params:[0.84999999999999998, 0.81111111111111112, 0.77222222222222214, 0.73333333333333328, 0.69444444444444442, 0.65555555555555556, 0.6166666666666667, 0.57777777777777772, 0.53888888888888886, 0.5]\ninput_scales:[1.0, 0.91111111111111109, 0.82222222222222219, 0.73333333333333339, 0.64444444444444438, 0.55555555555555558, 0.46666666666666667, 0.37777777777777777, 0.28888888888888886, 0.20000000000000001]\nspectral_scales:[0.90000000000000002, 0.93888888888888888, 0.97777777777777786, 1.0166666666666666, 1.0555555555555556, 1.0944444444444446, 1.1333333333333333, 1.1722222222222223, 1.2111111111111112, 1.25]\n        regulariser: 0.001000'
p877
(lp878
g3
(g7
S'\x15S\xc9\x80\x11\xb4\xf4?'
p879
tp880
Rp881
ag3
(g7
S'Zp,o\x1e\x95\x0c@'
p882
tp883
Rp884
ag3
(g7
S'{8\nD8\xcd\xdf?'
p885
tp886
Rp887
asS'\n        num_res: 10\nres_sizes:[ 50  72  94 116 138 161 183 205 227 250]\necho_params:[0.84999999999999998, 0.81111111111111112, 0.77222222222222214, 0.73333333333333328, 0.69444444444444442, 0.65555555555555556, 0.6166666666666667, 0.57777777777777772, 0.53888888888888886, 0.5]\ninput_scales:[0.5, 0.5, 0.5, 0.5, 0.5, 0.5, 0.5, 0.5, 0.5, 0.5]\nspectral_scales:[1.0, 1.0, 1.0, 1.0, 1.0, 1.0, 1.0, 1.0, 1.0, 1.0]\n        regulariser: 0.010000'
p888
(lp889
g3
(g7
S'sa\x01\xe7\xac0\xd1?'
p890
tp891
Rp892
ag3
(g7
S'_\xa9\x06\xd0\xe3\xdc\xd9?'
p893
tp894
Rp895
ag3
(g7
S'\x19\x03\x83\x16,9\xb6?'
p896
tp897
Rp898
asS'\n        num_res: 10\nres_sizes:[ 50  72  94 116 138 161 183 205 227 250]\necho_params:[0.84999999999999998, 0.81111111111111112, 0.77222222222222214, 0.73333333333333328, 0.69444444444444442, 0.65555555555555556, 0.6166666666666667, 0.57777777777777772, 0.53888888888888886, 0.5]\ninput_scales:[0.20000000000000001, 0.28888888888888892, 0.37777777777777777, 0.46666666666666667, 0.55555555555555558, 0.64444444444444449, 0.73333333333333339, 0.82222222222222219, 0.9111111111111112, 1.0]\nspectral_scales:[0.5, 0.58333333333333337, 0.66666666666666663, 0.75, 0.83333333333333326, 0.91666666666666663, 1.0, 1.0833333333333333, 1.1666666666666665, 1.25]\n        regulariser: 0.000100'
p899
(lp900
g3
(g7
S'M\xe9`?u\x05\xe5?'
p901
tp902
Rp903
ag3
(g7
S'\xc8\xb3_\xe6t\xb8\xde?'
p904
tp905
Rp906
ag3
(g7
S'\xe2j\x188\xa9\xb8\xdb?'
p907
tp908
Rp909
asS'\n        num_res: 10\nres_sizes:[ 50  72  94 116 138 161 183 205 227 250]\necho_params:[0.84999999999999998, 0.84999999999999998, 0.84999999999999998, 0.84999999999999998, 0.84999999999999998, 0.84999999999999998, 0.84999999999999998, 0.84999999999999998, 0.84999999999999998, 0.84999999999999998]\ninput_scales:[0.5, 0.5, 0.5, 0.5, 0.5, 0.5, 0.5, 0.5, 0.5, 0.5]\nspectral_scales:[0.90000000000000002, 0.87777777777777777, 0.85555555555555551, 0.83333333333333337, 0.81111111111111112, 0.78888888888888886, 0.76666666666666661, 0.74444444444444446, 0.72222222222222221, 0.69999999999999996]\n        regulariser: 0.010000'
p910
(lp911
g3
(g7
S'\x9bZ\xfe;\xf9n\xf6?'
p912
tp913
Rp914
ag3
(g7
S'1\xaf\xd7\xc68\xda\x19@'
p915
tp916
Rp917
asS'\n        num_res: 10\nres_sizes:[200 200 200 200 200 200 200 200 200 200]\necho_params:[0.84999999999999998, 0.81111111111111112, 0.77222222222222214, 0.73333333333333328, 0.69444444444444442, 0.65555555555555556, 0.6166666666666667, 0.57777777777777772, 0.53888888888888886, 0.5]\ninput_scales:[0.20000000000000001, 0.28888888888888892, 0.37777777777777777, 0.46666666666666667, 0.55555555555555558, 0.64444444444444449, 0.73333333333333339, 0.82222222222222219, 0.9111111111111112, 1.0]\nspectral_scales:[0.5, 0.58333333333333337, 0.66666666666666663, 0.75, 0.83333333333333326, 0.91666666666666663, 1.0, 1.0833333333333333, 1.1666666666666665, 1.25]\n        regulariser: 0.001000'
p918
(lp919
g3
(g7
S'\xd13\x9dkE\x11 @'
p920
tp921
Rp922
ag3
(g7
S'\xe4_\xc4*\x00\xad"@'
p923
tp924
Rp925
ag3
(g7
S'\xbe4\xf6|\r\x15\xe0?'
p926
tp927
Rp928
asS'\n        num_res: 10\nres_sizes:[200 200 200 200 200 200 200 200 200 200]\necho_params:[0.84999999999999998, 0.84999999999999998, 0.84999999999999998, 0.84999999999999998, 0.84999999999999998, 0.84999999999999998, 0.84999999999999998, 0.84999999999999998, 0.84999999999999998, 0.84999999999999998]\ninput_scales:[0.20000000000000001, 0.20000000000000001, 0.20000000000000001, 0.20000000000000001, 0.20000000000000001, 0.20000000000000001, 0.20000000000000001, 0.20000000000000001, 0.20000000000000001, 0.20000000000000001]\nspectral_scales:[0.90000000000000002, 0.87777777777777777, 0.85555555555555551, 0.83333333333333337, 0.81111111111111112, 0.78888888888888886, 0.76666666666666661, 0.74444444444444446, 0.72222222222222221, 0.69999999999999996]\n        regulariser: 0.010000'
p929
(lp930
g3
(g7
S'Z\xee\x8b\n0l\xe5?'
p931
tp932
Rp933
ag3
(g7
S'\xca?X\x1b\xc9R\xe7?'
p934
tp935
Rp936
ag3
(g7
S']\xf3\xef\x93\xbcS\xe2?'
p937
tp938
Rp939
asS'\n        num_res: 10\nres_sizes:[200 200 200 200 200 200 200 200 200 200]\necho_params:[0.84999999999999998, 0.81111111111111112, 0.77222222222222214, 0.73333333333333328, 0.69444444444444442, 0.65555555555555556, 0.6166666666666667, 0.57777777777777772, 0.53888888888888886, 0.5]\ninput_scales:[0.20000000000000001, 0.20000000000000001, 0.20000000000000001, 0.20000000000000001, 0.20000000000000001, 0.20000000000000001, 0.20000000000000001, 0.20000000000000001, 0.20000000000000001, 0.20000000000000001]\nspectral_scales:[0.5, 0.58333333333333337, 0.66666666666666663, 0.75, 0.83333333333333326, 0.91666666666666663, 1.0, 1.0833333333333333, 1.1666666666666665, 1.25]\n        regulariser: 0.000100'
p940
(lp941
g3
(g7
S'\x7f\x00\xa8\xe4\xdd\xb4\xd9?'
p942
tp943
Rp944
ag3
(g7
S'v\xe7\xce\t\xd1\xbf\xe9?'
p945
tp946
Rp947
ag3
(g7
S'\xf5v\x00\x89W2\xd9?'
p948
tp949
Rp950
asS'\n        num_res: 10\nres_sizes:[ 50  72  94 116 138 161 183 205 227 250]\necho_params:[0.84999999999999998, 0.81111111111111112, 0.77222222222222214, 0.73333333333333328, 0.69444444444444442, 0.65555555555555556, 0.6166666666666667, 0.57777777777777772, 0.53888888888888886, 0.5]\ninput_scales:[0.20000000000000001, 0.28888888888888892, 0.37777777777777777, 0.46666666666666667, 0.55555555555555558, 0.64444444444444449, 0.73333333333333339, 0.82222222222222219, 0.9111111111111112, 1.0]\nspectral_scales:[0.90000000000000002, 0.87777777777777777, 0.85555555555555551, 0.83333333333333337, 0.81111111111111112, 0.78888888888888886, 0.76666666666666661, 0.74444444444444446, 0.72222222222222221, 0.69999999999999996]\n        regulariser: 0.000100'
p951
(lp952
g3
(g7
S'\xcc\x9f\x91*|_\xe4?'
p953
tp954
Rp955
ag3
(g7
S'_\xa5\x8c5\x17\x9f\xd1?'
p956
tp957
Rp958
ag3
(g7
S'\x04Qo\xb7\x1f\xb7\xde?'
p959
tp960
Rp961
asS'\n        num_res: 10\nres_sizes:[ 50  72  94 116 138 161 183 205 227 250]\necho_params:[0.84999999999999998, 0.81111111111111112, 0.77222222222222214, 0.73333333333333328, 0.69444444444444442, 0.65555555555555556, 0.6166666666666667, 0.57777777777777772, 0.53888888888888886, 0.5]\ninput_scales:[1.0, 0.91111111111111109, 0.82222222222222219, 0.73333333333333339, 0.64444444444444438, 0.55555555555555558, 0.46666666666666667, 0.37777777777777777, 0.28888888888888886, 0.20000000000000001]\nspectral_scales:[1.0, 1.0, 1.0, 1.0, 1.0, 1.0, 1.0, 1.0, 1.0, 1.0]\n        regulariser: 0.001000'
p962
(lp963
g3
(g7
S'u\xb4#9s:\xf3?'
p964
tp965
Rp966
ag3
(g7
S'\xe6\xe8\x90&\xc0\xae\xe6?'
p967
tp968
Rp969
ag3
(g7
S'\xd2n\x16\xf2\x0c\xac\xe4?'
p970
tp971
Rp972
asS'\n        num_res: 10\nres_sizes:[200 200 200 200 200 200 200 200 200 200]\necho_params:[0.84999999999999998, 0.81111111111111112, 0.77222222222222214, 0.73333333333333328, 0.69444444444444442, 0.65555555555555556, 0.6166666666666667, 0.57777777777777772, 0.53888888888888886, 0.5]\ninput_scales:[0.20000000000000001, 0.28888888888888892, 0.37777777777777777, 0.46666666666666667, 0.55555555555555558, 0.64444444444444449, 0.73333333333333339, 0.82222222222222219, 0.9111111111111112, 1.0]\nspectral_scales:[0.90000000000000002, 0.87777777777777777, 0.85555555555555551, 0.83333333333333337, 0.81111111111111112, 0.78888888888888886, 0.76666666666666661, 0.74444444444444446, 0.72222222222222221, 0.69999999999999996]\n        regulariser: 0.010000'
p973
(lp974
g3
(g7
S'\xc48\xdf\x13\xe9\xb5\xd9?'
p975
tp976
Rp977
ag3
(g7
S'w\xcb \x147\x99\xd1?'
p978
tp979
Rp980
ag3
(g7
S'\xf4c\xa5h\xe8U\xdf?'
p981
tp982
Rp983
asS'\n        num_res: 10\nres_sizes:[ 50  72  94 116 138 161 183 205 227 250]\necho_params:[0.84999999999999998, 0.81111111111111112, 0.77222222222222214, 0.73333333333333328, 0.69444444444444442, 0.65555555555555556, 0.6166666666666667, 0.57777777777777772, 0.53888888888888886, 0.5]\ninput_scales:[1.0, 0.91111111111111109, 0.82222222222222219, 0.73333333333333339, 0.64444444444444438, 0.55555555555555558, 0.46666666666666667, 0.37777777777777777, 0.28888888888888886, 0.20000000000000001]\nspectral_scales:[0.90000000000000002, 0.87777777777777777, 0.85555555555555551, 0.83333333333333337, 0.81111111111111112, 0.78888888888888886, 0.76666666666666661, 0.74444444444444446, 0.72222222222222221, 0.69999999999999996]\n        regulariser: 0.000100'
p984
(lp985
g3
(g7
S'{\x8e\xe6\xf4\rg\xe3?'
p986
tp987
Rp988
ag3
(g7
S'\x93\x89\xbam\r\x9f"@'
p989
tp990
Rp991
ag3
(g7
S'\x136w\xb1\xc0\x82\xe0?'
p992
tp993
Rp994
asS'\n        num_res: 10\nres_sizes:[100 111 122 133 144 155 166 177 188 200]\necho_params:[0.84999999999999998, 0.81111111111111112, 0.77222222222222214, 0.73333333333333328, 0.69444444444444442, 0.65555555555555556, 0.6166666666666667, 0.57777777777777772, 0.53888888888888886, 0.5]\ninput_scales:[0.20000000000000001, 0.20000000000000001, 0.20000000000000001, 0.20000000000000001, 0.20000000000000001, 0.20000000000000001, 0.20000000000000001, 0.20000000000000001, 0.20000000000000001, 0.20000000000000001]\nspectral_scales:[1.0, 1.0, 1.0, 1.0, 1.0, 1.0, 1.0, 1.0, 1.0, 1.0]\n        regulariser: 0.000100'
p995
(lp996
g3
(g7
S'(\x00P\xc7\xd3n\xda?'
p997
tp998
Rp999
ag3
(g7
S'\xce\xfb\x8d\x11+\x1e\xe3?'
p1000
tp1001
Rp1002
ag3
(g7
S'\x0c\xb8\xbb\xaa\x11%\xda?'
p1003
tp1004
Rp1005
asS'\n        num_res: 10\nres_sizes:[100 111 122 133 144 155 166 177 188 200]\necho_params:[0.84999999999999998, 0.81111111111111112, 0.77222222222222214, 0.73333333333333328, 0.69444444444444442, 0.65555555555555556, 0.6166666666666667, 0.57777777777777772, 0.53888888888888886, 0.5]\ninput_scales:[1.0, 0.91111111111111109, 0.82222222222222219, 0.73333333333333339, 0.64444444444444438, 0.55555555555555558, 0.46666666666666667, 0.37777777777777777, 0.28888888888888886, 0.20000000000000001]\nspectral_scales:[0.90000000000000002, 0.93888888888888888, 0.97777777777777786, 1.0166666666666666, 1.0555555555555556, 1.0944444444444446, 1.1333333333333333, 1.1722222222222223, 1.2111111111111112, 1.25]\n        regulariser: 0.001000'
p1006
(lp1007
g3
(g7
S'p\x03\x87^\x9b\xc0\xf4?'
p1008
tp1009
Rp1010
ag3
(g7
S'\xd7P#\xabQ6\xe5?'
p1011
tp1012
Rp1013
ag3
(g7
S'D\xd8\x02\x97\\^\xe1?'
p1014
tp1015
Rp1016
asS'\n        num_res: 10\nres_sizes:[ 50  72  94 116 138 161 183 205 227 250]\necho_params:[0.84999999999999998, 0.81111111111111112, 0.77222222222222214, 0.73333333333333328, 0.69444444444444442, 0.65555555555555556, 0.6166666666666667, 0.57777777777777772, 0.53888888888888886, 0.5]\ninput_scales:[0.20000000000000001, 0.20000000000000001, 0.20000000000000001, 0.20000000000000001, 0.20000000000000001, 0.20000000000000001, 0.20000000000000001, 0.20000000000000001, 0.20000000000000001, 0.20000000000000001]\nspectral_scales:[1.0, 1.0, 1.0, 1.0, 1.0, 1.0, 1.0, 1.0, 1.0, 1.0]\n        regulariser: 0.001000'
p1017
(lp1018
g3
(g7
S'\xfb\x0c\xfb#\x1ep\xd7?'
p1019
tp1020
Rp1021
ag3
(g7
S'F:!\xfd~\x88\xda?'
p1022
tp1023
Rp1024
ag3
(g7
S')\xb9#Q\xfdM\xe5?'
p1025
tp1026
Rp1027
asS'\n        num_res: 10\nres_sizes:[100 111 122 133 144 155 166 177 188 200]\necho_params:[0.84999999999999998, 0.81111111111111112, 0.77222222222222214, 0.73333333333333328, 0.69444444444444442, 0.65555555555555556, 0.6166666666666667, 0.57777777777777772, 0.53888888888888886, 0.5]\ninput_scales:[1.0, 0.91111111111111109, 0.82222222222222219, 0.73333333333333339, 0.64444444444444438, 0.55555555555555558, 0.46666666666666667, 0.37777777777777777, 0.28888888888888886, 0.20000000000000001]\nspectral_scales:[0.5, 0.58333333333333337, 0.66666666666666663, 0.75, 0.83333333333333326, 0.91666666666666663, 1.0, 1.0833333333333333, 1.1666666666666665, 1.25]\n        regulariser: 0.010000'
p1028
(lp1029
g3
(g7
S'\xbeH\xc0F\xf2G\xea?'
p1030
tp1031
Rp1032
ag3
(g7
S'\x96rx\x16\x95]\xe8?'
p1033
tp1034
Rp1035
ag3
(g7
S'<\x19#\x9e%x\xe9?'
p1036
tp1037
Rp1038
asS'\n        num_res: 10\nres_sizes:[100 111 122 133 144 155 166 177 188 200]\necho_params:[0.84999999999999998, 0.81111111111111112, 0.77222222222222214, 0.73333333333333328, 0.69444444444444442, 0.65555555555555556, 0.6166666666666667, 0.57777777777777772, 0.53888888888888886, 0.5]\ninput_scales:[1.0, 0.91111111111111109, 0.82222222222222219, 0.73333333333333339, 0.64444444444444438, 0.55555555555555558, 0.46666666666666667, 0.37777777777777777, 0.28888888888888886, 0.20000000000000001]\nspectral_scales:[1.0, 1.0, 1.0, 1.0, 1.0, 1.0, 1.0, 1.0, 1.0, 1.0]\n        regulariser: 0.001000'
p1039
(lp1040
g3
(g7
S'\xc6\x12\x9c\x1a\xee9\xe6?'
p1041
tp1042
Rp1043
ag3
(g7
S'\xc4\xfej\x02\xafp\xe4?'
p1044
tp1045
Rp1046
ag3
(g7
S"'\xe5\xaav$\x83\xf0?"
p1047
tp1048
Rp1049
asS'\n        num_res: 10\nres_sizes:[100 111 122 133 144 155 166 177 188 200]\necho_params:[0.84999999999999998, 0.81111111111111112, 0.77222222222222214, 0.73333333333333328, 0.69444444444444442, 0.65555555555555556, 0.6166666666666667, 0.57777777777777772, 0.53888888888888886, 0.5]\ninput_scales:[0.20000000000000001, 0.28888888888888892, 0.37777777777777777, 0.46666666666666667, 0.55555555555555558, 0.64444444444444449, 0.73333333333333339, 0.82222222222222219, 0.9111111111111112, 1.0]\nspectral_scales:[0.5, 0.58333333333333337, 0.66666666666666663, 0.75, 0.83333333333333326, 0.91666666666666663, 1.0, 1.0833333333333333, 1.1666666666666665, 1.25]\n        regulariser: 0.010000'
p1050
(lp1051
g3
(g7
S'\xff)\x88\xd8\xd2\x1a\xe9?'
p1052
tp1053
Rp1054
ag3
(g7
S'\x0b\xd7\xe1V\x85b\xec?'
p1055
tp1056
Rp1057
ag3
(g7
S'\x0fS7\x0f3\xb6\xe6?'
p1058
tp1059
Rp1060
asS'\n        num_res: 10\nres_sizes:[200 200 200 200 200 200 200 200 200 200]\necho_params:[0.84999999999999998, 0.81111111111111112, 0.77222222222222214, 0.73333333333333328, 0.69444444444444442, 0.65555555555555556, 0.6166666666666667, 0.57777777777777772, 0.53888888888888886, 0.5]\ninput_scales:[0.20000000000000001, 0.28888888888888892, 0.37777777777777777, 0.46666666666666667, 0.55555555555555558, 0.64444444444444449, 0.73333333333333339, 0.82222222222222219, 0.9111111111111112, 1.0]\nspectral_scales:[0.90000000000000002, 0.93888888888888888, 0.97777777777777786, 1.0166666666666666, 1.0555555555555556, 1.0944444444444446, 1.1333333333333333, 1.1722222222222223, 1.2111111111111112, 1.25]\n        regulariser: 0.001000'
p1061
(lp1062
g3
(g7
S'\x8av\x05\xc8\xe6\x9b\xd0?'
p1063
tp1064
Rp1065
ag3
(g7
S'\x16\x8ao\xb1\xa7\x9d\xd9?'
p1066
tp1067
Rp1068
ag3
(g7
S'\xadHFT\xf1\xa7\xda?'
p1069
tp1070
Rp1071
asS'\n        num_res: 10\nres_sizes:[200 200 200 200 200 200 200 200 200 200]\necho_params:[0.84999999999999998, 0.81111111111111112, 0.77222222222222214, 0.73333333333333328, 0.69444444444444442, 0.65555555555555556, 0.6166666666666667, 0.57777777777777772, 0.53888888888888886, 0.5]\ninput_scales:[0.20000000000000001, 0.28888888888888892, 0.37777777777777777, 0.46666666666666667, 0.55555555555555558, 0.64444444444444449, 0.73333333333333339, 0.82222222222222219, 0.9111111111111112, 1.0]\nspectral_scales:[1.0, 1.0, 1.0, 1.0, 1.0, 1.0, 1.0, 1.0, 1.0, 1.0]\n        regulariser: 0.000100'
p1072
(lp1073
g3
(g7
S'\xab5\xe8\x88;2\xb9?'
p1074
tp1075
Rp1076
ag3
(g7
S'\xd7\x86<\xc6{\xeb\xca?'
p1077
tp1078
Rp1079
ag3
(g7
S'\xb3x\x1a9\xf8\xe5\xd8?'
p1080
tp1081
Rp1082
asS'\n        num_res: 10\nres_sizes:[100 111 122 133 144 155 166 177 188 200]\necho_params:[0.84999999999999998, 0.81111111111111112, 0.77222222222222214, 0.73333333333333328, 0.69444444444444442, 0.65555555555555556, 0.6166666666666667, 0.57777777777777772, 0.53888888888888886, 0.5]\ninput_scales:[0.20000000000000001, 0.20000000000000001, 0.20000000000000001, 0.20000000000000001, 0.20000000000000001, 0.20000000000000001, 0.20000000000000001, 0.20000000000000001, 0.20000000000000001, 0.20000000000000001]\nspectral_scales:[0.90000000000000002, 0.87777777777777777, 0.85555555555555551, 0.83333333333333337, 0.81111111111111112, 0.78888888888888886, 0.76666666666666661, 0.74444444444444446, 0.72222222222222221, 0.69999999999999996]\n        regulariser: 0.001000'
p1083
(lp1084
g3
(g7
S'\x1d\xf4\x844\xc88\xe5?'
p1085
tp1086
Rp1087
ag3
(g7
S'\x01E\xce\xca\xaf\xd6\xe8?'
p1088
tp1089
Rp1090
ag3
(g7
S'\xcd\x87}FB*\xf7?'
p1091
tp1092
Rp1093
asS'\n        num_res: 10\nres_sizes:[100 111 122 133 144 155 166 177 188 200]\necho_params:[0.84999999999999998, 0.81111111111111112, 0.77222222222222214, 0.73333333333333328, 0.69444444444444442, 0.65555555555555556, 0.6166666666666667, 0.57777777777777772, 0.53888888888888886, 0.5]\ninput_scales:[0.20000000000000001, 0.20000000000000001, 0.20000000000000001, 0.20000000000000001, 0.20000000000000001, 0.20000000000000001, 0.20000000000000001, 0.20000000000000001, 0.20000000000000001, 0.20000000000000001]\nspectral_scales:[0.90000000000000002, 0.93888888888888888, 0.97777777777777786, 1.0166666666666666, 1.0555555555555556, 1.0944444444444446, 1.1333333333333333, 1.1722222222222223, 1.2111111111111112, 1.25]\n        regulariser: 0.000100'
p1094
(lp1095
g3
(g7
S'\xe5A\x9f\xcaT\x07\xdf?'
p1096
tp1097
Rp1098
ag3
(g7
S'\t:\x07NS\x89\xd1?'
p1099
tp1100
Rp1101
ag3
(g7
S'\xe5^|\x14\x912\xcb?'
p1102
tp1103
Rp1104
asS'\n        num_res: 10\nres_sizes:[200 200 200 200 200 200 200 200 200 200]\necho_params:[0.84999999999999998, 0.81111111111111112, 0.77222222222222214, 0.73333333333333328, 0.69444444444444442, 0.65555555555555556, 0.6166666666666667, 0.57777777777777772, 0.53888888888888886, 0.5]\ninput_scales:[0.5, 0.5, 0.5, 0.5, 0.5, 0.5, 0.5, 0.5, 0.5, 0.5]\nspectral_scales:[0.5, 0.58333333333333337, 0.66666666666666663, 0.75, 0.83333333333333326, 0.91666666666666663, 1.0, 1.0833333333333333, 1.1666666666666665, 1.25]\n        regulariser: 0.010000'
p1105
(lp1106
g3
(g7
S' \x0fz\xcf\xef#\xe7?'
p1107
tp1108
Rp1109
ag3
(g7
S'\x13\x14\xe3\xc8\x1af\xeb?'
p1110
tp1111
Rp1112
ag3
(g7
S'\xe9\xa63\xe9J\xe3\xe2?'
p1113
tp1114
Rp1115
asS'\n        num_res: 10\nres_sizes:[100 111 122 133 144 155 166 177 188 200]\necho_params:[0.84999999999999998, 0.81111111111111112, 0.77222222222222214, 0.73333333333333328, 0.69444444444444442, 0.65555555555555556, 0.6166666666666667, 0.57777777777777772, 0.53888888888888886, 0.5]\ninput_scales:[0.5, 0.5, 0.5, 0.5, 0.5, 0.5, 0.5, 0.5, 0.5, 0.5]\nspectral_scales:[0.90000000000000002, 0.87777777777777777, 0.85555555555555551, 0.83333333333333337, 0.81111111111111112, 0.78888888888888886, 0.76666666666666661, 0.74444444444444446, 0.72222222222222221, 0.69999999999999996]\n        regulariser: 0.000100'
p1116
(lp1117
g3
(g7
S'\x1a\x11\x01\xf4\xf6\x1f\x12@'
p1118
tp1119
Rp1120
ag3
(g7
S'\x82\x93m-\x93\xfa\xd0?'
p1121
tp1122
Rp1123
ag3
(g7
S'\xce\x87o\xbe \xe4\xdb?'
p1124
tp1125
Rp1126
asS'\n        num_res: 10\nres_sizes:[ 50  72  94 116 138 161 183 205 227 250]\necho_params:[0.84999999999999998, 0.81111111111111112, 0.77222222222222214, 0.73333333333333328, 0.69444444444444442, 0.65555555555555556, 0.6166666666666667, 0.57777777777777772, 0.53888888888888886, 0.5]\ninput_scales:[1.0, 0.91111111111111109, 0.82222222222222219, 0.73333333333333339, 0.64444444444444438, 0.55555555555555558, 0.46666666666666667, 0.37777777777777777, 0.28888888888888886, 0.20000000000000001]\nspectral_scales:[0.90000000000000002, 0.93888888888888888, 0.97777777777777786, 1.0166666666666666, 1.0555555555555556, 1.0944444444444446, 1.1333333333333333, 1.1722222222222223, 1.2111111111111112, 1.25]\n        regulariser: 0.001000'
p1127
(lp1128
g3
(g7
S'\xb3\x07\xf6E\xc2I\x12@'
p1129
tp1130
Rp1131
ag3
(g7
S'\n\x17Q\x11\x85-\xe5?'
p1132
tp1133
Rp1134
ag3
(g7
S'8\xee\xe4\x90\xaf1\xf5?'
p1135
tp1136
Rp1137
asS'\n        num_res: 10\nres_sizes:[100 111 122 133 144 155 166 177 188 200]\necho_params:[0.84999999999999998, 0.81111111111111112, 0.77222222222222214, 0.73333333333333328, 0.69444444444444442, 0.65555555555555556, 0.6166666666666667, 0.57777777777777772, 0.53888888888888886, 0.5]\ninput_scales:[1.0, 0.91111111111111109, 0.82222222222222219, 0.73333333333333339, 0.64444444444444438, 0.55555555555555558, 0.46666666666666667, 0.37777777777777777, 0.28888888888888886, 0.20000000000000001]\nspectral_scales:[0.90000000000000002, 0.93888888888888888, 0.97777777777777786, 1.0166666666666666, 1.0555555555555556, 1.0944444444444446, 1.1333333333333333, 1.1722222222222223, 1.2111111111111112, 1.25]\n        regulariser: 0.010000'
p1138
(lp1139
g3
(g7
S'!\xe1\xddTW\xb2\xe0?'
p1140
tp1141
Rp1142
ag3
(g7
S'\xec\xc0\x18\xc3\xcbd\xe3?'
p1143
tp1144
Rp1145
ag3
(g7
S'vA0\x1f\xd0\xa6\xe3?'
p1146
tp1147
Rp1148
asS'\n        num_res: 10\nres_sizes:[100 111 122 133 144 155 166 177 188 200]\necho_params:[0.84999999999999998, 0.81111111111111112, 0.77222222222222214, 0.73333333333333328, 0.69444444444444442, 0.65555555555555556, 0.6166666666666667, 0.57777777777777772, 0.53888888888888886, 0.5]\ninput_scales:[0.20000000000000001, 0.28888888888888892, 0.37777777777777777, 0.46666666666666667, 0.55555555555555558, 0.64444444444444449, 0.73333333333333339, 0.82222222222222219, 0.9111111111111112, 1.0]\nspectral_scales:[0.5, 0.58333333333333337, 0.66666666666666663, 0.75, 0.83333333333333326, 0.91666666666666663, 1.0, 1.0833333333333333, 1.1666666666666665, 1.25]\n        regulariser: 0.000100'
p1149
(lp1150
g3
(g7
S'\x8b\xf6\xe0\x8d\xa6l\xec?'
p1151
tp1152
Rp1153
ag3
(g7
S'&\xc5?\xbcx\x01\xe6?'
p1154
tp1155
Rp1156
ag3
(g7
S'\xfb\xf4\x0b~[\x10\xea?'
p1157
tp1158
Rp1159
asS'\n        num_res: 10\nres_sizes:[ 50  72  94 116 138 161 183 205 227 250]\necho_params:[0.84999999999999998, 0.81111111111111112, 0.77222222222222214, 0.73333333333333328, 0.69444444444444442, 0.65555555555555556, 0.6166666666666667, 0.57777777777777772, 0.53888888888888886, 0.5]\ninput_scales:[1.0, 0.91111111111111109, 0.82222222222222219, 0.73333333333333339, 0.64444444444444438, 0.55555555555555558, 0.46666666666666667, 0.37777777777777777, 0.28888888888888886, 0.20000000000000001]\nspectral_scales:[0.5, 0.58333333333333337, 0.66666666666666663, 0.75, 0.83333333333333326, 0.91666666666666663, 1.0, 1.0833333333333333, 1.1666666666666665, 1.25]\n        regulariser: 0.000100'
p1160
(lp1161
g3
(g7
S'\xbb\xbe\x0bO\x85N\xa9?'
p1162
tp1163
Rp1164
ag3
(g7
S'\xe1\x06\xcf_#\x92\xe0?'
p1165
tp1166
Rp1167
ag3
(g7
S'+\xcf\x00\xa2>\xd2\xe7?'
p1168
tp1169
Rp1170
asS'\n        num_res: 10\nres_sizes:[ 50  72  94 116 138 161 183 205 227 250]\necho_params:[0.84999999999999998, 0.81111111111111112, 0.77222222222222214, 0.73333333333333328, 0.69444444444444442, 0.65555555555555556, 0.6166666666666667, 0.57777777777777772, 0.53888888888888886, 0.5]\ninput_scales:[0.20000000000000001, 0.20000000000000001, 0.20000000000000001, 0.20000000000000001, 0.20000000000000001, 0.20000000000000001, 0.20000000000000001, 0.20000000000000001, 0.20000000000000001, 0.20000000000000001]\nspectral_scales:[0.5, 0.58333333333333337, 0.66666666666666663, 0.75, 0.83333333333333326, 0.91666666666666663, 1.0, 1.0833333333333333, 1.1666666666666665, 1.25]\n        regulariser: 0.000100'
p1171
(lp1172
g3
(g7
S'\x16\xf8\xfd\xc8\xban\xe8?'
p1173
tp1174
Rp1175
ag3
(g7
S'\x8cUm@\x16\x95\xe3?'
p1176
tp1177
Rp1178
ag3
(g7
S'.\xe2\xc3N\x86Y\xe1?'
p1179
tp1180
Rp1181
asS'\n        num_res: 10\nres_sizes:[ 50  72  94 116 138 161 183 205 227 250]\necho_params:[0.84999999999999998, 0.81111111111111112, 0.77222222222222214, 0.73333333333333328, 0.69444444444444442, 0.65555555555555556, 0.6166666666666667, 0.57777777777777772, 0.53888888888888886, 0.5]\ninput_scales:[0.20000000000000001, 0.28888888888888892, 0.37777777777777777, 0.46666666666666667, 0.55555555555555558, 0.64444444444444449, 0.73333333333333339, 0.82222222222222219, 0.9111111111111112, 1.0]\nspectral_scales:[0.90000000000000002, 0.93888888888888888, 0.97777777777777786, 1.0166666666666666, 1.0555555555555556, 1.0944444444444446, 1.1333333333333333, 1.1722222222222223, 1.2111111111111112, 1.25]\n        regulariser: 0.001000'
p1182
(lp1183
g3
(g7
S'U\x0fVB\xd8\xd4\xe3?'
p1184
tp1185
Rp1186
ag3
(g7
S'\xbe\x06\xa8m\x8a\xbf\xdd?'
p1187
tp1188
Rp1189
ag3
(g7
S'\xfaB\xdeG\x1c\x19\xe0?'
p1190
tp1191
Rp1192
asS'\n        num_res: 10\nres_sizes:[200 200 200 200 200 200 200 200 200 200]\necho_params:[0.84999999999999998, 0.81111111111111112, 0.77222222222222214, 0.73333333333333328, 0.69444444444444442, 0.65555555555555556, 0.6166666666666667, 0.57777777777777772, 0.53888888888888886, 0.5]\ninput_scales:[0.5, 0.5, 0.5, 0.5, 0.5, 0.5, 0.5, 0.5, 0.5, 0.5]\nspectral_scales:[0.5, 0.58333333333333337, 0.66666666666666663, 0.75, 0.83333333333333326, 0.91666666666666663, 1.0, 1.0833333333333333, 1.1666666666666665, 1.25]\n        regulariser: 0.001000'
p1193
(lp1194
g3
(g7
S'\x86\x84\x9e3Y\xfc\xe8?'
p1195
tp1196
Rp1197
ag3
(g7
S'p\xd8\xec\xe5K\xae\xe9?'
p1198
tp1199
Rp1200
ag3
(g7
S'\x08\xd0\x8c\x0e6\xb3\xea?'
p1201
tp1202
Rp1203
asS'\n        num_res: 10\nres_sizes:[ 50  72  94 116 138 161 183 205 227 250]\necho_params:[0.84999999999999998, 0.81111111111111112, 0.77222222222222214, 0.73333333333333328, 0.69444444444444442, 0.65555555555555556, 0.6166666666666667, 0.57777777777777772, 0.53888888888888886, 0.5]\ninput_scales:[0.20000000000000001, 0.20000000000000001, 0.20000000000000001, 0.20000000000000001, 0.20000000000000001, 0.20000000000000001, 0.20000000000000001, 0.20000000000000001, 0.20000000000000001, 0.20000000000000001]\nspectral_scales:[0.90000000000000002, 0.87777777777777777, 0.85555555555555551, 0.83333333333333337, 0.81111111111111112, 0.78888888888888886, 0.76666666666666661, 0.74444444444444446, 0.72222222222222221, 0.69999999999999996]\n        regulariser: 0.001000'
p1204
(lp1205
g3
(g7
S'\xc4\xa4\x10\xa02\x99\xdc?'
p1206
tp1207
Rp1208
ag3
(g7
S'\xe5\x86\xff\xc9\xd1P\xe6?'
p1209
tp1210
Rp1211
ag3
(g7
S'\xae\x0e\x1a\xf3\x9f\x1a\xe3?'
p1212
tp1213
Rp1214
asS'\n        num_res: 10\nres_sizes:[100 111 122 133 144 155 166 177 188 200]\necho_params:[0.84999999999999998, 0.81111111111111112, 0.77222222222222214, 0.73333333333333328, 0.69444444444444442, 0.65555555555555556, 0.6166666666666667, 0.57777777777777772, 0.53888888888888886, 0.5]\ninput_scales:[0.20000000000000001, 0.28888888888888892, 0.37777777777777777, 0.46666666666666667, 0.55555555555555558, 0.64444444444444449, 0.73333333333333339, 0.82222222222222219, 0.9111111111111112, 1.0]\nspectral_scales:[1.0, 1.0, 1.0, 1.0, 1.0, 1.0, 1.0, 1.0, 1.0, 1.0]\n        regulariser: 0.000100'
p1215
(lp1216
g3
(g7
S'\xcb\xd3\xc0\xf5\xfc\x89\xda?'
p1217
tp1218
Rp1219
ag3
(g7
S':V\xfc\x81F\xcc\xcf?'
p1220
tp1221
Rp1222
ag3
(g7
S'\x18\xae|~e&\xe0?'
p1223
tp1224
Rp1225
asS'\n        num_res: 10\nres_sizes:[100 111 122 133 144 155 166 177 188 200]\necho_params:[0.84999999999999998, 0.81111111111111112, 0.77222222222222214, 0.73333333333333328, 0.69444444444444442, 0.65555555555555556, 0.6166666666666667, 0.57777777777777772, 0.53888888888888886, 0.5]\ninput_scales:[0.20000000000000001, 0.20000000000000001, 0.20000000000000001, 0.20000000000000001, 0.20000000000000001, 0.20000000000000001, 0.20000000000000001, 0.20000000000000001, 0.20000000000000001, 0.20000000000000001]\nspectral_scales:[1.0, 1.0, 1.0, 1.0, 1.0, 1.0, 1.0, 1.0, 1.0, 1.0]\n        regulariser: 0.010000'
p1226
(lp1227
g3
(g7
S'\x96&\x05"a\xda\xef?'
p1228
tp1229
Rp1230
ag3
(g7
S'H\xc0\xfb[Z\xe8\xe5?'
p1231
tp1232
Rp1233
ag3
(g7
S'\xea1\xde\nk\r\xe3?'
p1234
tp1235
Rp1236
asS'\n        num_res: 10\nres_sizes:[100 111 122 133 144 155 166 177 188 200]\necho_params:[0.84999999999999998, 0.81111111111111112, 0.77222222222222214, 0.73333333333333328, 0.69444444444444442, 0.65555555555555556, 0.6166666666666667, 0.57777777777777772, 0.53888888888888886, 0.5]\ninput_scales:[0.20000000000000001, 0.20000000000000001, 0.20000000000000001, 0.20000000000000001, 0.20000000000000001, 0.20000000000000001, 0.20000000000000001, 0.20000000000000001, 0.20000000000000001, 0.20000000000000001]\nspectral_scales:[0.90000000000000002, 0.87777777777777777, 0.85555555555555551, 0.83333333333333337, 0.81111111111111112, 0.78888888888888886, 0.76666666666666661, 0.74444444444444446, 0.72222222222222221, 0.69999999999999996]\n        regulariser: 0.010000'
p1237
(lp1238
g3
(g7
S'\x8ap\xc2\x9a`\xc7\xf7?'
p1239
tp1240
Rp1241
ag3
(g7
S'?\xc8\x0f\x0bS\x84\xf0?'
p1242
tp1243
Rp1244
ag3
(g7
S'*$z!\x14q\xf8?'
p1245
tp1246
Rp1247
asS'\n        num_res: 10\nres_sizes:[ 50  72  94 116 138 161 183 205 227 250]\necho_params:[0.84999999999999998, 0.81111111111111112, 0.77222222222222214, 0.73333333333333328, 0.69444444444444442, 0.65555555555555556, 0.6166666666666667, 0.57777777777777772, 0.53888888888888886, 0.5]\ninput_scales:[1.0, 0.91111111111111109, 0.82222222222222219, 0.73333333333333339, 0.64444444444444438, 0.55555555555555558, 0.46666666666666667, 0.37777777777777777, 0.28888888888888886, 0.20000000000000001]\nspectral_scales:[0.90000000000000002, 0.87777777777777777, 0.85555555555555551, 0.83333333333333337, 0.81111111111111112, 0.78888888888888886, 0.76666666666666661, 0.74444444444444446, 0.72222222222222221, 0.69999999999999996]\n        regulariser: 0.001000'
p1248
(lp1249
g3
(g7
S'\x82I\xf0\xa2t\x9f\xd9?'
p1250
tp1251
Rp1252
ag3
(g7
S'4\xc4\xb91~#\xef?'
p1253
tp1254
Rp1255
ag3
(g7
S'\xd9\xf5\x9d\xe5\x92\x85\xec?'
p1256
tp1257
Rp1258
asS'\n        num_res: 10\nres_sizes:[200 200 200 200 200 200 200 200 200 200]\necho_params:[0.84999999999999998, 0.81111111111111112, 0.77222222222222214, 0.73333333333333328, 0.69444444444444442, 0.65555555555555556, 0.6166666666666667, 0.57777777777777772, 0.53888888888888886, 0.5]\ninput_scales:[0.20000000000000001, 0.28888888888888892, 0.37777777777777777, 0.46666666666666667, 0.55555555555555558, 0.64444444444444449, 0.73333333333333339, 0.82222222222222219, 0.9111111111111112, 1.0]\nspectral_scales:[0.90000000000000002, 0.87777777777777777, 0.85555555555555551, 0.83333333333333337, 0.81111111111111112, 0.78888888888888886, 0.76666666666666661, 0.74444444444444446, 0.72222222222222221, 0.69999999999999996]\n        regulariser: 0.000100'
p1259
(lp1260
g3
(g7
S'\xa6\xf6\xf6}_\x1f\xec?'
p1261
tp1262
Rp1263
ag3
(g7
S'\x8c\xa5\xaa\xcf7\xf6\xcd?'
p1264
tp1265
Rp1266
ag3
(g7
S'\t>\xe7c\xb8$\xe4?'
p1267
tp1268
Rp1269
asS'\n        num_res: 10\nres_sizes:[200 200 200 200 200 200 200 200 200 200]\necho_params:[0.84999999999999998, 0.81111111111111112, 0.77222222222222214, 0.73333333333333328, 0.69444444444444442, 0.65555555555555556, 0.6166666666666667, 0.57777777777777772, 0.53888888888888886, 0.5]\ninput_scales:[0.20000000000000001, 0.20000000000000001, 0.20000000000000001, 0.20000000000000001, 0.20000000000000001, 0.20000000000000001, 0.20000000000000001, 0.20000000000000001, 0.20000000000000001, 0.20000000000000001]\nspectral_scales:[1.0, 1.0, 1.0, 1.0, 1.0, 1.0, 1.0, 1.0, 1.0, 1.0]\n        regulariser: 0.000100'
p1270
(lp1271
g3
(g7
S'\x04D\xde\t\xc1(\x92?'
p1272
tp1273
Rp1274
ag3
(g7
S'\tN\xa0\x1e\xd3\x80v?'
p1275
tp1276
Rp1277
ag3
(g7
S'\x86\xf0g\x9b\x0fE\xb6?'
p1278
tp1279
Rp1280
asS'\n        num_res: 10\nres_sizes:[ 50  72  94 116 138 161 183 205 227 250]\necho_params:[0.84999999999999998, 0.81111111111111112, 0.77222222222222214, 0.73333333333333328, 0.69444444444444442, 0.65555555555555556, 0.6166666666666667, 0.57777777777777772, 0.53888888888888886, 0.5]\ninput_scales:[0.20000000000000001, 0.28888888888888892, 0.37777777777777777, 0.46666666666666667, 0.55555555555555558, 0.64444444444444449, 0.73333333333333339, 0.82222222222222219, 0.9111111111111112, 1.0]\nspectral_scales:[0.5, 0.58333333333333337, 0.66666666666666663, 0.75, 0.83333333333333326, 0.91666666666666663, 1.0, 1.0833333333333333, 1.1666666666666665, 1.25]\n        regulariser: 0.010000'
p1281
(lp1282
g3
(g7
S'f\x8c\x17BH\x0e\xf0?'
p1283
tp1284
Rp1285
ag3
(g7
S'\x82\x8c[\xf9\xd8\xdf\xda?'
p1286
tp1287
Rp1288
ag3
(g7
S'\x98\x00\xf3L\x8fJ\xe5?'
p1289
tp1290
Rp1291
asS'\n        num_res: 10\nres_sizes:[100 111 122 133 144 155 166 177 188 200]\necho_params:[0.84999999999999998, 0.81111111111111112, 0.77222222222222214, 0.73333333333333328, 0.69444444444444442, 0.65555555555555556, 0.6166666666666667, 0.57777777777777772, 0.53888888888888886, 0.5]\ninput_scales:[0.20000000000000001, 0.20000000000000001, 0.20000000000000001, 0.20000000000000001, 0.20000000000000001, 0.20000000000000001, 0.20000000000000001, 0.20000000000000001, 0.20000000000000001, 0.20000000000000001]\nspectral_scales:[1.0, 1.0, 1.0, 1.0, 1.0, 1.0, 1.0, 1.0, 1.0, 1.0]\n        regulariser: 0.001000'
p1292
(lp1293
g3
(g7
S'\xb7-\x8f\xd5W\x1a\xd4?'
p1294
tp1295
Rp1296
ag3
(g7
S"\xfb\xa6'\x177\x94\xd2?"
p1297
tp1298
Rp1299
ag3
(g7
S'w-\x0c\xf4\xbf\x10\xeb?'
p1300
tp1301
Rp1302
asS'\n        num_res: 10\nres_sizes:[ 50  72  94 116 138 161 183 205 227 250]\necho_params:[0.84999999999999998, 0.81111111111111112, 0.77222222222222214, 0.73333333333333328, 0.69444444444444442, 0.65555555555555556, 0.6166666666666667, 0.57777777777777772, 0.53888888888888886, 0.5]\ninput_scales:[0.20000000000000001, 0.20000000000000001, 0.20000000000000001, 0.20000000000000001, 0.20000000000000001, 0.20000000000000001, 0.20000000000000001, 0.20000000000000001, 0.20000000000000001, 0.20000000000000001]\nspectral_scales:[0.5, 0.58333333333333337, 0.66666666666666663, 0.75, 0.83333333333333326, 0.91666666666666663, 1.0, 1.0833333333333333, 1.1666666666666665, 1.25]\n        regulariser: 0.010000'
p1303
(lp1304
g3
(g7
S'$\xc8;y\x8c\xce\xe6?'
p1305
tp1306
Rp1307
ag3
(g7
S'\xdc,O\r\x86\x0e\xe7?'
p1308
tp1309
Rp1310
ag3
(g7
S'\xd2I\xc9\xe5\x98\xe3\xf6?'
p1311
tp1312
Rp1313
asS'\n        num_res: 10\nres_sizes:[ 50  72  94 116 138 161 183 205 227 250]\necho_params:[0.84999999999999998, 0.81111111111111112, 0.77222222222222214, 0.73333333333333328, 0.69444444444444442, 0.65555555555555556, 0.6166666666666667, 0.57777777777777772, 0.53888888888888886, 0.5]\ninput_scales:[1.0, 0.91111111111111109, 0.82222222222222219, 0.73333333333333339, 0.64444444444444438, 0.55555555555555558, 0.46666666666666667, 0.37777777777777777, 0.28888888888888886, 0.20000000000000001]\nspectral_scales:[0.90000000000000002, 0.87777777777777777, 0.85555555555555551, 0.83333333333333337, 0.81111111111111112, 0.78888888888888886, 0.76666666666666661, 0.74444444444444446, 0.72222222222222221, 0.69999999999999996]\n        regulariser: 0.010000'
p1314
(lp1315
g3
(g7
S'v\x04\xc1SH\xad\xe5?'
p1316
tp1317
Rp1318
ag3
(g7
S'\xe42\x97x\x95\x9b\xb0?'
p1319
tp1320
Rp1321
ag3
(g7
S'\x19WG\xdfQ\x85\xe2?'
p1322
tp1323
Rp1324
asS'\n        num_res: 10\nres_sizes:[100 111 122 133 144 155 166 177 188 200]\necho_params:[0.84999999999999998, 0.81111111111111112, 0.77222222222222214, 0.73333333333333328, 0.69444444444444442, 0.65555555555555556, 0.6166666666666667, 0.57777777777777772, 0.53888888888888886, 0.5]\ninput_scales:[0.20000000000000001, 0.28888888888888892, 0.37777777777777777, 0.46666666666666667, 0.55555555555555558, 0.64444444444444449, 0.73333333333333339, 0.82222222222222219, 0.9111111111111112, 1.0]\nspectral_scales:[0.90000000000000002, 0.87777777777777777, 0.85555555555555551, 0.83333333333333337, 0.81111111111111112, 0.78888888888888886, 0.76666666666666661, 0.74444444444444446, 0.72222222222222221, 0.69999999999999996]\n        regulariser: 0.000100'
p1325
(lp1326
g3
(g7
S'B\xb7y\x0c\xcd\xb5\xe0?'
p1327
tp1328
Rp1329
ag3
(g7
S'\x16\xd9\x89\xdc$\xbe\xde?'
p1330
tp1331
Rp1332
ag3
(g7
S'\x92\x9f\x0f"\x92{\xe4?'
p1333
tp1334
Rp1335
asS'\n        num_res: 10\nres_sizes:[200 200 200 200 200 200 200 200 200 200]\necho_params:[0.84999999999999998, 0.81111111111111112, 0.77222222222222214, 0.73333333333333328, 0.69444444444444442, 0.65555555555555556, 0.6166666666666667, 0.57777777777777772, 0.53888888888888886, 0.5]\ninput_scales:[0.5, 0.5, 0.5, 0.5, 0.5, 0.5, 0.5, 0.5, 0.5, 0.5]\nspectral_scales:[0.90000000000000002, 0.93888888888888888, 0.97777777777777786, 1.0166666666666666, 1.0555555555555556, 1.0944444444444446, 1.1333333333333333, 1.1722222222222223, 1.2111111111111112, 1.25]\n        regulariser: 0.000100'
p1336
(lp1337
g3
(g7
S'\xe4O\x07\xba\xe3\x8f\xe5?'
p1338
tp1339
Rp1340
ag3
(g7
S'\xf2\x1d\xef0d\x1e\xe3?'
p1341
tp1342
Rp1343
ag3
(g7
S'Q\xe2\xa0\x11c\xfa\xd9?'
p1344
tp1345
Rp1346
asS'\n        num_res: 10\nres_sizes:[100 111 122 133 144 155 166 177 188 200]\necho_params:[0.84999999999999998, 0.81111111111111112, 0.77222222222222214, 0.73333333333333328, 0.69444444444444442, 0.65555555555555556, 0.6166666666666667, 0.57777777777777772, 0.53888888888888886, 0.5]\ninput_scales:[1.0, 0.91111111111111109, 0.82222222222222219, 0.73333333333333339, 0.64444444444444438, 0.55555555555555558, 0.46666666666666667, 0.37777777777777777, 0.28888888888888886, 0.20000000000000001]\nspectral_scales:[0.5, 0.58333333333333337, 0.66666666666666663, 0.75, 0.83333333333333326, 0.91666666666666663, 1.0, 1.0833333333333333, 1.1666666666666665, 1.25]\n        regulariser: 0.001000'
p1347
(lp1348
g3
(g7
S'M\xc4\xb6\xba\xf6[\xe7?'
p1349
tp1350
Rp1351
ag3
(g7
S'\x18H[,t\xc5\xe2?'
p1352
tp1353
Rp1354
ag3
(g7
S'\x82\xf4\x11\x7f&\x16\xf6?'
p1355
tp1356
Rp1357
asS'\n        num_res: 10\nres_sizes:[200 200 200 200 200 200 200 200 200 200]\necho_params:[0.84999999999999998, 0.81111111111111112, 0.77222222222222214, 0.73333333333333328, 0.69444444444444442, 0.65555555555555556, 0.6166666666666667, 0.57777777777777772, 0.53888888888888886, 0.5]\ninput_scales:[1.0, 0.91111111111111109, 0.82222222222222219, 0.73333333333333339, 0.64444444444444438, 0.55555555555555558, 0.46666666666666667, 0.37777777777777777, 0.28888888888888886, 0.20000000000000001]\nspectral_scales:[1.0, 1.0, 1.0, 1.0, 1.0, 1.0, 1.0, 1.0, 1.0, 1.0]\n        regulariser: 0.001000'
p1358
(lp1359
g3
(g7
S'\x9902\x10\x8c\x13\xf2?'
p1360
tp1361
Rp1362
ag3
(g7
S'\xe4W\xdf\x97\xf0\x18\x1a@'
p1363
tp1364
Rp1365
ag3
(g7
S'\xd1\xc8\xeb\x90s\x1a\xee?'
p1366
tp1367
Rp1368
asS'\n        num_res: 10\nres_sizes:[200 200 200 200 200 200 200 200 200 200]\necho_params:[0.84999999999999998, 0.81111111111111112, 0.77222222222222214, 0.73333333333333328, 0.69444444444444442, 0.65555555555555556, 0.6166666666666667, 0.57777777777777772, 0.53888888888888886, 0.5]\ninput_scales:[0.5, 0.5, 0.5, 0.5, 0.5, 0.5, 0.5, 0.5, 0.5, 0.5]\nspectral_scales:[1.0, 1.0, 1.0, 1.0, 1.0, 1.0, 1.0, 1.0, 1.0, 1.0]\n        regulariser: 0.001000'
p1369
(lp1370
g3
(g7
S'\xca\x0cY\xf7\xf8\x9c\xd6?'
p1371
tp1372
Rp1373
ag3
(g7
S'\x93N\xbat\xdcs\xe5?'
p1374
tp1375
Rp1376
ag3
(g7
S'\xc1N\xb2;\x81\xa1\xe3?'
p1377
tp1378
Rp1379
asS'\n        num_res: 10\nres_sizes:[100 111 122 133 144 155 166 177 188 200]\necho_params:[0.84999999999999998, 0.81111111111111112, 0.77222222222222214, 0.73333333333333328, 0.69444444444444442, 0.65555555555555556, 0.6166666666666667, 0.57777777777777772, 0.53888888888888886, 0.5]\ninput_scales:[1.0, 0.91111111111111109, 0.82222222222222219, 0.73333333333333339, 0.64444444444444438, 0.55555555555555558, 0.46666666666666667, 0.37777777777777777, 0.28888888888888886, 0.20000000000000001]\nspectral_scales:[1.0, 1.0, 1.0, 1.0, 1.0, 1.0, 1.0, 1.0, 1.0, 1.0]\n        regulariser: 0.010000'
p1380
(lp1381
g3
(g7
S'\xc4\x9aW\x13\xb5!\xe5?'
p1382
tp1383
Rp1384
ag3
(g7
S'\xc1\xb5\xc0\x90\xaa=\xe1?'
p1385
tp1386
Rp1387
ag3
(g7
S'\x96\x89E\x98\x130\xe9?'
p1388
tp1389
Rp1390
asS'\n        num_res: 10\nres_sizes:[ 50  72  94 116 138 161 183 205 227 250]\necho_params:[0.84999999999999998, 0.81111111111111112, 0.77222222222222214, 0.73333333333333328, 0.69444444444444442, 0.65555555555555556, 0.6166666666666667, 0.57777777777777772, 0.53888888888888886, 0.5]\ninput_scales:[1.0, 0.91111111111111109, 0.82222222222222219, 0.73333333333333339, 0.64444444444444438, 0.55555555555555558, 0.46666666666666667, 0.37777777777777777, 0.28888888888888886, 0.20000000000000001]\nspectral_scales:[0.90000000000000002, 0.93888888888888888, 0.97777777777777786, 1.0166666666666666, 1.0555555555555556, 1.0944444444444446, 1.1333333333333333, 1.1722222222222223, 1.2111111111111112, 1.25]\n        regulariser: 0.010000'
p1391
(lp1392
g3
(g7
S',\xb5n\xf1\xc5\xd2\xed?'
p1393
tp1394
Rp1395
ag3
(g7
S'\xb2z\x91\xe2\x10\xde\xe7?'
p1396
tp1397
Rp1398
ag3
(g7
S'-\r\xfc\x17\x9e\xc9\xdb?'
p1399
tp1400
Rp1401
asS'\n        num_res: 10\nres_sizes:[100 111 122 133 144 155 166 177 188 200]\necho_params:[0.84999999999999998, 0.81111111111111112, 0.77222222222222214, 0.73333333333333328, 0.69444444444444442, 0.65555555555555556, 0.6166666666666667, 0.57777777777777772, 0.53888888888888886, 0.5]\ninput_scales:[0.20000000000000001, 0.20000000000000001, 0.20000000000000001, 0.20000000000000001, 0.20000000000000001, 0.20000000000000001, 0.20000000000000001, 0.20000000000000001, 0.20000000000000001, 0.20000000000000001]\nspectral_scales:[0.90000000000000002, 0.93888888888888888, 0.97777777777777786, 1.0166666666666666, 1.0555555555555556, 1.0944444444444446, 1.1333333333333333, 1.1722222222222223, 1.2111111111111112, 1.25]\n        regulariser: 0.010000'
p1402
(lp1403
g3
(g7
S'"%c\xdc5P\xda?'
p1404
tp1405
Rp1406
ag3
(g7
S'g\x12\xe2\xcb\x0b \xd9?'
p1407
tp1408
Rp1409
ag3
(g7
S'\xa3t\xec\x98\xf4\x80\xe4?'
p1410
tp1411
Rp1412
asS'\n        num_res: 10\nres_sizes:[200 200 200 200 200 200 200 200 200 200]\necho_params:[0.84999999999999998, 0.81111111111111112, 0.77222222222222214, 0.73333333333333328, 0.69444444444444442, 0.65555555555555556, 0.6166666666666667, 0.57777777777777772, 0.53888888888888886, 0.5]\ninput_scales:[1.0, 0.91111111111111109, 0.82222222222222219, 0.73333333333333339, 0.64444444444444438, 0.55555555555555558, 0.46666666666666667, 0.37777777777777777, 0.28888888888888886, 0.20000000000000001]\nspectral_scales:[0.90000000000000002, 0.87777777777777777, 0.85555555555555551, 0.83333333333333337, 0.81111111111111112, 0.78888888888888886, 0.76666666666666661, 0.74444444444444446, 0.72222222222222221, 0.69999999999999996]\n        regulariser: 0.010000'
p1413
(lp1414
g3
(g7
S'bhjo2\x8e\xe6?'
p1415
tp1416
Rp1417
ag3
(g7
S'\xe4\xbd\xb6\xe0i\x0e\xe2?'
p1418
tp1419
Rp1420
ag3
(g7
S'\x86\xda\x03\x8dUY\xe5?'
p1421
tp1422
Rp1423
asS'\n        num_res: 10\nres_sizes:[ 50  72  94 116 138 161 183 205 227 250]\necho_params:[0.84999999999999998, 0.81111111111111112, 0.77222222222222214, 0.73333333333333328, 0.69444444444444442, 0.65555555555555556, 0.6166666666666667, 0.57777777777777772, 0.53888888888888886, 0.5]\ninput_scales:[0.20000000000000001, 0.20000000000000001, 0.20000000000000001, 0.20000000000000001, 0.20000000000000001, 0.20000000000000001, 0.20000000000000001, 0.20000000000000001, 0.20000000000000001, 0.20000000000000001]\nspectral_scales:[0.5, 0.58333333333333337, 0.66666666666666663, 0.75, 0.83333333333333326, 0.91666666666666663, 1.0, 1.0833333333333333, 1.1666666666666665, 1.25]\n        regulariser: 0.001000'
p1424
(lp1425
g3
(g7
S'S5<)\xbc\xa4\xea?'
p1426
tp1427
Rp1428
ag3
(g7
S'\x17\x0b\x95\xca\x0b\x97\xdd?'
p1429
tp1430
Rp1431
ag3
(g7
S'\x8d\xe39T]\xc1\xe2?'
p1432
tp1433
Rp1434
asS'\n        num_res: 10\nres_sizes:[200 200 200 200 200 200 200 200 200 200]\necho_params:[0.84999999999999998, 0.81111111111111112, 0.77222222222222214, 0.73333333333333328, 0.69444444444444442, 0.65555555555555556, 0.6166666666666667, 0.57777777777777772, 0.53888888888888886, 0.5]\ninput_scales:[0.20000000000000001, 0.20000000000000001, 0.20000000000000001, 0.20000000000000001, 0.20000000000000001, 0.20000000000000001, 0.20000000000000001, 0.20000000000000001, 0.20000000000000001, 0.20000000000000001]\nspectral_scales:[0.90000000000000002, 0.87777777777777777, 0.85555555555555551, 0.83333333333333337, 0.81111111111111112, 0.78888888888888886, 0.76666666666666661, 0.74444444444444446, 0.72222222222222221, 0.69999999999999996]\n        regulariser: 0.010000'
p1435
(lp1436
g3
(g7
S'\xdc\x82\x8b\x1ep\xc9\xe4?'
p1437
tp1438
Rp1439
ag3
(g7
S'\xee\x8eRK]<\xe5?'
p1440
tp1441
Rp1442
ag3
(g7
S'\xf0\t(3\xce\xce\xdb?'
p1443
tp1444
Rp1445
asS'\n        num_res: 10\nres_sizes:[100 111 122 133 144 155 166 177 188 200]\necho_params:[0.84999999999999998, 0.84999999999999998, 0.84999999999999998, 0.84999999999999998, 0.84999999999999998, 0.84999999999999998, 0.84999999999999998, 0.84999999999999998, 0.84999999999999998, 0.84999999999999998]\ninput_scales:[0.20000000000000001, 0.20000000000000001, 0.20000000000000001, 0.20000000000000001, 0.20000000000000001, 0.20000000000000001, 0.20000000000000001, 0.20000000000000001, 0.20000000000000001, 0.20000000000000001]\nspectral_scales:[0.90000000000000002, 0.87777777777777777, 0.85555555555555551, 0.83333333333333337, 0.81111111111111112, 0.78888888888888886, 0.76666666666666661, 0.74444444444444446, 0.72222222222222221, 0.69999999999999996]\n        regulariser: 0.010000'
p1446
(lp1447
g3
(g7
S'E\x8f\x1d\x98x_\xf4?'
p1448
tp1449
Rp1450
ag3
(g7
S'\xeb&\xc6}=\n\xe4?'
p1451
tp1452
Rp1453
ag3
(g7
S'2K\xc9e\x17\x88\xf1?'
p1454
tp1455
Rp1456
asS'\n        num_res: 10\nres_sizes:[ 50  72  94 116 138 161 183 205 227 250]\necho_params:[0.84999999999999998, 0.81111111111111112, 0.77222222222222214, 0.73333333333333328, 0.69444444444444442, 0.65555555555555556, 0.6166666666666667, 0.57777777777777772, 0.53888888888888886, 0.5]\ninput_scales:[1.0, 0.91111111111111109, 0.82222222222222219, 0.73333333333333339, 0.64444444444444438, 0.55555555555555558, 0.46666666666666667, 0.37777777777777777, 0.28888888888888886, 0.20000000000000001]\nspectral_scales:[0.90000000000000002, 0.93888888888888888, 0.97777777777777786, 1.0166666666666666, 1.0555555555555556, 1.0944444444444446, 1.1333333333333333, 1.1722222222222223, 1.2111111111111112, 1.25]\n        regulariser: 0.000100'
p1457
(lp1458
g3
(g7
S'8z\xeb\x9e`A\xe8?'
p1459
tp1460
Rp1461
ag3
(g7
S'\t\xa32\x15R\x88\xe4?'
p1462
tp1463
Rp1464
ag3
(g7
S'\xe9\xec\xfa\x97~\xe7\xe1?'
p1465
tp1466
Rp1467
asS'\n        num_res: 10\nres_sizes:[ 50  72  94 116 138 161 183 205 227 250]\necho_params:[0.84999999999999998, 0.81111111111111112, 0.77222222222222214, 0.73333333333333328, 0.69444444444444442, 0.65555555555555556, 0.6166666666666667, 0.57777777777777772, 0.53888888888888886, 0.5]\ninput_scales:[0.20000000000000001, 0.20000000000000001, 0.20000000000000001, 0.20000000000000001, 0.20000000000000001, 0.20000000000000001, 0.20000000000000001, 0.20000000000000001, 0.20000000000000001, 0.20000000000000001]\nspectral_scales:[0.90000000000000002, 0.87777777777777777, 0.85555555555555551, 0.83333333333333337, 0.81111111111111112, 0.78888888888888886, 0.76666666666666661, 0.74444444444444446, 0.72222222222222221, 0.69999999999999996]\n        regulariser: 0.000100'
p1468
(lp1469
g3
(g7
S'\xf7>\xdf\xdd\xc9=\xdb?'
p1470
tp1471
Rp1472
ag3
(g7
S'\xb2\x102\xbd\x86\x98\xed?'
p1473
tp1474
Rp1475
ag3
(g7
S'\x9aaA[\xa7c\xee?'
p1476
tp1477
Rp1478
asS'\n        num_res: 10\nres_sizes:[200 200 200 200 200 200 200 200 200 200]\necho_params:[0.84999999999999998, 0.81111111111111112, 0.77222222222222214, 0.73333333333333328, 0.69444444444444442, 0.65555555555555556, 0.6166666666666667, 0.57777777777777772, 0.53888888888888886, 0.5]\ninput_scales:[0.5, 0.5, 0.5, 0.5, 0.5, 0.5, 0.5, 0.5, 0.5, 0.5]\nspectral_scales:[0.90000000000000002, 0.87777777777777777, 0.85555555555555551, 0.83333333333333337, 0.81111111111111112, 0.78888888888888886, 0.76666666666666661, 0.74444444444444446, 0.72222222222222221, 0.69999999999999996]\n        regulariser: 0.001000'
p1479
(lp1480
g3
(g7
S'i\xcbu\x01\xad\x14\xf3?'
p1481
tp1482
Rp1483
ag3
(g7
S'\xdd\x0b+m\x86y\xe4?'
p1484
tp1485
Rp1486
ag3
(g7
S'\xbc }\xcb\x9dw\xf1?'
p1487
tp1488
Rp1489
asS'\n        num_res: 10\nres_sizes:[100 111 122 133 144 155 166 177 188 200]\necho_params:[0.84999999999999998, 0.81111111111111112, 0.77222222222222214, 0.73333333333333328, 0.69444444444444442, 0.65555555555555556, 0.6166666666666667, 0.57777777777777772, 0.53888888888888886, 0.5]\ninput_scales:[0.20000000000000001, 0.28888888888888892, 0.37777777777777777, 0.46666666666666667, 0.55555555555555558, 0.64444444444444449, 0.73333333333333339, 0.82222222222222219, 0.9111111111111112, 1.0]\nspectral_scales:[1.0, 1.0, 1.0, 1.0, 1.0, 1.0, 1.0, 1.0, 1.0, 1.0]\n        regulariser: 0.001000'
p1490
(lp1491
g3
(g7
S'xc|\xf1\x17/\xe4?'
p1492
tp1493
Rp1494
ag3
(g7
S'\xde\xb4Z\xd8\x1fu\xda?'
p1495
tp1496
Rp1497
ag3
(g7
S'A\x11vk-\xbc\xda?'
p1498
tp1499
Rp1500
asS'\n        num_res: 10\nres_sizes:[200 200 200 200 200 200 200 200 200 200]\necho_params:[0.84999999999999998, 0.81111111111111112, 0.77222222222222214, 0.73333333333333328, 0.69444444444444442, 0.65555555555555556, 0.6166666666666667, 0.57777777777777772, 0.53888888888888886, 0.5]\ninput_scales:[0.20000000000000001, 0.28888888888888892, 0.37777777777777777, 0.46666666666666667, 0.55555555555555558, 0.64444444444444449, 0.73333333333333339, 0.82222222222222219, 0.9111111111111112, 1.0]\nspectral_scales:[0.90000000000000002, 0.93888888888888888, 0.97777777777777786, 1.0166666666666666, 1.0555555555555556, 1.0944444444444446, 1.1333333333333333, 1.1722222222222223, 1.2111111111111112, 1.25]\n        regulariser: 0.000100'
p1501
(lp1502
g3
(g7
S':Hd\x1b\xb74\xe1?'
p1503
tp1504
Rp1505
ag3
(g7
S'\xaf\xbfpFg\x9e\xe0?'
p1506
tp1507
Rp1508
ag3
(g7
S'\x15E\xa8_\xe90\xd9?'
p1509
tp1510
Rp1511
asS'\n        num_res: 10\nres_sizes:[100 111 122 133 144 155 166 177 188 200]\necho_params:[0.84999999999999998, 0.81111111111111112, 0.77222222222222214, 0.73333333333333328, 0.69444444444444442, 0.65555555555555556, 0.6166666666666667, 0.57777777777777772, 0.53888888888888886, 0.5]\ninput_scales:[0.20000000000000001, 0.28888888888888892, 0.37777777777777777, 0.46666666666666667, 0.55555555555555558, 0.64444444444444449, 0.73333333333333339, 0.82222222222222219, 0.9111111111111112, 1.0]\nspectral_scales:[1.0, 1.0, 1.0, 1.0, 1.0, 1.0, 1.0, 1.0, 1.0, 1.0]\n        regulariser: 0.010000'
p1512
(lp1513
g3
(g7
S'\xa8\x13\xe1\xbar\xf1\xd9?'
p1514
tp1515
Rp1516
ag3
(g7
S'M\xf8D\x99\x01\xe2\xe6?'
p1517
tp1518
Rp1519
ag3
(g7
S'*\xc8\xcd\xcd4\x01\xe6?'
p1520
tp1521
Rp1522
asS'\n        num_res: 10\nres_sizes:[200 200 200 200 200 200 200 200 200 200]\necho_params:[0.84999999999999998, 0.81111111111111112, 0.77222222222222214, 0.73333333333333328, 0.69444444444444442, 0.65555555555555556, 0.6166666666666667, 0.57777777777777772, 0.53888888888888886, 0.5]\ninput_scales:[1.0, 0.91111111111111109, 0.82222222222222219, 0.73333333333333339, 0.64444444444444438, 0.55555555555555558, 0.46666666666666667, 0.37777777777777777, 0.28888888888888886, 0.20000000000000001]\nspectral_scales:[0.90000000000000002, 0.93888888888888888, 0.97777777777777786, 1.0166666666666666, 1.0555555555555556, 1.0944444444444446, 1.1333333333333333, 1.1722222222222223, 1.2111111111111112, 1.25]\n        regulariser: 0.000100'
p1523
(lp1524
g3
(g7
S'\xee\xef=\xafBd\xe6?'
p1525
tp1526
Rp1527
ag3
(g7
S'\xac\xd0[l\x95\xce\xf1?'
p1528
tp1529
Rp1530
ag3
(g7
S'\xa4\x1f\xc0\xb8\x8c\xef\x01@'
p1531
tp1532
Rp1533
asS'\n        num_res: 10\nres_sizes:[200 200 200 200 200 200 200 200 200 200]\necho_params:[0.84999999999999998, 0.81111111111111112, 0.77222222222222214, 0.73333333333333328, 0.69444444444444442, 0.65555555555555556, 0.6166666666666667, 0.57777777777777772, 0.53888888888888886, 0.5]\ninput_scales:[0.20000000000000001, 0.20000000000000001, 0.20000000000000001, 0.20000000000000001, 0.20000000000000001, 0.20000000000000001, 0.20000000000000001, 0.20000000000000001, 0.20000000000000001, 0.20000000000000001]\nspectral_scales:[0.90000000000000002, 0.87777777777777777, 0.85555555555555551, 0.83333333333333337, 0.81111111111111112, 0.78888888888888886, 0.76666666666666661, 0.74444444444444446, 0.72222222222222221, 0.69999999999999996]\n        regulariser: 0.001000'
p1534
(lp1535
g3
(g7
S'}\xc5q\x9c\xf8\xe7\xee?'
p1536
tp1537
Rp1538
ag3
(g7
S'\xa7\xa2\xca\xbe\xa1:\xed?'
p1539
tp1540
Rp1541
ag3
(g7
S']\xcc*\xa8\xcf\xea\xe0?'
p1542
tp1543
Rp1544
asS'\n        num_res: 10\nres_sizes:[200 200 200 200 200 200 200 200 200 200]\necho_params:[0.84999999999999998, 0.81111111111111112, 0.77222222222222214, 0.73333333333333328, 0.69444444444444442, 0.65555555555555556, 0.6166666666666667, 0.57777777777777772, 0.53888888888888886, 0.5]\ninput_scales:[1.0, 0.91111111111111109, 0.82222222222222219, 0.73333333333333339, 0.64444444444444438, 0.55555555555555558, 0.46666666666666667, 0.37777777777777777, 0.28888888888888886, 0.20000000000000001]\nspectral_scales:[0.5, 0.58333333333333337, 0.66666666666666663, 0.75, 0.83333333333333326, 0.91666666666666663, 1.0, 1.0833333333333333, 1.1666666666666665, 1.25]\n        regulariser: 0.001000'
p1545
(lp1546
g3
(g7
S'\x94\xd2\x0e\xf2\xc6\xb7\x0b@'
p1547
tp1548
Rp1549
ag3
(g7
S'\xe9\x9b\x9eC\xd3K\xf0?'
p1550
tp1551
Rp1552
ag3
(g7
S'7\x0b\xc0+\x9ep\xf1?'
p1553
tp1554
Rp1555
asS'\n        num_res: 10\nres_sizes:[ 50  72  94 116 138 161 183 205 227 250]\necho_params:[0.84999999999999998, 0.81111111111111112, 0.77222222222222214, 0.73333333333333328, 0.69444444444444442, 0.65555555555555556, 0.6166666666666667, 0.57777777777777772, 0.53888888888888886, 0.5]\ninput_scales:[0.5, 0.5, 0.5, 0.5, 0.5, 0.5, 0.5, 0.5, 0.5, 0.5]\nspectral_scales:[0.90000000000000002, 0.87777777777777777, 0.85555555555555551, 0.83333333333333337, 0.81111111111111112, 0.78888888888888886, 0.76666666666666661, 0.74444444444444446, 0.72222222222222221, 0.69999999999999996]\n        regulariser: 0.001000'
p1556
(lp1557
g3
(g7
S'\x1b\x9e\x94n\x1b\x14\xe7?'
p1558
tp1559
Rp1560
ag3
(g7
S'9\n?G\x0cu\xea?'
p1561
tp1562
Rp1563
ag3
(g7
S'Pw\xdf\x14\xbd\xaa\xe4?'
p1564
tp1565
Rp1566
asS'\n        num_res: 10\nres_sizes:[100 111 122 133 144 155 166 177 188 200]\necho_params:[0.84999999999999998, 0.81111111111111112, 0.77222222222222214, 0.73333333333333328, 0.69444444444444442, 0.65555555555555556, 0.6166666666666667, 0.57777777777777772, 0.53888888888888886, 0.5]\ninput_scales:[0.20000000000000001, 0.20000000000000001, 0.20000000000000001, 0.20000000000000001, 0.20000000000000001, 0.20000000000000001, 0.20000000000000001, 0.20000000000000001, 0.20000000000000001, 0.20000000000000001]\nspectral_scales:[0.90000000000000002, 0.93888888888888888, 0.97777777777777786, 1.0166666666666666, 1.0555555555555556, 1.0944444444444446, 1.1333333333333333, 1.1722222222222223, 1.2111111111111112, 1.25]\n        regulariser: 0.001000'
p1567
(lp1568
g3
(g7
S'P\x04q9|\xd5\xe7?'
p1569
tp1570
Rp1571
ag3
(g7
S'\xb9MB\x85\x83\xd9\xd7?'
p1572
tp1573
Rp1574
ag3
(g7
S'\xb0%nN\xc5b\xdd?'
p1575
tp1576
Rp1577
asS'\n        num_res: 10\nres_sizes:[200 200 200 200 200 200 200 200 200 200]\necho_params:[0.84999999999999998, 0.81111111111111112, 0.77222222222222214, 0.73333333333333328, 0.69444444444444442, 0.65555555555555556, 0.6166666666666667, 0.57777777777777772, 0.53888888888888886, 0.5]\ninput_scales:[1.0, 0.91111111111111109, 0.82222222222222219, 0.73333333333333339, 0.64444444444444438, 0.55555555555555558, 0.46666666666666667, 0.37777777777777777, 0.28888888888888886, 0.20000000000000001]\nspectral_scales:[1.0, 1.0, 1.0, 1.0, 1.0, 1.0, 1.0, 1.0, 1.0, 1.0]\n        regulariser: 0.010000'
p1578
(lp1579
g3
(g7
S'\x0b\xae\xda)\xa4E\xf1?'
p1580
tp1581
Rp1582
ag3
(g7
S'C\xb8B\xbc\x93\x99\xe7?'
p1583
tp1584
Rp1585
ag3
(g7
S'\x1e \x94\x1f\xe1[\xe5?'
p1586
tp1587
Rp1588
asS'\n        num_res: 10\nres_sizes:[200 200 200 200 200 200 200 200 200 200]\necho_params:[0.84999999999999998, 0.81111111111111112, 0.77222222222222214, 0.73333333333333328, 0.69444444444444442, 0.65555555555555556, 0.6166666666666667, 0.57777777777777772, 0.53888888888888886, 0.5]\ninput_scales:[0.5, 0.5, 0.5, 0.5, 0.5, 0.5, 0.5, 0.5, 0.5, 0.5]\nspectral_scales:[1.0, 1.0, 1.0, 1.0, 1.0, 1.0, 1.0, 1.0, 1.0, 1.0]\n        regulariser: 0.010000'
p1589
(lp1590
g3
(g7
S'\xa9b\xa2\xcc\xc1\x99\xdf?'
p1591
tp1592
Rp1593
ag3
(g7
S'q70w\xf80\xe7?'
p1594
tp1595
Rp1596
ag3
(g7
S'\xb9;\xd6E\xf0\xac\xe6?'
p1597
tp1598
Rp1599
asS'\n        num_res: 10\nres_sizes:[200 200 200 200 200 200 200 200 200 200]\necho_params:[0.84999999999999998, 0.81111111111111112, 0.77222222222222214, 0.73333333333333328, 0.69444444444444442, 0.65555555555555556, 0.6166666666666667, 0.57777777777777772, 0.53888888888888886, 0.5]\ninput_scales:[0.5, 0.5, 0.5, 0.5, 0.5, 0.5, 0.5, 0.5, 0.5, 0.5]\nspectral_scales:[0.90000000000000002, 0.87777777777777777, 0.85555555555555551, 0.83333333333333337, 0.81111111111111112, 0.78888888888888886, 0.76666666666666661, 0.74444444444444446, 0.72222222222222221, 0.69999999999999996]\n        regulariser: 0.010000'
p1600
(lp1601
g3
(g7
S'\xe8Pd\x95f\xfa\xf3?'
p1602
tp1603
Rp1604
ag3
(g7
S'\xf0WB=&n\xe3?'
p1605
tp1606
Rp1607
ag3
(g7
S'n\xd6\x1c\xf4\xf19\xeb?'
p1608
tp1609
Rp1610
asS'\n        num_res: 10\nres_sizes:[100 111 122 133 144 155 166 177 188 200]\necho_params:[0.84999999999999998, 0.81111111111111112, 0.77222222222222214, 0.73333333333333328, 0.69444444444444442, 0.65555555555555556, 0.6166666666666667, 0.57777777777777772, 0.53888888888888886, 0.5]\ninput_scales:[0.5, 0.5, 0.5, 0.5, 0.5, 0.5, 0.5, 0.5, 0.5, 0.5]\nspectral_scales:[1.0, 1.0, 1.0, 1.0, 1.0, 1.0, 1.0, 1.0, 1.0, 1.0]\n        regulariser: 0.001000'
p1611
(lp1612
g3
(g7
S'\xadR\xd4\xb4\x9c"\xe4?'
p1613
tp1614
Rp1615
ag3
(g7
S't\xcc\xce!\xdcM\xd5?'
p1616
tp1617
Rp1618
ag3
(g7
S'Qs\xbaS\x89z\xe0?'
p1619
tp1620
Rp1621
asS'\n        num_res: 10\nres_sizes:[100 111 122 133 144 155 166 177 188 200]\necho_params:[0.84999999999999998, 0.81111111111111112, 0.77222222222222214, 0.73333333333333328, 0.69444444444444442, 0.65555555555555556, 0.6166666666666667, 0.57777777777777772, 0.53888888888888886, 0.5]\ninput_scales:[0.20000000000000001, 0.28888888888888892, 0.37777777777777777, 0.46666666666666667, 0.55555555555555558, 0.64444444444444449, 0.73333333333333339, 0.82222222222222219, 0.9111111111111112, 1.0]\nspectral_scales:[0.90000000000000002, 0.93888888888888888, 0.97777777777777786, 1.0166666666666666, 1.0555555555555556, 1.0944444444444446, 1.1333333333333333, 1.1722222222222223, 1.2111111111111112, 1.25]\n        regulariser: 0.000100'
p1622
(lp1623
g3
(g7
S'\xc1\x1a\x1f\x08eP\xe9?'
p1624
tp1625
Rp1626
ag3
(g7
S'xpZ?e\x1b\xd9?'
p1627
tp1628
Rp1629
ag3
(g7
S'\x8bg\xb6\xcd\xf1\x1b\xda?'
p1630
tp1631
Rp1632
asS'\n        num_res: 10\nres_sizes:[ 50  72  94 116 138 161 183 205 227 250]\necho_params:[0.84999999999999998, 0.81111111111111112, 0.77222222222222214, 0.73333333333333328, 0.69444444444444442, 0.65555555555555556, 0.6166666666666667, 0.57777777777777772, 0.53888888888888886, 0.5]\ninput_scales:[1.0, 0.91111111111111109, 0.82222222222222219, 0.73333333333333339, 0.64444444444444438, 0.55555555555555558, 0.46666666666666667, 0.37777777777777777, 0.28888888888888886, 0.20000000000000001]\nspectral_scales:[1.0, 1.0, 1.0, 1.0, 1.0, 1.0, 1.0, 1.0, 1.0, 1.0]\n        regulariser: 0.010000'
p1633
(lp1634
g3
(g7
S'\xe2\xa2\xd11\x0e\x15\xe5?'
p1635
tp1636
Rp1637
ag3
(g7
S'\x83\xb53\x8f\xce=\xea?'
p1638
tp1639
Rp1640
ag3
(g7
S'\x1c*8K!\x99\xe8?'
p1641
tp1642
Rp1643
asS'\n        num_res: 10\nres_sizes:[200 200 200 200 200 200 200 200 200 200]\necho_params:[0.84999999999999998, 0.81111111111111112, 0.77222222222222214, 0.73333333333333328, 0.69444444444444442, 0.65555555555555556, 0.6166666666666667, 0.57777777777777772, 0.53888888888888886, 0.5]\ninput_scales:[1.0, 0.91111111111111109, 0.82222222222222219, 0.73333333333333339, 0.64444444444444438, 0.55555555555555558, 0.46666666666666667, 0.37777777777777777, 0.28888888888888886, 0.20000000000000001]\nspectral_scales:[0.90000000000000002, 0.87777777777777777, 0.85555555555555551, 0.83333333333333337, 0.81111111111111112, 0.78888888888888886, 0.76666666666666661, 0.74444444444444446, 0.72222222222222221, 0.69999999999999996]\n        regulariser: 0.001000'
p1644
(lp1645
g3
(g7
S'\xbc\xe6\x1d^s\x05\x03@'
p1646
tp1647
Rp1648
ag3
(g7
S'\x983e\xb7\xec\xb3\xe4?'
p1649
tp1650
Rp1651
ag3
(g7
S'\x1d\xf66\x12t\xa9\xf4?'
p1652
tp1653
Rp1654
as.