(dp0
S'\n        num_res: 10\nres_sizes:[200 200 200 200 200 200 200 200 200 200]\necho_params:[0.84999999999999998, 0.84999999999999998, 0.84999999999999998, 0.84999999999999998, 0.84999999999999998, 0.84999999999999998, 0.84999999999999998, 0.84999999999999998, 0.84999999999999998, 0.84999999999999998]\ninput_scales:[0.20000000000000001, 0.28888888888888892, 0.37777777777777777, 0.46666666666666667, 0.55555555555555558, 0.64444444444444449, 0.73333333333333339, 0.82222222222222219, 0.9111111111111112, 1.0]\nspectral_scales:[0.90000000000000002, 0.93888888888888888, 0.97777777777777786, 1.0166666666666666, 1.0555555555555556, 1.0944444444444446, 1.1333333333333333, 1.1722222222222223, 1.2111111111111112, 1.25]\n        regulariser: 0.010000'
p1
(lp2
cnumpy.core.multiarray
scalar
p3
(cnumpy
dtype
p4
(S'f8'
p5
I0
I1
tp6
Rp7
(I3
S'<'
p8
NNNI-1
I-1
I0
tp9
bS'\x85\xbe\x83\xd6\x0bp\xee?'
p10
tp11
Rp12
ag3
(g7
S'\xd4\x1bSb\r\x15\xee?'
p13
tp14
Rp15
ag3
(g7
S'\x1f\x13\xcaR\xd0\x87\xf0?'
p16
tp17
Rp18
asS'\n        num_res: 10\nres_sizes:[100 111 122 133 144 155 166 177 188 200]\necho_params:[0.84999999999999998, 0.84999999999999998, 0.84999999999999998, 0.84999999999999998, 0.84999999999999998, 0.84999999999999998, 0.84999999999999998, 0.84999999999999998, 0.84999999999999998, 0.84999999999999998]\ninput_scales:[1.0, 0.91111111111111109, 0.82222222222222219, 0.73333333333333339, 0.64444444444444438, 0.55555555555555558, 0.46666666666666667, 0.37777777777777777, 0.28888888888888886, 0.20000000000000001]\nspectral_scales:[1.0, 1.0, 1.0, 1.0, 1.0, 1.0, 1.0, 1.0, 1.0, 1.0]\n        regulariser: 0.010000'
p19
(lp20
g3
(g7
S'\x1f\r\xa7\x8b\x1er\xf3?'
p21
tp22
Rp23
ag3
(g7
S'\xcd\xf0\xf2\xbb[U\xf8?'
p24
tp25
Rp26
ag3
(g7
S'\xec\xa477\x9cJ\xee?'
p27
tp28
Rp29
asS'\n        num_res: 10\nres_sizes:[200 200 200 200 200 200 200 200 200 200]\necho_params:[0.84999999999999998, 0.81111111111111112, 0.77222222222222214, 0.73333333333333328, 0.69444444444444442, 0.65555555555555556, 0.6166666666666667, 0.57777777777777772, 0.53888888888888886, 0.5]\ninput_scales:[1.0, 0.91111111111111109, 0.82222222222222219, 0.73333333333333339, 0.64444444444444438, 0.55555555555555558, 0.46666666666666667, 0.37777777777777777, 0.28888888888888886, 0.20000000000000001]\nspectral_scales:[1.0, 1.0, 1.0, 1.0, 1.0, 1.0, 1.0, 1.0, 1.0, 1.0]\n        regulariser: 0.000100'
p30
(lp31
g3
(g7
S'\x1fU\xe7R\x14i @'
p32
tp33
Rp34
ag3
(g7
S'\x03\x93\xe2\x8e\x9d*!@'
p35
tp36
Rp37
ag3
(g7
S'b\x064{\xf1\xce\x1e@'
p38
tp39
Rp40
asS'\n        num_res: 10\nres_sizes:[200 200 200 200 200 200 200 200 200 200]\necho_params:[0.84999999999999998, 0.84999999999999998, 0.84999999999999998, 0.84999999999999998, 0.84999999999999998, 0.84999999999999998, 0.84999999999999998, 0.84999999999999998, 0.84999999999999998, 0.84999999999999998]\ninput_scales:[0.5, 0.5, 0.5, 0.5, 0.5, 0.5, 0.5, 0.5, 0.5, 0.5]\nspectral_scales:[0.5, 0.58333333333333337, 0.66666666666666663, 0.75, 0.83333333333333326, 0.91666666666666663, 1.0, 1.0833333333333333, 1.1666666666666665, 1.25]\n        regulariser: 0.010000'
p41
(lp42
g3
(g7
S'\x0b\xbb"3\xf2\xf1\x1b@'
p43
tp44
Rp45
ag3
(g7
S'\xf2\xd0)\x91\xe8\xa3\x07@'
p46
tp47
Rp48
ag3
(g7
S'\x84X2PR\xa4*@'
p49
tp50
Rp51
asS'\n        num_res: 10\nres_sizes:[ 50  72  94 116 138 161 183 205 227 250]\necho_params:[0.84999999999999998, 0.84999999999999998, 0.84999999999999998, 0.84999999999999998, 0.84999999999999998, 0.84999999999999998, 0.84999999999999998, 0.84999999999999998, 0.84999999999999998, 0.84999999999999998]\ninput_scales:[0.5, 0.5, 0.5, 0.5, 0.5, 0.5, 0.5, 0.5, 0.5, 0.5]\nspectral_scales:[1.0, 1.0, 1.0, 1.0, 1.0, 1.0, 1.0, 1.0, 1.0, 1.0]\n        regulariser: 0.001000'
p52
(lp53
g3
(g7
S'\xad\xe3\xf7G\xbb2!@'
p54
tp55
Rp56
ag3
(g7
S'\xa1y\xdf\xb6\xcf\xa0)@'
p57
tp58
Rp59
ag3
(g7
S'U\xe6\x83k\xbf\x9c\xec?'
p60
tp61
Rp62
asS'\n        num_res: 10\nres_sizes:[200 200 200 200 200 200 200 200 200 200]\necho_params:[0.84999999999999998, 0.81111111111111112, 0.77222222222222214, 0.73333333333333328, 0.69444444444444442, 0.65555555555555556, 0.6166666666666667, 0.57777777777777772, 0.53888888888888886, 0.5]\ninput_scales:[0.20000000000000001, 0.20000000000000001, 0.20000000000000001, 0.20000000000000001, 0.20000000000000001, 0.20000000000000001, 0.20000000000000001, 0.20000000000000001, 0.20000000000000001, 0.20000000000000001]\nspectral_scales:[0.5, 0.58333333333333337, 0.66666666666666663, 0.75, 0.83333333333333326, 0.91666666666666663, 1.0, 1.0833333333333333, 1.1666666666666665, 1.25]\n        regulariser: 0.001000'
p63
(lp64
g3
(g7
S'cQ\xa0\xb8v\xd3\xeb?'
p65
tp66
Rp67
ag3
(g7
S'm\x99\xd4\xb1\xf9\xc8\xf0?'
p68
tp69
Rp70
ag3
(g7
S'z.a\r\xae~\xec?'
p71
tp72
Rp73
asS'\n        num_res: 10\nres_sizes:[ 50  72  94 116 138 161 183 205 227 250]\necho_params:[0.84999999999999998, 0.81111111111111112, 0.77222222222222214, 0.73333333333333328, 0.69444444444444442, 0.65555555555555556, 0.6166666666666667, 0.57777777777777772, 0.53888888888888886, 0.5]\ninput_scales:[0.20000000000000001, 0.28888888888888892, 0.37777777777777777, 0.46666666666666667, 0.55555555555555558, 0.64444444444444449, 0.73333333333333339, 0.82222222222222219, 0.9111111111111112, 1.0]\nspectral_scales:[1.0, 1.0, 1.0, 1.0, 1.0, 1.0, 1.0, 1.0, 1.0, 1.0]\n        regulariser: 0.001000'
p74
(lp75
g3
(g7
S'!\x16\x1f\x1c>E\xf0?'
p76
tp77
Rp78
ag3
(g7
S',\xf6~\xf2\x98\x84\xe3?'
p79
tp80
Rp81
ag3
(g7
S'\xe3\xb8g\x8b\x15\x0b\xee?'
p82
tp83
Rp84
asS'\n        num_res: 10\nres_sizes:[200 200 200 200 200 200 200 200 200 200]\necho_params:[0.84999999999999998, 0.84999999999999998, 0.84999999999999998, 0.84999999999999998, 0.84999999999999998, 0.84999999999999998, 0.84999999999999998, 0.84999999999999998, 0.84999999999999998, 0.84999999999999998]\ninput_scales:[1.0, 0.91111111111111109, 0.82222222222222219, 0.73333333333333339, 0.64444444444444438, 0.55555555555555558, 0.46666666666666667, 0.37777777777777777, 0.28888888888888886, 0.20000000000000001]\nspectral_scales:[1.0, 1.0, 1.0, 1.0, 1.0, 1.0, 1.0, 1.0, 1.0, 1.0]\n        regulariser: 0.010000'
p85
(lp86
g3
(g7
S'n\xa6\xecE\xe8~\xef?'
p87
tp88
Rp89
ag3
(g7
S'\x16PE\xf6\x0c)\xed?'
p90
tp91
Rp92
ag3
(g7
S'\x8d`\x12m\xa0y\x13@'
p93
tp94
Rp95
asS'\n        num_res: 10\nres_sizes:[100 111 122 133 144 155 166 177 188 200]\necho_params:[0.84999999999999998, 0.84999999999999998, 0.84999999999999998, 0.84999999999999998, 0.84999999999999998, 0.84999999999999998, 0.84999999999999998, 0.84999999999999998, 0.84999999999999998, 0.84999999999999998]\ninput_scales:[0.5, 0.5, 0.5, 0.5, 0.5, 0.5, 0.5, 0.5, 0.5, 0.5]\nspectral_scales:[1.0, 1.0, 1.0, 1.0, 1.0, 1.0, 1.0, 1.0, 1.0, 1.0]\n        regulariser: 0.001000'
p96
(lp97
g3
(g7
S'\x9b\x16Z\xd0\xd6\x8d\xf4?'
p98
tp99
Rp100
ag3
(g7
S'\xf8,\x8b\x84s)\xed?'
p101
tp102
Rp103
ag3
(g7
S'\xd5_]\x11+\xb2\x16@'
p104
tp105
Rp106
asS'\n        num_res: 10\nres_sizes:[ 50  72  94 116 138 161 183 205 227 250]\necho_params:[0.84999999999999998, 0.81111111111111112, 0.77222222222222214, 0.73333333333333328, 0.69444444444444442, 0.65555555555555556, 0.6166666666666667, 0.57777777777777772, 0.53888888888888886, 0.5]\ninput_scales:[1.0, 0.91111111111111109, 0.82222222222222219, 0.73333333333333339, 0.64444444444444438, 0.55555555555555558, 0.46666666666666667, 0.37777777777777777, 0.28888888888888886, 0.20000000000000001]\nspectral_scales:[0.5, 0.58333333333333337, 0.66666666666666663, 0.75, 0.83333333333333326, 0.91666666666666663, 1.0, 1.0833333333333333, 1.1666666666666665, 1.25]\n        regulariser: 0.010000'
p107
(lp108
g3
(g7
S'\x01m\xda\xfe\xebR\xf8?'
p109
tp110
Rp111
ag3
(g7
S'33\x01S\x8b\xc3\xea?'
p112
tp113
Rp114
ag3
(g7
S'\xb1\x19\x82\x8c\x9a\x17\xf9?'
p115
tp116
Rp117
asS'\n        num_res: 10\nres_sizes:[ 50  72  94 116 138 161 183 205 227 250]\necho_params:[0.84999999999999998, 0.81111111111111112, 0.77222222222222214, 0.73333333333333328, 0.69444444444444442, 0.65555555555555556, 0.6166666666666667, 0.57777777777777772, 0.53888888888888886, 0.5]\ninput_scales:[0.20000000000000001, 0.20000000000000001, 0.20000000000000001, 0.20000000000000001, 0.20000000000000001, 0.20000000000000001, 0.20000000000000001, 0.20000000000000001, 0.20000000000000001, 0.20000000000000001]\nspectral_scales:[0.90000000000000002, 0.87777777777777777, 0.85555555555555551, 0.83333333333333337, 0.81111111111111112, 0.78888888888888886, 0.76666666666666661, 0.74444444444444446, 0.72222222222222221, 0.69999999999999996]\n        regulariser: 0.010000'
p118
(lp119
g3
(g7
S'f\x03\x8b\xd6\xc7Y\xf3?'
p120
tp121
Rp122
ag3
(g7
S'w\xfb\n\xf0Z\x04\xea?'
p123
tp124
Rp125
ag3
(g7
S'6\xbb|\\<\x1d\xec?'
p126
tp127
Rp128
asS'\n        num_res: 10\nres_sizes:[ 50  72  94 116 138 161 183 205 227 250]\necho_params:[0.84999999999999998, 0.84999999999999998, 0.84999999999999998, 0.84999999999999998, 0.84999999999999998, 0.84999999999999998, 0.84999999999999998, 0.84999999999999998, 0.84999999999999998, 0.84999999999999998]\ninput_scales:[0.20000000000000001, 0.28888888888888892, 0.37777777777777777, 0.46666666666666667, 0.55555555555555558, 0.64444444444444449, 0.73333333333333339, 0.82222222222222219, 0.9111111111111112, 1.0]\nspectral_scales:[1.0, 1.0, 1.0, 1.0, 1.0, 1.0, 1.0, 1.0, 1.0, 1.0]\n        regulariser: 0.001000'
p129
(lp130
g3
(g7
S'\xf7Lc\xb9d\xdf\xe8?'
p131
tp132
Rp133
ag3
(g7
S'\xff\xaa\xe0P\xee\x1f\xec?'
p134
tp135
Rp136
ag3
(g7
S'\xf1\x8a\xbb\x9b\x89\xb0\xf2?'
p137
tp138
Rp139
asS'\n        num_res: 10\nres_sizes:[100 111 122 133 144 155 166 177 188 200]\necho_params:[0.84999999999999998, 0.81111111111111112, 0.77222222222222214, 0.73333333333333328, 0.69444444444444442, 0.65555555555555556, 0.6166666666666667, 0.57777777777777772, 0.53888888888888886, 0.5]\ninput_scales:[0.5, 0.5, 0.5, 0.5, 0.5, 0.5, 0.5, 0.5, 0.5, 0.5]\nspectral_scales:[0.90000000000000002, 0.93888888888888888, 0.97777777777777786, 1.0166666666666666, 1.0555555555555556, 1.0944444444444446, 1.1333333333333333, 1.1722222222222223, 1.2111111111111112, 1.25]\n        regulariser: 0.000100'
p140
(lp141
g3
(g7
S'\xc0[\xde,\xa7\x14\xf4?'
p142
tp143
Rp144
ag3
(g7
S';\xcf\xd8\xfa/\xc9\xe9?'
p145
tp146
Rp147
ag3
(g7
S'\x8f8~\x0e~{\xec?'
p148
tp149
Rp150
asS'\n        num_res: 10\nres_sizes:[100 111 122 133 144 155 166 177 188 200]\necho_params:[0.84999999999999998, 0.81111111111111112, 0.77222222222222214, 0.73333333333333328, 0.69444444444444442, 0.65555555555555556, 0.6166666666666667, 0.57777777777777772, 0.53888888888888886, 0.5]\ninput_scales:[1.0, 0.91111111111111109, 0.82222222222222219, 0.73333333333333339, 0.64444444444444438, 0.55555555555555558, 0.46666666666666667, 0.37777777777777777, 0.28888888888888886, 0.20000000000000001]\nspectral_scales:[0.90000000000000002, 0.87777777777777777, 0.85555555555555551, 0.83333333333333337, 0.81111111111111112, 0.78888888888888886, 0.76666666666666661, 0.74444444444444446, 0.72222222222222221, 0.69999999999999996]\n        regulariser: 0.001000'
p151
(lp152
g3
(g7
S'\xd4\xb6\xd6\xb7\xd2\xc7#@'
p153
tp154
Rp155
ag3
(g7
S'\x94\r\xae\x04"-\xf4?'
p156
tp157
Rp158
ag3
(g7
S'/\xd5\x10<\x06\x81\xf3?'
p159
tp160
Rp161
asS'\n        num_res: 10\nres_sizes:[100 111 122 133 144 155 166 177 188 200]\necho_params:[0.84999999999999998, 0.81111111111111112, 0.77222222222222214, 0.73333333333333328, 0.69444444444444442, 0.65555555555555556, 0.6166666666666667, 0.57777777777777772, 0.53888888888888886, 0.5]\ninput_scales:[0.20000000000000001, 0.20000000000000001, 0.20000000000000001, 0.20000000000000001, 0.20000000000000001, 0.20000000000000001, 0.20000000000000001, 0.20000000000000001, 0.20000000000000001, 0.20000000000000001]\nspectral_scales:[0.5, 0.58333333333333337, 0.66666666666666663, 0.75, 0.83333333333333326, 0.91666666666666663, 1.0, 1.0833333333333333, 1.1666666666666665, 1.25]\n        regulariser: 0.010000'
p162
(lp163
g3
(g7
S'\xa7P\xe2f\xb1\xa2\xf8?'
p164
tp165
Rp166
ag3
(g7
S'*\x8a6\x9d"\xcb\xea?'
p167
tp168
Rp169
ag3
(g7
S'\x0e@\xba\x04B\xb3Y@'
p170
tp171
Rp172
asS'\n        num_res: 10\nres_sizes:[100 111 122 133 144 155 166 177 188 200]\necho_params:[0.84999999999999998, 0.84999999999999998, 0.84999999999999998, 0.84999999999999998, 0.84999999999999998, 0.84999999999999998, 0.84999999999999998, 0.84999999999999998, 0.84999999999999998, 0.84999999999999998]\ninput_scales:[0.20000000000000001, 0.28888888888888892, 0.37777777777777777, 0.46666666666666667, 0.55555555555555558, 0.64444444444444449, 0.73333333333333339, 0.82222222222222219, 0.9111111111111112, 1.0]\nspectral_scales:[0.5, 0.58333333333333337, 0.66666666666666663, 0.75, 0.83333333333333326, 0.91666666666666663, 1.0, 1.0833333333333333, 1.1666666666666665, 1.25]\n        regulariser: 0.010000'
p173
(lp174
g3
(g7
S'\xe0\xaf\x14\xbc\x97\x0c6@'
p175
tp176
Rp177
ag3
(g7
S'3*\x99s\xe8z\x18@'
p178
tp179
Rp180
ag3
(g7
S'\xc4\x9b\x1f\x17P\x14\xf4?'
p181
tp182
Rp183
asS'\n        num_res: 10\nres_sizes:[100 111 122 133 144 155 166 177 188 200]\necho_params:[0.84999999999999998, 0.84999999999999998, 0.84999999999999998, 0.84999999999999998, 0.84999999999999998, 0.84999999999999998, 0.84999999999999998, 0.84999999999999998, 0.84999999999999998, 0.84999999999999998]\ninput_scales:[0.20000000000000001, 0.20000000000000001, 0.20000000000000001, 0.20000000000000001, 0.20000000000000001, 0.20000000000000001, 0.20000000000000001, 0.20000000000000001, 0.20000000000000001, 0.20000000000000001]\nspectral_scales:[1.0, 1.0, 1.0, 1.0, 1.0, 1.0, 1.0, 1.0, 1.0, 1.0]\n        regulariser: 0.001000'
p184
(lp185
g3
(g7
S'\x19\x18Cf\x800\xf7?'
p186
tp187
Rp188
ag3
(g7
S'\xb2Dl\xf8\xa7\x07\xf2?'
p189
tp190
Rp191
ag3
(g7
S'\xe6\xb5\xa2mh@\xde?'
p192
tp193
Rp194
asS'\n        num_res: 10\nres_sizes:[200 200 200 200 200 200 200 200 200 200]\necho_params:[0.84999999999999998, 0.81111111111111112, 0.77222222222222214, 0.73333333333333328, 0.69444444444444442, 0.65555555555555556, 0.6166666666666667, 0.57777777777777772, 0.53888888888888886, 0.5]\ninput_scales:[1.0, 0.91111111111111109, 0.82222222222222219, 0.73333333333333339, 0.64444444444444438, 0.55555555555555558, 0.46666666666666667, 0.37777777777777777, 0.28888888888888886, 0.20000000000000001]\nspectral_scales:[0.90000000000000002, 0.93888888888888888, 0.97777777777777786, 1.0166666666666666, 1.0555555555555556, 1.0944444444444446, 1.1333333333333333, 1.1722222222222223, 1.2111111111111112, 1.25]\n        regulariser: 0.010000'
p195
(lp196
g3
(g7
S'S&1\xd5\x93\xe1\xf0?'
p197
tp198
Rp199
ag3
(g7
S'\x8e4\xd4\xc4\x8d\xfc\xf3?'
p200
tp201
Rp202
ag3
(g7
S'k\xc4_\x9e\xc0Y\xea?'
p203
tp204
Rp205
asS'\n        num_res: 10\nres_sizes:[ 50  72  94 116 138 161 183 205 227 250]\necho_params:[0.84999999999999998, 0.84999999999999998, 0.84999999999999998, 0.84999999999999998, 0.84999999999999998, 0.84999999999999998, 0.84999999999999998, 0.84999999999999998, 0.84999999999999998, 0.84999999999999998]\ninput_scales:[1.0, 0.91111111111111109, 0.82222222222222219, 0.73333333333333339, 0.64444444444444438, 0.55555555555555558, 0.46666666666666667, 0.37777777777777777, 0.28888888888888886, 0.20000000000000001]\nspectral_scales:[0.90000000000000002, 0.93888888888888888, 0.97777777777777786, 1.0166666666666666, 1.0555555555555556, 1.0944444444444446, 1.1333333333333333, 1.1722222222222223, 1.2111111111111112, 1.25]\n        regulariser: 0.010000'
p206
(lp207
g3
(g7
S'G\x81\xe4\x98y\x02\x1c@'
p208
tp209
Rp210
ag3
(g7
S'U^\x1a\xf1\xf1\x03\x17@'
p211
tp212
Rp213
ag3
(g7
S'\xb1h\xb9b\x01\x95\xf0?'
p214
tp215
Rp216
asS'\n        num_res: 10\nres_sizes:[ 50  72  94 116 138 161 183 205 227 250]\necho_params:[0.84999999999999998, 0.81111111111111112, 0.77222222222222214, 0.73333333333333328, 0.69444444444444442, 0.65555555555555556, 0.6166666666666667, 0.57777777777777772, 0.53888888888888886, 0.5]\ninput_scales:[0.5, 0.5, 0.5, 0.5, 0.5, 0.5, 0.5, 0.5, 0.5, 0.5]\nspectral_scales:[0.5, 0.58333333333333337, 0.66666666666666663, 0.75, 0.83333333333333326, 0.91666666666666663, 1.0, 1.0833333333333333, 1.1666666666666665, 1.25]\n        regulariser: 0.010000'
p217
(lp218
g3
(g7
S'\xd2v\xc8\xc8\x02\x86\xf3?'
p219
tp220
Rp221
ag3
(g7
S'\x95\x0eW\xc2\t\xdd\xe9?'
p222
tp223
Rp224
ag3
(g7
S'\xacE\x90\x9e\xc8\xd5\xe9?'
p225
tp226
Rp227
asS'\n        num_res: 10\nres_sizes:[ 50  72  94 116 138 161 183 205 227 250]\necho_params:[0.84999999999999998, 0.81111111111111112, 0.77222222222222214, 0.73333333333333328, 0.69444444444444442, 0.65555555555555556, 0.6166666666666667, 0.57777777777777772, 0.53888888888888886, 0.5]\ninput_scales:[0.20000000000000001, 0.20000000000000001, 0.20000000000000001, 0.20000000000000001, 0.20000000000000001, 0.20000000000000001, 0.20000000000000001, 0.20000000000000001, 0.20000000000000001, 0.20000000000000001]\nspectral_scales:[0.90000000000000002, 0.93888888888888888, 0.97777777777777786, 1.0166666666666666, 1.0555555555555556, 1.0944444444444446, 1.1333333333333333, 1.1722222222222223, 1.2111111111111112, 1.25]\n        regulariser: 0.001000'
p228
(lp229
g3
(g7
S'\xfc\xf0;\xe7o\xc5\xf0?'
p230
tp231
Rp232
ag3
(g7
S'\xbd0\x8b\xb8\x17\xcd\xe8?'
p233
tp234
Rp235
ag3
(g7
S'\x02ml!\x03\xf2\xf0?'
p236
tp237
Rp238
asS'\n        num_res: 10\nres_sizes:[ 50  72  94 116 138 161 183 205 227 250]\necho_params:[0.84999999999999998, 0.84999999999999998, 0.84999999999999998, 0.84999999999999998, 0.84999999999999998, 0.84999999999999998, 0.84999999999999998, 0.84999999999999998, 0.84999999999999998, 0.84999999999999998]\ninput_scales:[1.0, 0.91111111111111109, 0.82222222222222219, 0.73333333333333339, 0.64444444444444438, 0.55555555555555558, 0.46666666666666667, 0.37777777777777777, 0.28888888888888886, 0.20000000000000001]\nspectral_scales:[1.0, 1.0, 1.0, 1.0, 1.0, 1.0, 1.0, 1.0, 1.0, 1.0]\n        regulariser: 0.001000'
p239
(lp240
g3
(g7
S'X\x9b\x05x~\x80-@'
p241
tp242
Rp243
ag3
(g7
S'U\xefV\x87\x07o\x0f@'
p244
tp245
Rp246
ag3
(g7
S'\x80\xdd\xb2\xd6\t\x8e/@'
p247
tp248
Rp249
asS'\n        num_res: 10\nres_sizes:[ 50  72  94 116 138 161 183 205 227 250]\necho_params:[0.84999999999999998, 0.81111111111111112, 0.77222222222222214, 0.73333333333333328, 0.69444444444444442, 0.65555555555555556, 0.6166666666666667, 0.57777777777777772, 0.53888888888888886, 0.5]\ninput_scales:[0.5, 0.5, 0.5, 0.5, 0.5, 0.5, 0.5, 0.5, 0.5, 0.5]\nspectral_scales:[1.0, 1.0, 1.0, 1.0, 1.0, 1.0, 1.0, 1.0, 1.0, 1.0]\n        regulariser: 0.001000'
p250
(lp251
g3
(g7
S']\x89\xbd\xeb\x8c3\xe9?'
p252
tp253
Rp254
ag3
(g7
S'P?\xbf^f\x84\xea?'
p255
tp256
Rp257
ag3
(g7
S'\xfc\xc4\xac\xd2~\x9d\xdd?'
p258
tp259
Rp260
asS'\n        num_res: 10\nres_sizes:[ 50  72  94 116 138 161 183 205 227 250]\necho_params:[0.84999999999999998, 0.84999999999999998, 0.84999999999999998, 0.84999999999999998, 0.84999999999999998, 0.84999999999999998, 0.84999999999999998, 0.84999999999999998, 0.84999999999999998, 0.84999999999999998]\ninput_scales:[0.20000000000000001, 0.28888888888888892, 0.37777777777777777, 0.46666666666666667, 0.55555555555555558, 0.64444444444444449, 0.73333333333333339, 0.82222222222222219, 0.9111111111111112, 1.0]\nspectral_scales:[0.90000000000000002, 0.87777777777777777, 0.85555555555555551, 0.83333333333333337, 0.81111111111111112, 0.78888888888888886, 0.76666666666666661, 0.74444444444444446, 0.72222222222222221, 0.69999999999999996]\n        regulariser: 0.010000'
p261
(lp262
g3
(g7
S'\xa2[\xe5\xe9\xd5\x9f\xe8?'
p263
tp264
Rp265
ag3
(g7
S'f\xd2\x00\x7f\xca\xdf\xec?'
p266
tp267
Rp268
ag3
(g7
S'\xa7S\xbb\x99K\xf1\xf2?'
p269
tp270
Rp271
asS'\n        num_res: 10\nres_sizes:[ 50  72  94 116 138 161 183 205 227 250]\necho_params:[0.84999999999999998, 0.81111111111111112, 0.77222222222222214, 0.73333333333333328, 0.69444444444444442, 0.65555555555555556, 0.6166666666666667, 0.57777777777777772, 0.53888888888888886, 0.5]\ninput_scales:[0.20000000000000001, 0.20000000000000001, 0.20000000000000001, 0.20000000000000001, 0.20000000000000001, 0.20000000000000001, 0.20000000000000001, 0.20000000000000001, 0.20000000000000001, 0.20000000000000001]\nspectral_scales:[0.90000000000000002, 0.93888888888888888, 0.97777777777777786, 1.0166666666666666, 1.0555555555555556, 1.0944444444444446, 1.1333333333333333, 1.1722222222222223, 1.2111111111111112, 1.25]\n        regulariser: 0.010000'
p272
(lp273
g3
(g7
S'\xaa\x1b\x1bma\xb5\xe7?'
p274
tp275
Rp276
ag3
(g7
S'\xb8\xa2\xf5b\xf2^:@'
p277
tp278
Rp279
ag3
(g7
S'\xe7k\xc7G\xcd\xa9\xe6?'
p280
tp281
Rp282
asS'\n        num_res: 10\nres_sizes:[200 200 200 200 200 200 200 200 200 200]\necho_params:[0.84999999999999998, 0.81111111111111112, 0.77222222222222214, 0.73333333333333328, 0.69444444444444442, 0.65555555555555556, 0.6166666666666667, 0.57777777777777772, 0.53888888888888886, 0.5]\ninput_scales:[0.20000000000000001, 0.28888888888888892, 0.37777777777777777, 0.46666666666666667, 0.55555555555555558, 0.64444444444444449, 0.73333333333333339, 0.82222222222222219, 0.9111111111111112, 1.0]\nspectral_scales:[1.0, 1.0, 1.0, 1.0, 1.0, 1.0, 1.0, 1.0, 1.0, 1.0]\n        regulariser: 0.010000'
p283
(lp284
g3
(g7
S'0\xf9\x17\xf1\xef\xa8\xe6?'
p285
tp286
Rp287
ag3
(g7
S'\xe2o\xbcj\xd4\x9b\xe8?'
p288
tp289
Rp290
ag3
(g7
S'\xec\x08\x01M\x92D\xe8?'
p291
tp292
Rp293
asS'\n        num_res: 10\nres_sizes:[100 111 122 133 144 155 166 177 188 200]\necho_params:[0.84999999999999998, 0.84999999999999998, 0.84999999999999998, 0.84999999999999998, 0.84999999999999998, 0.84999999999999998, 0.84999999999999998, 0.84999999999999998, 0.84999999999999998, 0.84999999999999998]\ninput_scales:[0.5, 0.5, 0.5, 0.5, 0.5, 0.5, 0.5, 0.5, 0.5, 0.5]\nspectral_scales:[0.90000000000000002, 0.87777777777777777, 0.85555555555555551, 0.83333333333333337, 0.81111111111111112, 0.78888888888888886, 0.76666666666666661, 0.74444444444444446, 0.72222222222222221, 0.69999999999999996]\n        regulariser: 0.001000'
p294
(lp295
g3
(g7
S'\xff\xedB\x1d\x19\xb5\x14@'
p296
tp297
Rp298
ag3
(g7
S'UT\x01\x1a\t\xba\xf5?'
p299
tp300
Rp301
ag3
(g7
S'j\xa5z?q]"@'
p302
tp303
Rp304
asS'\n        num_res: 10\nres_sizes:[100 111 122 133 144 155 166 177 188 200]\necho_params:[0.84999999999999998, 0.81111111111111112, 0.77222222222222214, 0.73333333333333328, 0.69444444444444442, 0.65555555555555556, 0.6166666666666667, 0.57777777777777772, 0.53888888888888886, 0.5]\ninput_scales:[0.20000000000000001, 0.28888888888888892, 0.37777777777777777, 0.46666666666666667, 0.55555555555555558, 0.64444444444444449, 0.73333333333333339, 0.82222222222222219, 0.9111111111111112, 1.0]\nspectral_scales:[0.5, 0.58333333333333337, 0.66666666666666663, 0.75, 0.83333333333333326, 0.91666666666666663, 1.0, 1.0833333333333333, 1.1666666666666665, 1.25]\n        regulariser: 0.001000'
p305
(lp306
g3
(g7
S'\x85O\xc8;\x99"$@'
p307
tp308
Rp309
ag3
(g7
S'\n\xff\xfd\xbf\xc8\n\xf6?'
p310
tp311
Rp312
ag3
(g7
S'\xc7\xb9M|\xcah\xf1?'
p313
tp314
Rp315
asS'\n        num_res: 10\nres_sizes:[ 50  72  94 116 138 161 183 205 227 250]\necho_params:[0.84999999999999998, 0.81111111111111112, 0.77222222222222214, 0.73333333333333328, 0.69444444444444442, 0.65555555555555556, 0.6166666666666667, 0.57777777777777772, 0.53888888888888886, 0.5]\ninput_scales:[0.20000000000000001, 0.28888888888888892, 0.37777777777777777, 0.46666666666666667, 0.55555555555555558, 0.64444444444444449, 0.73333333333333339, 0.82222222222222219, 0.9111111111111112, 1.0]\nspectral_scales:[0.90000000000000002, 0.93888888888888888, 0.97777777777777786, 1.0166666666666666, 1.0555555555555556, 1.0944444444444446, 1.1333333333333333, 1.1722222222222223, 1.2111111111111112, 1.25]\n        regulariser: 0.000100'
p316
(lp317
g3
(g7
S'\xa0H\xceHE\x92\xe7?'
p318
tp319
Rp320
ag3
(g7
S'\x9e{\x8e\xdcOR\xf0?'
p321
tp322
Rp323
ag3
(g7
S'|b\xb8\x17A\xa2\xea?'
p324
tp325
Rp326
asS'\n        num_res: 10\nres_sizes:[ 50  72  94 116 138 161 183 205 227 250]\necho_params:[0.84999999999999998, 0.84999999999999998, 0.84999999999999998, 0.84999999999999998, 0.84999999999999998, 0.84999999999999998, 0.84999999999999998, 0.84999999999999998, 0.84999999999999998, 0.84999999999999998]\ninput_scales:[0.20000000000000001, 0.28888888888888892, 0.37777777777777777, 0.46666666666666667, 0.55555555555555558, 0.64444444444444449, 0.73333333333333339, 0.82222222222222219, 0.9111111111111112, 1.0]\nspectral_scales:[0.90000000000000002, 0.87777777777777777, 0.85555555555555551, 0.83333333333333337, 0.81111111111111112, 0.78888888888888886, 0.76666666666666661, 0.74444444444444446, 0.72222222222222221, 0.69999999999999996]\n        regulariser: 0.001000'
p327
(lp328
g3
(g7
S'\xbd!%\xb1\xdc-\xf1?'
p329
tp330
Rp331
ag3
(g7
S'w\x96\xf3\xc6\xa7E\xe8?'
p332
tp333
Rp334
ag3
(g7
S'\xd0\x9a/\xaf\xd6R\xf2?'
p335
tp336
Rp337
asS'\n        num_res: 10\nres_sizes:[ 50  72  94 116 138 161 183 205 227 250]\necho_params:[0.84999999999999998, 0.84999999999999998, 0.84999999999999998, 0.84999999999999998, 0.84999999999999998, 0.84999999999999998, 0.84999999999999998, 0.84999999999999998, 0.84999999999999998, 0.84999999999999998]\ninput_scales:[0.20000000000000001, 0.20000000000000001, 0.20000000000000001, 0.20000000000000001, 0.20000000000000001, 0.20000000000000001, 0.20000000000000001, 0.20000000000000001, 0.20000000000000001, 0.20000000000000001]\nspectral_scales:[1.0, 1.0, 1.0, 1.0, 1.0, 1.0, 1.0, 1.0, 1.0, 1.0]\n        regulariser: 0.010000'
p338
(lp339
g3
(g7
S'!\xba\x03\xac\x82%\xe6?'
p340
tp341
Rp342
ag3
(g7
S'm9\x94\x18\x0f\xd6\xe4?'
p343
tp344
Rp345
ag3
(g7
S'x\x8c\x9b\x90+\xf8\xe7?'
p346
tp347
Rp348
asS'\n        num_res: 10\nres_sizes:[100 111 122 133 144 155 166 177 188 200]\necho_params:[0.84999999999999998, 0.81111111111111112, 0.77222222222222214, 0.73333333333333328, 0.69444444444444442, 0.65555555555555556, 0.6166666666666667, 0.57777777777777772, 0.53888888888888886, 0.5]\ninput_scales:[1.0, 0.91111111111111109, 0.82222222222222219, 0.73333333333333339, 0.64444444444444438, 0.55555555555555558, 0.46666666666666667, 0.37777777777777777, 0.28888888888888886, 0.20000000000000001]\nspectral_scales:[0.90000000000000002, 0.87777777777777777, 0.85555555555555551, 0.83333333333333337, 0.81111111111111112, 0.78888888888888886, 0.76666666666666661, 0.74444444444444446, 0.72222222222222221, 0.69999999999999996]\n        regulariser: 0.000100'
p349
(lp350
g3
(g7
S'X\xc0\t\xa3 D\xf6?'
p351
tp352
Rp353
ag3
(g7
S'\x9f\x11r\xa6\xce\x8b/@'
p354
tp355
Rp356
ag3
(g7
S"S\xb4\x81']\xb13@"
p357
tp358
Rp359
asS'\n        num_res: 10\nres_sizes:[100 111 122 133 144 155 166 177 188 200]\necho_params:[0.84999999999999998, 0.84999999999999998, 0.84999999999999998, 0.84999999999999998, 0.84999999999999998, 0.84999999999999998, 0.84999999999999998, 0.84999999999999998, 0.84999999999999998, 0.84999999999999998]\ninput_scales:[0.5, 0.5, 0.5, 0.5, 0.5, 0.5, 0.5, 0.5, 0.5, 0.5]\nspectral_scales:[0.90000000000000002, 0.93888888888888888, 0.97777777777777786, 1.0166666666666666, 1.0555555555555556, 1.0944444444444446, 1.1333333333333333, 1.1722222222222223, 1.2111111111111112, 1.25]\n        regulariser: 0.010000'
p360
(lp361
g3
(g7
S'\x15\xcd\x0b[I\xb2\xed?'
p362
tp363
Rp364
ag3
(g7
S'\xdf`\xa1\xe7n9\t@'
p365
tp366
Rp367
ag3
(g7
S'a\xe0=*\xe1\xb3\xf1?'
p368
tp369
Rp370
asS'\n        num_res: 10\nres_sizes:[100 111 122 133 144 155 166 177 188 200]\necho_params:[0.84999999999999998, 0.81111111111111112, 0.77222222222222214, 0.73333333333333328, 0.69444444444444442, 0.65555555555555556, 0.6166666666666667, 0.57777777777777772, 0.53888888888888886, 0.5]\ninput_scales:[0.20000000000000001, 0.28888888888888892, 0.37777777777777777, 0.46666666666666667, 0.55555555555555558, 0.64444444444444449, 0.73333333333333339, 0.82222222222222219, 0.9111111111111112, 1.0]\nspectral_scales:[0.90000000000000002, 0.93888888888888888, 0.97777777777777786, 1.0166666666666666, 1.0555555555555556, 1.0944444444444446, 1.1333333333333333, 1.1722222222222223, 1.2111111111111112, 1.25]\n        regulariser: 0.010000'
p371
(lp372
g3
(g7
S'\xc1\xd4\x90\xfa\xc4R\xed?'
p373
tp374
Rp375
ag3
(g7
S'dE\x01\xc9\xecH\xe8?'
p376
tp377
Rp378
ag3
(g7
S'\x81\xd8\x843z?\xea?'
p379
tp380
Rp381
asS'\n        num_res: 10\nres_sizes:[100 111 122 133 144 155 166 177 188 200]\necho_params:[0.84999999999999998, 0.81111111111111112, 0.77222222222222214, 0.73333333333333328, 0.69444444444444442, 0.65555555555555556, 0.6166666666666667, 0.57777777777777772, 0.53888888888888886, 0.5]\ninput_scales:[0.5, 0.5, 0.5, 0.5, 0.5, 0.5, 0.5, 0.5, 0.5, 0.5]\nspectral_scales:[1.0, 1.0, 1.0, 1.0, 1.0, 1.0, 1.0, 1.0, 1.0, 1.0]\n        regulariser: 0.000100'
p382
(lp383
g3
(g7
S'\xa58\x19b\xacW\xea?'
p384
tp385
Rp386
ag3
(g7
S'\xea\xf8U\xf3P\xf0*@'
p387
tp388
Rp389
ag3
(g7
S"K\x9b=\xaf<'\xf4?"
p390
tp391
Rp392
asS'\n        num_res: 10\nres_sizes:[200 200 200 200 200 200 200 200 200 200]\necho_params:[0.84999999999999998, 0.81111111111111112, 0.77222222222222214, 0.73333333333333328, 0.69444444444444442, 0.65555555555555556, 0.6166666666666667, 0.57777777777777772, 0.53888888888888886, 0.5]\ninput_scales:[0.20000000000000001, 0.28888888888888892, 0.37777777777777777, 0.46666666666666667, 0.55555555555555558, 0.64444444444444449, 0.73333333333333339, 0.82222222222222219, 0.9111111111111112, 1.0]\nspectral_scales:[1.0, 1.0, 1.0, 1.0, 1.0, 1.0, 1.0, 1.0, 1.0, 1.0]\n        regulariser: 0.001000'
p393
(lp394
g3
(g7
S'\x9f\x15\xe2\xe0\xf5\xcc\xee?'
p395
tp396
Rp397
ag3
(g7
S'KY\x7f\x98\xa1\x90\xe8?'
p398
tp399
Rp400
ag3
(g7
S'\xf5\x8e9\xaa\x87\x9d\xef?'
p401
tp402
Rp403
asS'\n        num_res: 10\nres_sizes:[ 50  72  94 116 138 161 183 205 227 250]\necho_params:[0.84999999999999998, 0.81111111111111112, 0.77222222222222214, 0.73333333333333328, 0.69444444444444442, 0.65555555555555556, 0.6166666666666667, 0.57777777777777772, 0.53888888888888886, 0.5]\ninput_scales:[0.20000000000000001, 0.20000000000000001, 0.20000000000000001, 0.20000000000000001, 0.20000000000000001, 0.20000000000000001, 0.20000000000000001, 0.20000000000000001, 0.20000000000000001, 0.20000000000000001]\nspectral_scales:[1.0, 1.0, 1.0, 1.0, 1.0, 1.0, 1.0, 1.0, 1.0, 1.0]\n        regulariser: 0.010000'
p404
(lp405
g3
(g7
S')\x17\xeb\xd3\x84/\xe8?'
p406
tp407
Rp408
ag3
(g7
S'n\x99 *\x17f\xf1?'
p409
tp410
Rp411
ag3
(g7
S'\xab\xa3-C\xe6\x03\xe8?'
p412
tp413
Rp414
asS'\n        num_res: 10\nres_sizes:[200 200 200 200 200 200 200 200 200 200]\necho_params:[0.84999999999999998, 0.84999999999999998, 0.84999999999999998, 0.84999999999999998, 0.84999999999999998, 0.84999999999999998, 0.84999999999999998, 0.84999999999999998, 0.84999999999999998, 0.84999999999999998]\ninput_scales:[0.5, 0.5, 0.5, 0.5, 0.5, 0.5, 0.5, 0.5, 0.5, 0.5]\nspectral_scales:[0.90000000000000002, 0.87777777777777777, 0.85555555555555551, 0.83333333333333337, 0.81111111111111112, 0.78888888888888886, 0.76666666666666661, 0.74444444444444446, 0.72222222222222221, 0.69999999999999996]\n        regulariser: 0.010000'
p415
(lp416
g3
(g7
S'\xef\x92\xc8F1\\\x15@'
p417
tp418
Rp419
ag3
(g7
S'\xab\x03\x87\xa2*\xc1\xf2?'
p420
tp421
Rp422
ag3
(g7
S'\xeb\x02\xcc\xf4\xef\xd9\xfa?'
p423
tp424
Rp425
asS'\n        num_res: 10\nres_sizes:[200 200 200 200 200 200 200 200 200 200]\necho_params:[0.84999999999999998, 0.81111111111111112, 0.77222222222222214, 0.73333333333333328, 0.69444444444444442, 0.65555555555555556, 0.6166666666666667, 0.57777777777777772, 0.53888888888888886, 0.5]\ninput_scales:[0.20000000000000001, 0.28888888888888892, 0.37777777777777777, 0.46666666666666667, 0.55555555555555558, 0.64444444444444449, 0.73333333333333339, 0.82222222222222219, 0.9111111111111112, 1.0]\nspectral_scales:[0.5, 0.58333333333333337, 0.66666666666666663, 0.75, 0.83333333333333326, 0.91666666666666663, 1.0, 1.0833333333333333, 1.1666666666666665, 1.25]\n        regulariser: 0.000100'
p426
(lp427
g3
(g7
S'\x9b&\x1d\x99<\xbe)@'
p428
tp429
Rp430
ag3
(g7
S'9IK\x82\xf9IM@'
p431
tp432
Rp433
ag3
(g7
S'(\x90%\xe4\xfd\x8e/@'
p434
tp435
Rp436
asS'\n        num_res: 10\nres_sizes:[ 50  72  94 116 138 161 183 205 227 250]\necho_params:[0.84999999999999998, 0.81111111111111112, 0.77222222222222214, 0.73333333333333328, 0.69444444444444442, 0.65555555555555556, 0.6166666666666667, 0.57777777777777772, 0.53888888888888886, 0.5]\ninput_scales:[0.5, 0.5, 0.5, 0.5, 0.5, 0.5, 0.5, 0.5, 0.5, 0.5]\nspectral_scales:[0.90000000000000002, 0.93888888888888888, 0.97777777777777786, 1.0166666666666666, 1.0555555555555556, 1.0944444444444446, 1.1333333333333333, 1.1722222222222223, 1.2111111111111112, 1.25]\n        regulariser: 0.000100'
p437
(lp438
g3
(g7
S'\xba\xa6&I\xdf"\xf2?'
p439
tp440
Rp441
ag3
(g7
S'\x19\xb3K6\x9cF\xf2?'
p442
tp443
Rp444
ag3
(g7
S'\xa7\xff\x8f*]\xab\xe3?'
p445
tp446
Rp447
asS'\n        num_res: 10\nres_sizes:[ 50  72  94 116 138 161 183 205 227 250]\necho_params:[0.84999999999999998, 0.81111111111111112, 0.77222222222222214, 0.73333333333333328, 0.69444444444444442, 0.65555555555555556, 0.6166666666666667, 0.57777777777777772, 0.53888888888888886, 0.5]\ninput_scales:[0.5, 0.5, 0.5, 0.5, 0.5, 0.5, 0.5, 0.5, 0.5, 0.5]\nspectral_scales:[1.0, 1.0, 1.0, 1.0, 1.0, 1.0, 1.0, 1.0, 1.0, 1.0]\n        regulariser: 0.000100'
p448
(lp449
g3
(g7
S'\xc8\xba\xa2\xdb\\4\xf0?'
p450
tp451
Rp452
ag3
(g7
S'\x0c\xda,\xbc\xcb\xf7\xf0?'
p453
tp454
Rp455
ag3
(g7
S'$\x8a\x1a\xe2Y\xea\xd8?'
p456
tp457
Rp458
asS'\n        num_res: 10\nres_sizes:[200 200 200 200 200 200 200 200 200 200]\necho_params:[0.84999999999999998, 0.81111111111111112, 0.77222222222222214, 0.73333333333333328, 0.69444444444444442, 0.65555555555555556, 0.6166666666666667, 0.57777777777777772, 0.53888888888888886, 0.5]\ninput_scales:[1.0, 0.91111111111111109, 0.82222222222222219, 0.73333333333333339, 0.64444444444444438, 0.55555555555555558, 0.46666666666666667, 0.37777777777777777, 0.28888888888888886, 0.20000000000000001]\nspectral_scales:[0.5, 0.58333333333333337, 0.66666666666666663, 0.75, 0.83333333333333326, 0.91666666666666663, 1.0, 1.0833333333333333, 1.1666666666666665, 1.25]\n        regulariser: 0.010000'
p459
(lp460
g3
(g7
S'Kj;\xc7Gw\xf2?'
p461
tp462
Rp463
ag3
(g7
S'\xd4\x8a\xe9d\x92M\xea?'
p464
tp465
Rp466
ag3
(g7
S'=E\xd1\xf0\xba6\x0f@'
p467
tp468
Rp469
asS'\n        num_res: 10\nres_sizes:[100 111 122 133 144 155 166 177 188 200]\necho_params:[0.84999999999999998, 0.81111111111111112, 0.77222222222222214, 0.73333333333333328, 0.69444444444444442, 0.65555555555555556, 0.6166666666666667, 0.57777777777777772, 0.53888888888888886, 0.5]\ninput_scales:[0.20000000000000001, 0.28888888888888892, 0.37777777777777777, 0.46666666666666667, 0.55555555555555558, 0.64444444444444449, 0.73333333333333339, 0.82222222222222219, 0.9111111111111112, 1.0]\nspectral_scales:[0.90000000000000002, 0.87777777777777777, 0.85555555555555551, 0.83333333333333337, 0.81111111111111112, 0.78888888888888886, 0.76666666666666661, 0.74444444444444446, 0.72222222222222221, 0.69999999999999996]\n        regulariser: 0.001000'
p470
(lp471
g3
(g7
S'\xc0K\xc2\xc7?\xb2\xe9?'
p472
tp473
Rp474
ag3
(g7
S'vD:\xb3\xd3O\xeb?'
p475
tp476
Rp477
ag3
(g7
S'$gC6\x1aA\xe9?'
p478
tp479
Rp480
asS'\n        num_res: 10\nres_sizes:[200 200 200 200 200 200 200 200 200 200]\necho_params:[0.84999999999999998, 0.81111111111111112, 0.77222222222222214, 0.73333333333333328, 0.69444444444444442, 0.65555555555555556, 0.6166666666666667, 0.57777777777777772, 0.53888888888888886, 0.5]\ninput_scales:[0.20000000000000001, 0.20000000000000001, 0.20000000000000001, 0.20000000000000001, 0.20000000000000001, 0.20000000000000001, 0.20000000000000001, 0.20000000000000001, 0.20000000000000001, 0.20000000000000001]\nspectral_scales:[0.90000000000000002, 0.93888888888888888, 0.97777777777777786, 1.0166666666666666, 1.0555555555555556, 1.0944444444444446, 1.1333333333333333, 1.1722222222222223, 1.2111111111111112, 1.25]\n        regulariser: 0.001000'
p481
(lp482
g3
(g7
S'\x9d\x8d\x88\xdbj\xd1\xea?'
p483
tp484
Rp485
ag3
(g7
S'Y\x9e\x16\xed\x00\x19\xe6?'
p486
tp487
Rp488
ag3
(g7
S'\xbc\x14\xe4H\xe1&\xeb?'
p489
tp490
Rp491
asS'\n        num_res: 10\nres_sizes:[ 50  72  94 116 138 161 183 205 227 250]\necho_params:[0.84999999999999998, 0.81111111111111112, 0.77222222222222214, 0.73333333333333328, 0.69444444444444442, 0.65555555555555556, 0.6166666666666667, 0.57777777777777772, 0.53888888888888886, 0.5]\ninput_scales:[0.5, 0.5, 0.5, 0.5, 0.5, 0.5, 0.5, 0.5, 0.5, 0.5]\nspectral_scales:[0.90000000000000002, 0.87777777777777777, 0.85555555555555551, 0.83333333333333337, 0.81111111111111112, 0.78888888888888886, 0.76666666666666661, 0.74444444444444446, 0.72222222222222221, 0.69999999999999996]\n        regulariser: 0.010000'
p492
(lp493
g3
(g7
S'\xc1\x1b\xaau$"\xe4?'
p494
tp495
Rp496
ag3
(g7
S'3f\xa1\xf3\xb67\xe6?'
p497
tp498
Rp499
ag3
(g7
S'h\xbb\x0f@\xd4\xa9\xea?'
p500
tp501
Rp502
asS'\n        num_res: 10\nres_sizes:[ 50  72  94 116 138 161 183 205 227 250]\necho_params:[0.84999999999999998, 0.84999999999999998, 0.84999999999999998, 0.84999999999999998, 0.84999999999999998, 0.84999999999999998, 0.84999999999999998, 0.84999999999999998, 0.84999999999999998, 0.84999999999999998]\ninput_scales:[0.5, 0.5, 0.5, 0.5, 0.5, 0.5, 0.5, 0.5, 0.5, 0.5]\nspectral_scales:[1.0, 1.0, 1.0, 1.0, 1.0, 1.0, 1.0, 1.0, 1.0, 1.0]\n        regulariser: 0.010000'
p503
(lp504
g3
(g7
S'~c\xfb\xa5\x0bE\xf0?'
p505
tp506
Rp507
ag3
(g7
S'\x9c\xaa\xa7yK\x1a\xf9?'
p508
tp509
Rp510
ag3
(g7
S'hb\x83\xd6j\xa8\xf1?'
p511
tp512
Rp513
asS'\n        num_res: 10\nres_sizes:[ 50  72  94 116 138 161 183 205 227 250]\necho_params:[0.84999999999999998, 0.81111111111111112, 0.77222222222222214, 0.73333333333333328, 0.69444444444444442, 0.65555555555555556, 0.6166666666666667, 0.57777777777777772, 0.53888888888888886, 0.5]\ninput_scales:[0.20000000000000001, 0.20000000000000001, 0.20000000000000001, 0.20000000000000001, 0.20000000000000001, 0.20000000000000001, 0.20000000000000001, 0.20000000000000001, 0.20000000000000001, 0.20000000000000001]\nspectral_scales:[1.0, 1.0, 1.0, 1.0, 1.0, 1.0, 1.0, 1.0, 1.0, 1.0]\n        regulariser: 0.000100'
p514
(lp515
g3
(g7
S'^\x83P\xeb\x07=\xea?'
p516
tp517
Rp518
ag3
(g7
S'\x19\x8c\xa8\xcb|#\xef?'
p519
tp520
Rp521
ag3
(g7
S'\xdc\x01\xef%\xf1\xea\xf3?'
p522
tp523
Rp524
asS'\n        num_res: 10\nres_sizes:[200 200 200 200 200 200 200 200 200 200]\necho_params:[0.84999999999999998, 0.84999999999999998, 0.84999999999999998, 0.84999999999999998, 0.84999999999999998, 0.84999999999999998, 0.84999999999999998, 0.84999999999999998, 0.84999999999999998, 0.84999999999999998]\ninput_scales:[0.5, 0.5, 0.5, 0.5, 0.5, 0.5, 0.5, 0.5, 0.5, 0.5]\nspectral_scales:[0.90000000000000002, 0.93888888888888888, 0.97777777777777786, 1.0166666666666666, 1.0555555555555556, 1.0944444444444446, 1.1333333333333333, 1.1722222222222223, 1.2111111111111112, 1.25]\n        regulariser: 0.010000'
p525
(lp526
g3
(g7
S'\x08z\xec\x1e\x8b\xb0\x13@'
p527
tp528
Rp529
ag3
(g7
S'\x0e*\xd0:* \xf9?'
p530
tp531
Rp532
ag3
(g7
S'\x05\xe9\xad\x13\xeaK\x11@'
p533
tp534
Rp535
asS'\n        num_res: 10\nres_sizes:[100 111 122 133 144 155 166 177 188 200]\necho_params:[0.84999999999999998, 0.84999999999999998, 0.84999999999999998, 0.84999999999999998, 0.84999999999999998, 0.84999999999999998, 0.84999999999999998, 0.84999999999999998, 0.84999999999999998, 0.84999999999999998]\ninput_scales:[0.20000000000000001, 0.20000000000000001, 0.20000000000000001, 0.20000000000000001, 0.20000000000000001, 0.20000000000000001, 0.20000000000000001, 0.20000000000000001, 0.20000000000000001, 0.20000000000000001]\nspectral_scales:[1.0, 1.0, 1.0, 1.0, 1.0, 1.0, 1.0, 1.0, 1.0, 1.0]\n        regulariser: 0.010000'
p536
(lp537
g3
(g7
S'dxj\x12\xf6\xdb\xe8?'
p538
tp539
Rp540
ag3
(g7
S'\xd9kr\xff_\x9c\xe9?'
p541
tp542
Rp543
ag3
(g7
S'x\x1e\xd0\xcc\xefT\xee?'
p544
tp545
Rp546
asS'\n        num_res: 10\nres_sizes:[100 111 122 133 144 155 166 177 188 200]\necho_params:[0.84999999999999998, 0.81111111111111112, 0.77222222222222214, 0.73333333333333328, 0.69444444444444442, 0.65555555555555556, 0.6166666666666667, 0.57777777777777772, 0.53888888888888886, 0.5]\ninput_scales:[0.5, 0.5, 0.5, 0.5, 0.5, 0.5, 0.5, 0.5, 0.5, 0.5]\nspectral_scales:[0.5, 0.58333333333333337, 0.66666666666666663, 0.75, 0.83333333333333326, 0.91666666666666663, 1.0, 1.0833333333333333, 1.1666666666666665, 1.25]\n        regulariser: 0.000100'
p547
(lp548
g3
(g7
S'\xa6\xb0qF\x14\x8a*@'
p549
tp550
Rp551
ag3
(g7
S'\x1a\xf1\r^\xf9\xeb\xf4?'
p552
tp553
Rp554
ag3
(g7
S'hh\xc5\x9a\xa0b\xe6?'
p555
tp556
Rp557
asS'\n        num_res: 10\nres_sizes:[ 50  72  94 116 138 161 183 205 227 250]\necho_params:[0.84999999999999998, 0.81111111111111112, 0.77222222222222214, 0.73333333333333328, 0.69444444444444442, 0.65555555555555556, 0.6166666666666667, 0.57777777777777772, 0.53888888888888886, 0.5]\ninput_scales:[1.0, 0.91111111111111109, 0.82222222222222219, 0.73333333333333339, 0.64444444444444438, 0.55555555555555558, 0.46666666666666667, 0.37777777777777777, 0.28888888888888886, 0.20000000000000001]\nspectral_scales:[1.0, 1.0, 1.0, 1.0, 1.0, 1.0, 1.0, 1.0, 1.0, 1.0]\n        regulariser: 0.000100'
p558
(lp559
g3
(g7
S'\xa9\xfb\xac.\xdf \xf3?'
p560
tp561
Rp562
ag3
(g7
S'}\xe3V\xe9\x7f\xb3\xfb?'
p563
tp564
Rp565
ag3
(g7
S'"Z\xb1GN\xfd\x14@'
p566
tp567
Rp568
asS'\n        num_res: 10\nres_sizes:[200 200 200 200 200 200 200 200 200 200]\necho_params:[0.84999999999999998, 0.84999999999999998, 0.84999999999999998, 0.84999999999999998, 0.84999999999999998, 0.84999999999999998, 0.84999999999999998, 0.84999999999999998, 0.84999999999999998, 0.84999999999999998]\ninput_scales:[1.0, 0.91111111111111109, 0.82222222222222219, 0.73333333333333339, 0.64444444444444438, 0.55555555555555558, 0.46666666666666667, 0.37777777777777777, 0.28888888888888886, 0.20000000000000001]\nspectral_scales:[0.90000000000000002, 0.93888888888888888, 0.97777777777777786, 1.0166666666666666, 1.0555555555555556, 1.0944444444444446, 1.1333333333333333, 1.1722222222222223, 1.2111111111111112, 1.25]\n        regulariser: 0.001000'
p569
(lp570
g3
(g7
S'\x1fXz\x92\x0em&@'
p571
tp572
Rp573
ag3
(g7
S'j\x13\x99\xfbdX\x06@'
p574
tp575
Rp576
ag3
(g7
S'\xdc?d+#\xab\x17@'
p577
tp578
Rp579
asS'\n        num_res: 10\nres_sizes:[ 50  72  94 116 138 161 183 205 227 250]\necho_params:[0.84999999999999998, 0.81111111111111112, 0.77222222222222214, 0.73333333333333328, 0.69444444444444442, 0.65555555555555556, 0.6166666666666667, 0.57777777777777772, 0.53888888888888886, 0.5]\ninput_scales:[1.0, 0.91111111111111109, 0.82222222222222219, 0.73333333333333339, 0.64444444444444438, 0.55555555555555558, 0.46666666666666667, 0.37777777777777777, 0.28888888888888886, 0.20000000000000001]\nspectral_scales:[0.5, 0.58333333333333337, 0.66666666666666663, 0.75, 0.83333333333333326, 0.91666666666666663, 1.0, 1.0833333333333333, 1.1666666666666665, 1.25]\n        regulariser: 0.001000'
p580
(lp581
g3
(g7
S'iK\x98L\xeb$\xee?'
p582
tp583
Rp584
ag3
(g7
S'\xe5\xc9\xf8\xdc\xc5i\xe9?'
p585
tp586
Rp587
ag3
(g7
S'\xbc\xe3\xbe\xfa\r\xef\xea?'
p588
tp589
Rp590
asS'\n        num_res: 10\nres_sizes:[200 200 200 200 200 200 200 200 200 200]\necho_params:[0.84999999999999998, 0.84999999999999998, 0.84999999999999998, 0.84999999999999998, 0.84999999999999998, 0.84999999999999998, 0.84999999999999998, 0.84999999999999998, 0.84999999999999998, 0.84999999999999998]\ninput_scales:[0.5, 0.5, 0.5, 0.5, 0.5, 0.5, 0.5, 0.5, 0.5, 0.5]\nspectral_scales:[0.90000000000000002, 0.93888888888888888, 0.97777777777777786, 1.0166666666666666, 1.0555555555555556, 1.0944444444444446, 1.1333333333333333, 1.1722222222222223, 1.2111111111111112, 1.25]\n        regulariser: 0.001000'
p591
(lp592
g3
(g7
S'\x0e4>\x06\x8a\x98\x15@'
p593
tp594
Rp595
ag3
(g7
S'\xe6\r\x8ff+\xa3\x14@'
p596
tp597
Rp598
ag3
(g7
S'\x9a,-\xd6\x8b\x80\xf1?'
p599
tp600
Rp601
asS'\n        num_res: 10\nres_sizes:[200 200 200 200 200 200 200 200 200 200]\necho_params:[0.84999999999999998, 0.81111111111111112, 0.77222222222222214, 0.73333333333333328, 0.69444444444444442, 0.65555555555555556, 0.6166666666666667, 0.57777777777777772, 0.53888888888888886, 0.5]\ninput_scales:[0.5, 0.5, 0.5, 0.5, 0.5, 0.5, 0.5, 0.5, 0.5, 0.5]\nspectral_scales:[0.90000000000000002, 0.87777777777777777, 0.85555555555555551, 0.83333333333333337, 0.81111111111111112, 0.78888888888888886, 0.76666666666666661, 0.74444444444444446, 0.72222222222222221, 0.69999999999999996]\n        regulariser: 0.000100'
p602
(lp603
g3
(g7
S'#\x13\xfb\xe7\xd0\x90\xe5?'
p604
tp605
Rp606
ag3
(g7
S'\x0b\x9e\xb1\xd5\xcb\x1e\x10@'
p607
tp608
Rp609
ag3
(g7
S'\xfd\xf9\xe8\xcb\xc7\xec\xee?'
p610
tp611
Rp612
asS'\n        num_res: 10\nres_sizes:[ 50  72  94 116 138 161 183 205 227 250]\necho_params:[0.84999999999999998, 0.81111111111111112, 0.77222222222222214, 0.73333333333333328, 0.69444444444444442, 0.65555555555555556, 0.6166666666666667, 0.57777777777777772, 0.53888888888888886, 0.5]\ninput_scales:[0.20000000000000001, 0.28888888888888892, 0.37777777777777777, 0.46666666666666667, 0.55555555555555558, 0.64444444444444449, 0.73333333333333339, 0.82222222222222219, 0.9111111111111112, 1.0]\nspectral_scales:[0.5, 0.58333333333333337, 0.66666666666666663, 0.75, 0.83333333333333326, 0.91666666666666663, 1.0, 1.0833333333333333, 1.1666666666666665, 1.25]\n        regulariser: 0.001000'
p613
(lp614
g3
(g7
S'\x16H\xd3\xba\xad=\xee?'
p615
tp616
Rp617
ag3
(g7
S'!b\xd9\xa5|\x0f\xe8?'
p618
tp619
Rp620
ag3
(g7
S'f\xe9\x04\xa5\xcb\xc9\xee?'
p621
tp622
Rp623
asS'\n        num_res: 10\nres_sizes:[100 111 122 133 144 155 166 177 188 200]\necho_params:[0.84999999999999998, 0.84999999999999998, 0.84999999999999998, 0.84999999999999998, 0.84999999999999998, 0.84999999999999998, 0.84999999999999998, 0.84999999999999998, 0.84999999999999998, 0.84999999999999998]\ninput_scales:[0.20000000000000001, 0.20000000000000001, 0.20000000000000001, 0.20000000000000001, 0.20000000000000001, 0.20000000000000001, 0.20000000000000001, 0.20000000000000001, 0.20000000000000001, 0.20000000000000001]\nspectral_scales:[0.90000000000000002, 0.87777777777777777, 0.85555555555555551, 0.83333333333333337, 0.81111111111111112, 0.78888888888888886, 0.76666666666666661, 0.74444444444444446, 0.72222222222222221, 0.69999999999999996]\n        regulariser: 0.001000'
p624
(lp625
g3
(g7
S'\xd0C\xbe\x9d\xe0D\xe9?'
p626
tp627
Rp628
ag3
(g7
S"'>\x98c\xa9E\xe7?"
p629
tp630
Rp631
ag3
(g7
S'w\xf0\xe97\x8c~2@'
p632
tp633
Rp634
asS'\n        num_res: 10\nres_sizes:[100 111 122 133 144 155 166 177 188 200]\necho_params:[0.84999999999999998, 0.84999999999999998, 0.84999999999999998, 0.84999999999999998, 0.84999999999999998, 0.84999999999999998, 0.84999999999999998, 0.84999999999999998, 0.84999999999999998, 0.84999999999999998]\ninput_scales:[0.20000000000000001, 0.20000000000000001, 0.20000000000000001, 0.20000000000000001, 0.20000000000000001, 0.20000000000000001, 0.20000000000000001, 0.20000000000000001, 0.20000000000000001, 0.20000000000000001]\nspectral_scales:[0.90000000000000002, 0.93888888888888888, 0.97777777777777786, 1.0166666666666666, 1.0555555555555556, 1.0944444444444446, 1.1333333333333333, 1.1722222222222223, 1.2111111111111112, 1.25]\n        regulariser: 0.001000'
p635
(lp636
g3
(g7
S'\xf0\x91\xae\x9a\xfbu\xe8?'
p637
tp638
Rp639
ag3
(g7
S'\xe4xYul\xe5\xeb?'
p640
tp641
Rp642
ag3
(g7
S'\xd5\x94\x1f1c\x1f\xe6?'
p643
tp644
Rp645
asS'\n        num_res: 10\nres_sizes:[ 50  72  94 116 138 161 183 205 227 250]\necho_params:[0.84999999999999998, 0.81111111111111112, 0.77222222222222214, 0.73333333333333328, 0.69444444444444442, 0.65555555555555556, 0.6166666666666667, 0.57777777777777772, 0.53888888888888886, 0.5]\ninput_scales:[0.5, 0.5, 0.5, 0.5, 0.5, 0.5, 0.5, 0.5, 0.5, 0.5]\nspectral_scales:[0.5, 0.58333333333333337, 0.66666666666666663, 0.75, 0.83333333333333326, 0.91666666666666663, 1.0, 1.0833333333333333, 1.1666666666666665, 1.25]\n        regulariser: 0.001000'
p646
(lp647
g3
(g7
S'@\xc8U\xd1[J\xf1?'
p648
tp649
Rp650
ag3
(g7
S'\xe1^\xdeus\xcd\xf8?'
p651
tp652
Rp653
ag3
(g7
S'?\x06\xcd&\xa9\x18!@'
p654
tp655
Rp656
asS'\n        num_res: 10\nres_sizes:[200 200 200 200 200 200 200 200 200 200]\necho_params:[0.84999999999999998, 0.81111111111111112, 0.77222222222222214, 0.73333333333333328, 0.69444444444444442, 0.65555555555555556, 0.6166666666666667, 0.57777777777777772, 0.53888888888888886, 0.5]\ninput_scales:[0.20000000000000001, 0.20000000000000001, 0.20000000000000001, 0.20000000000000001, 0.20000000000000001, 0.20000000000000001, 0.20000000000000001, 0.20000000000000001, 0.20000000000000001, 0.20000000000000001]\nspectral_scales:[1.0, 1.0, 1.0, 1.0, 1.0, 1.0, 1.0, 1.0, 1.0, 1.0]\n        regulariser: 0.001000'
p657
(lp658
g3
(g7
S'P\x08\xf9\xec\xbc`\xe6?'
p659
tp660
Rp661
ag3
(g7
S'\xd0\xbf\x9b\xafw\xab\xe9?'
p662
tp663
Rp664
ag3
(g7
S'X\x1a%\xb0\xc4\xb7\xec?'
p665
tp666
Rp667
asS'\n        num_res: 10\nres_sizes:[200 200 200 200 200 200 200 200 200 200]\necho_params:[0.84999999999999998, 0.84999999999999998, 0.84999999999999998, 0.84999999999999998, 0.84999999999999998, 0.84999999999999998, 0.84999999999999998, 0.84999999999999998, 0.84999999999999998, 0.84999999999999998]\ninput_scales:[0.20000000000000001, 0.28888888888888892, 0.37777777777777777, 0.46666666666666667, 0.55555555555555558, 0.64444444444444449, 0.73333333333333339, 0.82222222222222219, 0.9111111111111112, 1.0]\nspectral_scales:[0.90000000000000002, 0.93888888888888888, 0.97777777777777786, 1.0166666666666666, 1.0555555555555556, 1.0944444444444446, 1.1333333333333333, 1.1722222222222223, 1.2111111111111112, 1.25]\n        regulariser: 0.001000'
p668
(lp669
g3
(g7
S'\x7f\x15\xeeB77\xf2?'
p670
tp671
Rp672
ag3
(g7
S'\xc7\xcbhniV\x18@'
p673
tp674
Rp675
ag3
(g7
S'\xe8\x9e\xafje\xfb\xe6?'
p676
tp677
Rp678
asS'\n        num_res: 10\nres_sizes:[100 111 122 133 144 155 166 177 188 200]\necho_params:[0.84999999999999998, 0.81111111111111112, 0.77222222222222214, 0.73333333333333328, 0.69444444444444442, 0.65555555555555556, 0.6166666666666667, 0.57777777777777772, 0.53888888888888886, 0.5]\ninput_scales:[0.20000000000000001, 0.20000000000000001, 0.20000000000000001, 0.20000000000000001, 0.20000000000000001, 0.20000000000000001, 0.20000000000000001, 0.20000000000000001, 0.20000000000000001, 0.20000000000000001]\nspectral_scales:[0.5, 0.58333333333333337, 0.66666666666666663, 0.75, 0.83333333333333326, 0.91666666666666663, 1.0, 1.0833333333333333, 1.1666666666666665, 1.25]\n        regulariser: 0.000100'
p679
(lp680
g3
(g7
S'd\x17XUIt\xe9?'
p681
tp682
Rp683
ag3
(g7
S'\x03\xd7\xfeIt\x0e\xe8?'
p684
tp685
Rp686
ag3
(g7
S'\xa0\xb3\xc0\xff\xa5\xc1\xdf?'
p687
tp688
Rp689
asS'\n        num_res: 10\nres_sizes:[ 50  72  94 116 138 161 183 205 227 250]\necho_params:[0.84999999999999998, 0.81111111111111112, 0.77222222222222214, 0.73333333333333328, 0.69444444444444442, 0.65555555555555556, 0.6166666666666667, 0.57777777777777772, 0.53888888888888886, 0.5]\ninput_scales:[0.5, 0.5, 0.5, 0.5, 0.5, 0.5, 0.5, 0.5, 0.5, 0.5]\nspectral_scales:[0.90000000000000002, 0.87777777777777777, 0.85555555555555551, 0.83333333333333337, 0.81111111111111112, 0.78888888888888886, 0.76666666666666661, 0.74444444444444446, 0.72222222222222221, 0.69999999999999996]\n        regulariser: 0.000100'
p690
(lp691
g3
(g7
S'\x04\xcf\xa1\xda\xb4\x18\xee?'
p692
tp693
Rp694
ag3
(g7
S'F[fLzv\xf3?'
p695
tp696
Rp697
ag3
(g7
S'\xa8\x1cIH[\xf6\xe7?'
p698
tp699
Rp700
asS'\n        num_res: 10\nres_sizes:[100 111 122 133 144 155 166 177 188 200]\necho_params:[0.84999999999999998, 0.81111111111111112, 0.77222222222222214, 0.73333333333333328, 0.69444444444444442, 0.65555555555555556, 0.6166666666666667, 0.57777777777777772, 0.53888888888888886, 0.5]\ninput_scales:[0.20000000000000001, 0.28888888888888892, 0.37777777777777777, 0.46666666666666667, 0.55555555555555558, 0.64444444444444449, 0.73333333333333339, 0.82222222222222219, 0.9111111111111112, 1.0]\nspectral_scales:[0.90000000000000002, 0.93888888888888888, 0.97777777777777786, 1.0166666666666666, 1.0555555555555556, 1.0944444444444446, 1.1333333333333333, 1.1722222222222223, 1.2111111111111112, 1.25]\n        regulariser: 0.001000'
p701
(lp702
g3
(g7
S')l\x8e:\x1a\xac\xe6?'
p703
tp704
Rp705
ag3
(g7
S's\xc8d\x91\xb1\x1e\xe6?'
p706
tp707
Rp708
ag3
(g7
S'\xa0\x08\x1a6\xb1\xf5\xf4?'
p709
tp710
Rp711
asS'\n        num_res: 10\nres_sizes:[ 50  72  94 116 138 161 183 205 227 250]\necho_params:[0.84999999999999998, 0.84999999999999998, 0.84999999999999998, 0.84999999999999998, 0.84999999999999998, 0.84999999999999998, 0.84999999999999998, 0.84999999999999998, 0.84999999999999998, 0.84999999999999998]\ninput_scales:[0.5, 0.5, 0.5, 0.5, 0.5, 0.5, 0.5, 0.5, 0.5, 0.5]\nspectral_scales:[0.5, 0.58333333333333337, 0.66666666666666663, 0.75, 0.83333333333333326, 0.91666666666666663, 1.0, 1.0833333333333333, 1.1666666666666665, 1.25]\n        regulariser: 0.010000'
p712
(lp713
g3
(g7
S'\xe0H_\xc1\xf6@"@'
p714
tp715
Rp716
ag3
(g7
S"\x9b\xe8K\xd6o\xc0'@"
p717
tp718
Rp719
ag3
(g7
S'\xaf!\xb9\x94\xd5\x12\xf5?'
p720
tp721
Rp722
asS'\n        num_res: 10\nres_sizes:[ 50  72  94 116 138 161 183 205 227 250]\necho_params:[0.84999999999999998, 0.84999999999999998, 0.84999999999999998, 0.84999999999999998, 0.84999999999999998, 0.84999999999999998, 0.84999999999999998, 0.84999999999999998, 0.84999999999999998, 0.84999999999999998]\ninput_scales:[0.5, 0.5, 0.5, 0.5, 0.5, 0.5, 0.5, 0.5, 0.5, 0.5]\nspectral_scales:[0.90000000000000002, 0.93888888888888888, 0.97777777777777786, 1.0166666666666666, 1.0555555555555556, 1.0944444444444446, 1.1333333333333333, 1.1722222222222223, 1.2111111111111112, 1.25]\n        regulariser: 0.001000'
p723
(lp724
g3
(g7
S'\xbb\xcb\xa0\x9f\xb6\xd7\xf1?'
p725
tp726
Rp727
ag3
(g7
S'\xbc\xad4\x91/\x92\xf0?'
p728
tp729
Rp730
ag3
(g7
S"t'\xef\xbb\xd8k\x15@"
p731
tp732
Rp733
asS'\n        num_res: 10\nres_sizes:[ 50  72  94 116 138 161 183 205 227 250]\necho_params:[0.84999999999999998, 0.81111111111111112, 0.77222222222222214, 0.73333333333333328, 0.69444444444444442, 0.65555555555555556, 0.6166666666666667, 0.57777777777777772, 0.53888888888888886, 0.5]\ninput_scales:[0.20000000000000001, 0.20000000000000001, 0.20000000000000001, 0.20000000000000001, 0.20000000000000001, 0.20000000000000001, 0.20000000000000001, 0.20000000000000001, 0.20000000000000001, 0.20000000000000001]\nspectral_scales:[0.90000000000000002, 0.93888888888888888, 0.97777777777777786, 1.0166666666666666, 1.0555555555555556, 1.0944444444444446, 1.1333333333333333, 1.1722222222222223, 1.2111111111111112, 1.25]\n        regulariser: 0.000100'
p734
(lp735
g3
(g7
S'@\x18\x98\xc9\x02\xc2\xe7?'
p736
tp737
Rp738
ag3
(g7
S'Fp\xb0X\xb3\x97\xf5?'
p739
tp740
Rp741
ag3
(g7
S'U\xd1\xe9\x7f\\\xda\xe8?'
p742
tp743
Rp744
asS'\n        num_res: 10\nres_sizes:[100 111 122 133 144 155 166 177 188 200]\necho_params:[0.84999999999999998, 0.81111111111111112, 0.77222222222222214, 0.73333333333333328, 0.69444444444444442, 0.65555555555555556, 0.6166666666666667, 0.57777777777777772, 0.53888888888888886, 0.5]\ninput_scales:[1.0, 0.91111111111111109, 0.82222222222222219, 0.73333333333333339, 0.64444444444444438, 0.55555555555555558, 0.46666666666666667, 0.37777777777777777, 0.28888888888888886, 0.20000000000000001]\nspectral_scales:[0.90000000000000002, 0.93888888888888888, 0.97777777777777786, 1.0166666666666666, 1.0555555555555556, 1.0944444444444446, 1.1333333333333333, 1.1722222222222223, 1.2111111111111112, 1.25]\n        regulariser: 0.000100'
p745
(lp746
g3
(g7
S'\\&g\xd2\xd0\xac#@'
p747
tp748
Rp749
ag3
(g7
S'\x1a\x95{\x07\xde\xd1\x12@'
p750
tp751
Rp752
ag3
(g7
S'X\x94{\x9by6\x07@'
p753
tp754
Rp755
asS'\n        num_res: 10\nres_sizes:[100 111 122 133 144 155 166 177 188 200]\necho_params:[0.84999999999999998, 0.84999999999999998, 0.84999999999999998, 0.84999999999999998, 0.84999999999999998, 0.84999999999999998, 0.84999999999999998, 0.84999999999999998, 0.84999999999999998, 0.84999999999999998]\ninput_scales:[1.0, 0.91111111111111109, 0.82222222222222219, 0.73333333333333339, 0.64444444444444438, 0.55555555555555558, 0.46666666666666667, 0.37777777777777777, 0.28888888888888886, 0.20000000000000001]\nspectral_scales:[0.5, 0.58333333333333337, 0.66666666666666663, 0.75, 0.83333333333333326, 0.91666666666666663, 1.0, 1.0833333333333333, 1.1666666666666665, 1.25]\n        regulariser: 0.010000'
p756
(lp757
g3
(g7
S'7\x02\xff\x8c\x8cF/@'
p758
tp759
Rp760
ag3
(g7
S'\xc5\rY(Mj\xf1?'
p761
tp762
Rp763
ag3
(g7
S"4\x16'E\x8b\x04\xf8?"
p764
tp765
Rp766
asS'\n        num_res: 10\nres_sizes:[ 50  72  94 116 138 161 183 205 227 250]\necho_params:[0.84999999999999998, 0.81111111111111112, 0.77222222222222214, 0.73333333333333328, 0.69444444444444442, 0.65555555555555556, 0.6166666666666667, 0.57777777777777772, 0.53888888888888886, 0.5]\ninput_scales:[0.20000000000000001, 0.28888888888888892, 0.37777777777777777, 0.46666666666666667, 0.55555555555555558, 0.64444444444444449, 0.73333333333333339, 0.82222222222222219, 0.9111111111111112, 1.0]\nspectral_scales:[0.90000000000000002, 0.87777777777777777, 0.85555555555555551, 0.83333333333333337, 0.81111111111111112, 0.78888888888888886, 0.76666666666666661, 0.74444444444444446, 0.72222222222222221, 0.69999999999999996]\n        regulariser: 0.001000'
p767
(lp768
g3
(g7
S'\xf2OZ\xa7\\\xda\xe6?'
p769
tp770
Rp771
ag3
(g7
S'\xf6\xe9\xa63\x94\x17\xe8?'
p772
tp773
Rp774
ag3
(g7
S'\xb5\xf7\xae\xbb\xaf=\xde?'
p775
tp776
Rp777
asS'\n        num_res: 10\nres_sizes:[100 111 122 133 144 155 166 177 188 200]\necho_params:[0.84999999999999998, 0.81111111111111112, 0.77222222222222214, 0.73333333333333328, 0.69444444444444442, 0.65555555555555556, 0.6166666666666667, 0.57777777777777772, 0.53888888888888886, 0.5]\ninput_scales:[0.5, 0.5, 0.5, 0.5, 0.5, 0.5, 0.5, 0.5, 0.5, 0.5]\nspectral_scales:[0.90000000000000002, 0.93888888888888888, 0.97777777777777786, 1.0166666666666666, 1.0555555555555556, 1.0944444444444446, 1.1333333333333333, 1.1722222222222223, 1.2111111111111112, 1.25]\n        regulariser: 0.001000'
p778
(lp779
g3
(g7
S'\xef\xbekp`\xee\xeb?'
p780
tp781
Rp782
ag3
(g7
S'\x17+\xc6\x8d\t~\xce?'
p783
tp784
Rp785
ag3
(g7
S'\x89\xfe`o\x03\x9c\xe9?'
p786
tp787
Rp788
asS'\n        num_res: 10\nres_sizes:[200 200 200 200 200 200 200 200 200 200]\necho_params:[0.84999999999999998, 0.81111111111111112, 0.77222222222222214, 0.73333333333333328, 0.69444444444444442, 0.65555555555555556, 0.6166666666666667, 0.57777777777777772, 0.53888888888888886, 0.5]\ninput_scales:[0.20000000000000001, 0.20000000000000001, 0.20000000000000001, 0.20000000000000001, 0.20000000000000001, 0.20000000000000001, 0.20000000000000001, 0.20000000000000001, 0.20000000000000001, 0.20000000000000001]\nspectral_scales:[0.5, 0.58333333333333337, 0.66666666666666663, 0.75, 0.83333333333333326, 0.91666666666666663, 1.0, 1.0833333333333333, 1.1666666666666665, 1.25]\n        regulariser: 0.010000'
p789
(lp790
g3
(g7
S'\xcb\xb3R\x8a\xf1\xc5\xec?'
p791
tp792
Rp793
ag3
(g7
S'\xc2>\x0f\xf3\xfc\xf1\xea?'
p794
tp795
Rp796
ag3
(g7
S'\x0b\xd3\xc1C\xcd\x1f\xf0?'
p797
tp798
Rp799
asS'\n        num_res: 10\nres_sizes:[200 200 200 200 200 200 200 200 200 200]\necho_params:[0.84999999999999998, 0.81111111111111112, 0.77222222222222214, 0.73333333333333328, 0.69444444444444442, 0.65555555555555556, 0.6166666666666667, 0.57777777777777772, 0.53888888888888886, 0.5]\ninput_scales:[0.20000000000000001, 0.28888888888888892, 0.37777777777777777, 0.46666666666666667, 0.55555555555555558, 0.64444444444444449, 0.73333333333333339, 0.82222222222222219, 0.9111111111111112, 1.0]\nspectral_scales:[0.90000000000000002, 0.93888888888888888, 0.97777777777777786, 1.0166666666666666, 1.0555555555555556, 1.0944444444444446, 1.1333333333333333, 1.1722222222222223, 1.2111111111111112, 1.25]\n        regulariser: 0.010000'
p800
(lp801
g3
(g7
S'g\xfbM}+\xd4\xf0?'
p802
tp803
Rp804
ag3
(g7
S'B\xc0&\xc0\xd5\xa7\xee?'
p805
tp806
Rp807
ag3
(g7
S',L}\x1a4\xd4\xec?'
p808
tp809
Rp810
asS'\n        num_res: 10\nres_sizes:[200 200 200 200 200 200 200 200 200 200]\necho_params:[0.84999999999999998, 0.81111111111111112, 0.77222222222222214, 0.73333333333333328, 0.69444444444444442, 0.65555555555555556, 0.6166666666666667, 0.57777777777777772, 0.53888888888888886, 0.5]\ninput_scales:[1.0, 0.91111111111111109, 0.82222222222222219, 0.73333333333333339, 0.64444444444444438, 0.55555555555555558, 0.46666666666666667, 0.37777777777777777, 0.28888888888888886, 0.20000000000000001]\nspectral_scales:[0.90000000000000002, 0.87777777777777777, 0.85555555555555551, 0.83333333333333337, 0.81111111111111112, 0.78888888888888886, 0.76666666666666661, 0.74444444444444446, 0.72222222222222221, 0.69999999999999996]\n        regulariser: 0.000100'
p811
(lp812
g3
(g7
S'\xfe\xe2\xef\x00\x14?\x1e@'
p813
tp814
Rp815
ag3
(g7
S'\x8e]?\xe5\x02\n\x1d@'
p816
tp817
Rp818
ag3
(g7
S'\x1a\xaf3\xf3\xbd0 @'
p819
tp820
Rp821
asS'\n        num_res: 10\nres_sizes:[ 50  72  94 116 138 161 183 205 227 250]\necho_params:[0.84999999999999998, 0.81111111111111112, 0.77222222222222214, 0.73333333333333328, 0.69444444444444442, 0.65555555555555556, 0.6166666666666667, 0.57777777777777772, 0.53888888888888886, 0.5]\ninput_scales:[0.5, 0.5, 0.5, 0.5, 0.5, 0.5, 0.5, 0.5, 0.5, 0.5]\nspectral_scales:[0.90000000000000002, 0.93888888888888888, 0.97777777777777786, 1.0166666666666666, 1.0555555555555556, 1.0944444444444446, 1.1333333333333333, 1.1722222222222223, 1.2111111111111112, 1.25]\n        regulariser: 0.001000'
p822
(lp823
g3
(g7
S'\xcf?\xea\xd3\xb0\xf4\xee?'
p824
tp825
Rp826
ag3
(g7
S'\x9b3\xf80\xaa\x95\xe7?'
p827
tp828
Rp829
ag3
(g7
S'\xa1\xf22`d6\xed?'
p830
tp831
Rp832
asS'\n        num_res: 10\nres_sizes:[100 111 122 133 144 155 166 177 188 200]\necho_params:[0.84999999999999998, 0.84999999999999998, 0.84999999999999998, 0.84999999999999998, 0.84999999999999998, 0.84999999999999998, 0.84999999999999998, 0.84999999999999998, 0.84999999999999998, 0.84999999999999998]\ninput_scales:[1.0, 0.91111111111111109, 0.82222222222222219, 0.73333333333333339, 0.64444444444444438, 0.55555555555555558, 0.46666666666666667, 0.37777777777777777, 0.28888888888888886, 0.20000000000000001]\nspectral_scales:[0.90000000000000002, 0.87777777777777777, 0.85555555555555551, 0.83333333333333337, 0.81111111111111112, 0.78888888888888886, 0.76666666666666661, 0.74444444444444446, 0.72222222222222221, 0.69999999999999996]\n        regulariser: 0.001000'
p833
(lp834
g3
(g7
S'\xc7\xa0-,\xbd\x8b\x1d@'
p835
tp836
Rp837
ag3
(g7
S'\xca\x01|Q\xda\xa5\x1d@'
p838
tp839
Rp840
ag3
(g7
S'_"j\xa8I\xa1\x1b@'
p841
tp842
Rp843
asS'\n        num_res: 10\nres_sizes:[200 200 200 200 200 200 200 200 200 200]\necho_params:[0.84999999999999998, 0.84999999999999998, 0.84999999999999998, 0.84999999999999998, 0.84999999999999998, 0.84999999999999998, 0.84999999999999998, 0.84999999999999998, 0.84999999999999998, 0.84999999999999998]\ninput_scales:[0.20000000000000001, 0.28888888888888892, 0.37777777777777777, 0.46666666666666667, 0.55555555555555558, 0.64444444444444449, 0.73333333333333339, 0.82222222222222219, 0.9111111111111112, 1.0]\nspectral_scales:[0.90000000000000002, 0.87777777777777777, 0.85555555555555551, 0.83333333333333337, 0.81111111111111112, 0.78888888888888886, 0.76666666666666661, 0.74444444444444446, 0.72222222222222221, 0.69999999999999996]\n        regulariser: 0.010000'
p844
(lp845
g3
(g7
S'\xff\xd6\xc7\xb4\x93\xc5\xf0?'
p846
tp847
Rp848
ag3
(g7
S'\x1fRj\xec\xe6\x14\xf5?'
p849
tp850
Rp851
ag3
(g7
S"Ud'N\xe3J\xf0?"
p852
tp853
Rp854
asS'\n        num_res: 10\nres_sizes:[200 200 200 200 200 200 200 200 200 200]\necho_params:[0.84999999999999998, 0.81111111111111112, 0.77222222222222214, 0.73333333333333328, 0.69444444444444442, 0.65555555555555556, 0.6166666666666667, 0.57777777777777772, 0.53888888888888886, 0.5]\ninput_scales:[0.20000000000000001, 0.20000000000000001, 0.20000000000000001, 0.20000000000000001, 0.20000000000000001, 0.20000000000000001, 0.20000000000000001, 0.20000000000000001, 0.20000000000000001, 0.20000000000000001]\nspectral_scales:[0.90000000000000002, 0.93888888888888888, 0.97777777777777786, 1.0166666666666666, 1.0555555555555556, 1.0944444444444446, 1.1333333333333333, 1.1722222222222223, 1.2111111111111112, 1.25]\n        regulariser: 0.010000'
p855
(lp856
g3
(g7
S'\x1a\xbb\x04\\\xcf\xc8\xe5?'
p857
tp858
Rp859
ag3
(g7
S'+W\xccG\xd9\xa8\xe4?'
p860
tp861
Rp862
ag3
(g7
S'f\x0e\x06C\xdf\xd4\xe0?'
p863
tp864
Rp865
asS'\n        num_res: 10\nres_sizes:[ 50  72  94 116 138 161 183 205 227 250]\necho_params:[0.84999999999999998, 0.81111111111111112, 0.77222222222222214, 0.73333333333333328, 0.69444444444444442, 0.65555555555555556, 0.6166666666666667, 0.57777777777777772, 0.53888888888888886, 0.5]\ninput_scales:[0.5, 0.5, 0.5, 0.5, 0.5, 0.5, 0.5, 0.5, 0.5, 0.5]\nspectral_scales:[0.90000000000000002, 0.93888888888888888, 0.97777777777777786, 1.0166666666666666, 1.0555555555555556, 1.0944444444444446, 1.1333333333333333, 1.1722222222222223, 1.2111111111111112, 1.25]\n        regulariser: 0.010000'
p866
(lp867
g3
(g7
S'.wx`\x17\x86\xe7?'
p868
tp869
Rp870
ag3
(g7
S'\x89/>4h\xe2\xe5?'
p871
tp872
Rp873
ag3
(g7
S'\xfb\x8f\xa0\xd2ML\xf2?'
p874
tp875
Rp876
asS'\n        num_res: 10\nres_sizes:[100 111 122 133 144 155 166 177 188 200]\necho_params:[0.84999999999999998, 0.81111111111111112, 0.77222222222222214, 0.73333333333333328, 0.69444444444444442, 0.65555555555555556, 0.6166666666666667, 0.57777777777777772, 0.53888888888888886, 0.5]\ninput_scales:[1.0, 0.91111111111111109, 0.82222222222222219, 0.73333333333333339, 0.64444444444444438, 0.55555555555555558, 0.46666666666666667, 0.37777777777777777, 0.28888888888888886, 0.20000000000000001]\nspectral_scales:[0.90000000000000002, 0.87777777777777777, 0.85555555555555551, 0.83333333333333337, 0.81111111111111112, 0.78888888888888886, 0.76666666666666661, 0.74444444444444446, 0.72222222222222221, 0.69999999999999996]\n        regulariser: 0.010000'
p877
(lp878
g3
(g7
S'g\x9d\x93\xef\x92\xb4\xeb?'
p879
tp880
Rp881
ag3
(g7
S'\xf3`\xba\xfd\xa1\x97\xf5?'
p882
tp883
Rp884
ag3
(g7
S'\xbc\\\x1f\xb1\xb4\xbe\xe7?'
p885
tp886
Rp887
asS'\n        num_res: 10\nres_sizes:[200 200 200 200 200 200 200 200 200 200]\necho_params:[0.84999999999999998, 0.81111111111111112, 0.77222222222222214, 0.73333333333333328, 0.69444444444444442, 0.65555555555555556, 0.6166666666666667, 0.57777777777777772, 0.53888888888888886, 0.5]\ninput_scales:[1.0, 0.91111111111111109, 0.82222222222222219, 0.73333333333333339, 0.64444444444444438, 0.55555555555555558, 0.46666666666666667, 0.37777777777777777, 0.28888888888888886, 0.20000000000000001]\nspectral_scales:[0.5, 0.58333333333333337, 0.66666666666666663, 0.75, 0.83333333333333326, 0.91666666666666663, 1.0, 1.0833333333333333, 1.1666666666666665, 1.25]\n        regulariser: 0.000100'
p888
(lp889
g3
(g7
S'O\xe2\xdcmbd&@'
p890
tp891
Rp892
ag3
(g7
S'\xaf\x0e\xb5\xeal)\xfb?'
p893
tp894
Rp895
ag3
(g7
S'\xe3\xdb\xf4\x1e\xd9>-@'
p896
tp897
Rp898
asS'\n        num_res: 10\nres_sizes:[ 50  72  94 116 138 161 183 205 227 250]\necho_params:[0.84999999999999998, 0.81111111111111112, 0.77222222222222214, 0.73333333333333328, 0.69444444444444442, 0.65555555555555556, 0.6166666666666667, 0.57777777777777772, 0.53888888888888886, 0.5]\ninput_scales:[0.20000000000000001, 0.28888888888888892, 0.37777777777777777, 0.46666666666666667, 0.55555555555555558, 0.64444444444444449, 0.73333333333333339, 0.82222222222222219, 0.9111111111111112, 1.0]\nspectral_scales:[0.90000000000000002, 0.87777777777777777, 0.85555555555555551, 0.83333333333333337, 0.81111111111111112, 0.78888888888888886, 0.76666666666666661, 0.74444444444444446, 0.72222222222222221, 0.69999999999999996]\n        regulariser: 0.010000'
p899
(lp900
g3
(g7
S'\xd7\xb7\xe2qk\xc5\xec?'
p901
tp902
Rp903
ag3
(g7
S'\xc9b\x87;2\xa7\xdd?'
p904
tp905
Rp906
ag3
(g7
S'\x8b\xf9\x1eN\xe7\x95\xdf?'
p907
tp908
Rp909
asS'\n        num_res: 10\nres_sizes:[200 200 200 200 200 200 200 200 200 200]\necho_params:[0.84999999999999998, 0.84999999999999998, 0.84999999999999998, 0.84999999999999998, 0.84999999999999998, 0.84999999999999998, 0.84999999999999998, 0.84999999999999998, 0.84999999999999998, 0.84999999999999998]\ninput_scales:[0.5, 0.5, 0.5, 0.5, 0.5, 0.5, 0.5, 0.5, 0.5, 0.5]\nspectral_scales:[1.0, 1.0, 1.0, 1.0, 1.0, 1.0, 1.0, 1.0, 1.0, 1.0]\n        regulariser: 0.010000'
p910
(lp911
g3
(g7
S'\x02\xebi\xf7\xf4\xed\xe4?'
p912
tp913
Rp914
ag3
(g7
S'CT\x08.\x02\x97\xf5?'
p915
tp916
Rp917
ag3
(g7
S'\x8b\xb7\xad\xce\x86\x1d\xef?'
p918
tp919
Rp920
asS'\n        num_res: 10\nres_sizes:[ 50  72  94 116 138 161 183 205 227 250]\necho_params:[0.84999999999999998, 0.81111111111111112, 0.77222222222222214, 0.73333333333333328, 0.69444444444444442, 0.65555555555555556, 0.6166666666666667, 0.57777777777777772, 0.53888888888888886, 0.5]\ninput_scales:[0.5, 0.5, 0.5, 0.5, 0.5, 0.5, 0.5, 0.5, 0.5, 0.5]\nspectral_scales:[0.5, 0.58333333333333337, 0.66666666666666663, 0.75, 0.83333333333333326, 0.91666666666666663, 1.0, 1.0833333333333333, 1.1666666666666665, 1.25]\n        regulariser: 0.000100'
p921
(lp922
g3
(g7
S'\xc6-S\xcdh#\xe5?'
p923
tp924
Rp925
ag3
(g7
S'\xde8\x07\xb5^\xe9\xea?'
p926
tp927
Rp928
ag3
(g7
S'R\x10\xfa\t*\\\xf1?'
p929
tp930
Rp931
asS'\n        num_res: 10\nres_sizes:[100 111 122 133 144 155 166 177 188 200]\necho_params:[0.84999999999999998, 0.81111111111111112, 0.77222222222222214, 0.73333333333333328, 0.69444444444444442, 0.65555555555555556, 0.6166666666666667, 0.57777777777777772, 0.53888888888888886, 0.5]\ninput_scales:[1.0, 0.91111111111111109, 0.82222222222222219, 0.73333333333333339, 0.64444444444444438, 0.55555555555555558, 0.46666666666666667, 0.37777777777777777, 0.28888888888888886, 0.20000000000000001]\nspectral_scales:[0.5, 0.58333333333333337, 0.66666666666666663, 0.75, 0.83333333333333326, 0.91666666666666663, 1.0, 1.0833333333333333, 1.1666666666666665, 1.25]\n        regulariser: 0.000100'
p932
(lp933
g3
(g7
S'rsU\xddqf\xe8?'
p934
tp935
Rp936
ag3
(g7
S'!q\xcf\x04-l!@'
p937
tp938
Rp939
ag3
(g7
S'\x1f\xd0\xee\xdd\xdb\x19\xee?'
p940
tp941
Rp942
asS'\n        num_res: 10\nres_sizes:[ 50  72  94 116 138 161 183 205 227 250]\necho_params:[0.84999999999999998, 0.84999999999999998, 0.84999999999999998, 0.84999999999999998, 0.84999999999999998, 0.84999999999999998, 0.84999999999999998, 0.84999999999999998, 0.84999999999999998, 0.84999999999999998]\ninput_scales:[0.20000000000000001, 0.28888888888888892, 0.37777777777777777, 0.46666666666666667, 0.55555555555555558, 0.64444444444444449, 0.73333333333333339, 0.82222222222222219, 0.9111111111111112, 1.0]\nspectral_scales:[1.0, 1.0, 1.0, 1.0, 1.0, 1.0, 1.0, 1.0, 1.0, 1.0]\n        regulariser: 0.010000'
p943
(lp944
g3
(g7
S'\xf7\x95\xb6m>\xd7\xf5?'
p945
tp946
Rp947
ag3
(g7
S'<\x81\xce\xd3b\xdc\xed?'
p948
tp949
Rp950
ag3
(g7
S'W_\x9fh\xd2;\x1a@'
p951
tp952
Rp953
asS'\n        num_res: 10\nres_sizes:[200 200 200 200 200 200 200 200 200 200]\necho_params:[0.84999999999999998, 0.81111111111111112, 0.77222222222222214, 0.73333333333333328, 0.69444444444444442, 0.65555555555555556, 0.6166666666666667, 0.57777777777777772, 0.53888888888888886, 0.5]\ninput_scales:[0.5, 0.5, 0.5, 0.5, 0.5, 0.5, 0.5, 0.5, 0.5, 0.5]\nspectral_scales:[0.90000000000000002, 0.93888888888888888, 0.97777777777777786, 1.0166666666666666, 1.0555555555555556, 1.0944444444444446, 1.1333333333333333, 1.1722222222222223, 1.2111111111111112, 1.25]\n        regulariser: 0.010000'
p954
(lp955
g3
(g7
S'Q\xc3\x85nj\xde\xe6?'
p956
tp957
Rp958
ag3
(g7
S'i\xda\x96\x82c\xa1\xf6?'
p959
tp960
Rp961
ag3
(g7
S'\xd9\xc8P\x96\xfe\xbc\xf3?'
p962
tp963
Rp964
asS'\n        num_res: 10\nres_sizes:[ 50  72  94 116 138 161 183 205 227 250]\necho_params:[0.84999999999999998, 0.81111111111111112, 0.77222222222222214, 0.73333333333333328, 0.69444444444444442, 0.65555555555555556, 0.6166666666666667, 0.57777777777777772, 0.53888888888888886, 0.5]\ninput_scales:[0.20000000000000001, 0.28888888888888892, 0.37777777777777777, 0.46666666666666667, 0.55555555555555558, 0.64444444444444449, 0.73333333333333339, 0.82222222222222219, 0.9111111111111112, 1.0]\nspectral_scales:[1.0, 1.0, 1.0, 1.0, 1.0, 1.0, 1.0, 1.0, 1.0, 1.0]\n        regulariser: 0.000100'
p965
(lp966
g3
(g7
S'\x0c\xbe1<\xfdl\xe7?'
p967
tp968
Rp969
ag3
(g7
S'\x19S\x86>\xa4\xc0\xea?'
p970
tp971
Rp972
ag3
(g7
S'\x104\x9e^\x12\xe2\xe6?'
p973
tp974
Rp975
asS'\n        num_res: 10\nres_sizes:[100 111 122 133 144 155 166 177 188 200]\necho_params:[0.84999999999999998, 0.81111111111111112, 0.77222222222222214, 0.73333333333333328, 0.69444444444444442, 0.65555555555555556, 0.6166666666666667, 0.57777777777777772, 0.53888888888888886, 0.5]\ninput_scales:[0.5, 0.5, 0.5, 0.5, 0.5, 0.5, 0.5, 0.5, 0.5, 0.5]\nspectral_scales:[0.90000000000000002, 0.87777777777777777, 0.85555555555555551, 0.83333333333333337, 0.81111111111111112, 0.78888888888888886, 0.76666666666666661, 0.74444444444444446, 0.72222222222222221, 0.69999999999999996]\n        regulariser: 0.010000'
p976
(lp977
g3
(g7
S'E\x9a\xd2\x89\xc0\xc9\xe9?'
p978
tp979
Rp980
ag3
(g7
S'\xc5}\xcf\xa7\xa4k\xd8?'
p981
tp982
Rp983
ag3
(g7
S'\x88\xa1\xb3\xda\x1b1\xec?'
p984
tp985
Rp986
asS'\n        num_res: 10\nres_sizes:[100 111 122 133 144 155 166 177 188 200]\necho_params:[0.84999999999999998, 0.81111111111111112, 0.77222222222222214, 0.73333333333333328, 0.69444444444444442, 0.65555555555555556, 0.6166666666666667, 0.57777777777777772, 0.53888888888888886, 0.5]\ninput_scales:[0.5, 0.5, 0.5, 0.5, 0.5, 0.5, 0.5, 0.5, 0.5, 0.5]\nspectral_scales:[0.5, 0.58333333333333337, 0.66666666666666663, 0.75, 0.83333333333333326, 0.91666666666666663, 1.0, 1.0833333333333333, 1.1666666666666665, 1.25]\n        regulariser: 0.010000'
p987
(lp988
g3
(g7
S'\x0e%\r\xbcD^\xe9?'
p989
tp990
Rp991
ag3
(g7
S'\x1c\xf6H)4o\xee?'
p992
tp993
Rp994
ag3
(g7
S'\xbcl\x99\xf3\xbcG\xed?'
p995
tp996
Rp997
asS'\n        num_res: 10\nres_sizes:[200 200 200 200 200 200 200 200 200 200]\necho_params:[0.84999999999999998, 0.81111111111111112, 0.77222222222222214, 0.73333333333333328, 0.69444444444444442, 0.65555555555555556, 0.6166666666666667, 0.57777777777777772, 0.53888888888888886, 0.5]\ninput_scales:[0.5, 0.5, 0.5, 0.5, 0.5, 0.5, 0.5, 0.5, 0.5, 0.5]\nspectral_scales:[1.0, 1.0, 1.0, 1.0, 1.0, 1.0, 1.0, 1.0, 1.0, 1.0]\n        regulariser: 0.000100'
p998
(lp999
g3
(g7
S'\x8ejT\xb9*|\xef?'
p1000
tp1001
Rp1002
ag3
(g7
S'\xa4g\xf87p\xa7\xeb?'
p1003
tp1004
Rp1005
ag3
(g7
S'\x9b\xf5\xdd\xdd\xb9\x0c\xee?'
p1006
tp1007
Rp1008
asS'\n        num_res: 10\nres_sizes:[100 111 122 133 144 155 166 177 188 200]\necho_params:[0.84999999999999998, 0.81111111111111112, 0.77222222222222214, 0.73333333333333328, 0.69444444444444442, 0.65555555555555556, 0.6166666666666667, 0.57777777777777772, 0.53888888888888886, 0.5]\ninput_scales:[0.20000000000000001, 0.28888888888888892, 0.37777777777777777, 0.46666666666666667, 0.55555555555555558, 0.64444444444444449, 0.73333333333333339, 0.82222222222222219, 0.9111111111111112, 1.0]\nspectral_scales:[0.90000000000000002, 0.87777777777777777, 0.85555555555555551, 0.83333333333333337, 0.81111111111111112, 0.78888888888888886, 0.76666666666666661, 0.74444444444444446, 0.72222222222222221, 0.69999999999999996]\n        regulariser: 0.010000'
p1009
(lp1010
g3
(g7
S'\x883Wk\x1c\x1e\xef?'
p1011
tp1012
Rp1013
ag3
(g7
S"\xf7!\x8f'\xcfZ\xee?"
p1014
tp1015
Rp1016
ag3
(g7
S'\xe8\x98Z\x1c\x89@\xf2?'
p1017
tp1018
Rp1019
asS'\n        num_res: 10\nres_sizes:[200 200 200 200 200 200 200 200 200 200]\necho_params:[0.84999999999999998, 0.81111111111111112, 0.77222222222222214, 0.73333333333333328, 0.69444444444444442, 0.65555555555555556, 0.6166666666666667, 0.57777777777777772, 0.53888888888888886, 0.5]\ninput_scales:[0.5, 0.5, 0.5, 0.5, 0.5, 0.5, 0.5, 0.5, 0.5, 0.5]\nspectral_scales:[0.5, 0.58333333333333337, 0.66666666666666663, 0.75, 0.83333333333333326, 0.91666666666666663, 1.0, 1.0833333333333333, 1.1666666666666665, 1.25]\n        regulariser: 0.000100'
p1020
(lp1021
g3
(g7
S'\xaa\xad?\xc9&\x12%@'
p1022
tp1023
Rp1024
ag3
(g7
S'\t]\x9f+g\x88&@'
p1025
tp1026
Rp1027
ag3
(g7
S'\x88\x1bb\xf3\x8eX=@'
p1028
tp1029
Rp1030
asS'\n        num_res: 10\nres_sizes:[200 200 200 200 200 200 200 200 200 200]\necho_params:[0.84999999999999998, 0.81111111111111112, 0.77222222222222214, 0.73333333333333328, 0.69444444444444442, 0.65555555555555556, 0.6166666666666667, 0.57777777777777772, 0.53888888888888886, 0.5]\ninput_scales:[0.20000000000000001, 0.20000000000000001, 0.20000000000000001, 0.20000000000000001, 0.20000000000000001, 0.20000000000000001, 0.20000000000000001, 0.20000000000000001, 0.20000000000000001, 0.20000000000000001]\nspectral_scales:[0.90000000000000002, 0.87777777777777777, 0.85555555555555551, 0.83333333333333337, 0.81111111111111112, 0.78888888888888886, 0.76666666666666661, 0.74444444444444446, 0.72222222222222221, 0.69999999999999996]\n        regulariser: 0.000100'
p1031
(lp1032
g3
(g7
S'\xa24G~f\xdd\xe9?'
p1033
tp1034
Rp1035
ag3
(g7
S'\xef\xb1Q\xadj\x1a\xf0?'
p1036
tp1037
Rp1038
ag3
(g7
S'\xd2Sx\xc4JX\xed?'
p1039
tp1040
Rp1041
asS'\n        num_res: 10\nres_sizes:[100 111 122 133 144 155 166 177 188 200]\necho_params:[0.84999999999999998, 0.84999999999999998, 0.84999999999999998, 0.84999999999999998, 0.84999999999999998, 0.84999999999999998, 0.84999999999999998, 0.84999999999999998, 0.84999999999999998, 0.84999999999999998]\ninput_scales:[1.0, 0.91111111111111109, 0.82222222222222219, 0.73333333333333339, 0.64444444444444438, 0.55555555555555558, 0.46666666666666667, 0.37777777777777777, 0.28888888888888886, 0.20000000000000001]\nspectral_scales:[0.90000000000000002, 0.93888888888888888, 0.97777777777777786, 1.0166666666666666, 1.0555555555555556, 1.0944444444444446, 1.1333333333333333, 1.1722222222222223, 1.2111111111111112, 1.25]\n        regulariser: 0.001000'
p1042
(lp1043
g3
(g7
S'!i\xb3~\xeao"@'
p1044
tp1045
Rp1046
ag3
(g7
S'\x07v\xd6p\xbc\xf7\xf0?'
p1047
tp1048
Rp1049
ag3
(g7
S'-\xf9\xbf~\x8e\xda\x17@'
p1050
tp1051
Rp1052
asS'\n        num_res: 10\nres_sizes:[100 111 122 133 144 155 166 177 188 200]\necho_params:[0.84999999999999998, 0.81111111111111112, 0.77222222222222214, 0.73333333333333328, 0.69444444444444442, 0.65555555555555556, 0.6166666666666667, 0.57777777777777772, 0.53888888888888886, 0.5]\ninput_scales:[0.20000000000000001, 0.20000000000000001, 0.20000000000000001, 0.20000000000000001, 0.20000000000000001, 0.20000000000000001, 0.20000000000000001, 0.20000000000000001, 0.20000000000000001, 0.20000000000000001]\nspectral_scales:[0.5, 0.58333333333333337, 0.66666666666666663, 0.75, 0.83333333333333326, 0.91666666666666663, 1.0, 1.0833333333333333, 1.1666666666666665, 1.25]\n        regulariser: 0.001000'
p1053
(lp1054
g3
(g7
S"\x0e@'\xf4g\x8f\xec?"
p1055
tp1056
Rp1057
ag3
(g7
S'\xa6\x0eQ\xa7J:\xee?'
p1058
tp1059
Rp1060
ag3
(g7
S'\xb2b\xd9\x05#\xa8\xe5?'
p1061
tp1062
Rp1063
asS'\n        num_res: 10\nres_sizes:[100 111 122 133 144 155 166 177 188 200]\necho_params:[0.84999999999999998, 0.84999999999999998, 0.84999999999999998, 0.84999999999999998, 0.84999999999999998, 0.84999999999999998, 0.84999999999999998, 0.84999999999999998, 0.84999999999999998, 0.84999999999999998]\ninput_scales:[0.20000000000000001, 0.20000000000000001, 0.20000000000000001, 0.20000000000000001, 0.20000000000000001, 0.20000000000000001, 0.20000000000000001, 0.20000000000000001, 0.20000000000000001, 0.20000000000000001]\nspectral_scales:[0.5, 0.58333333333333337, 0.66666666666666663, 0.75, 0.83333333333333326, 0.91666666666666663, 1.0, 1.0833333333333333, 1.1666666666666665, 1.25]\n        regulariser: 0.010000'
p1064
(lp1065
g3
(g7
S'\xf3\xa6~\x88C\xfc\xf3?'
p1066
tp1067
Rp1068
ag3
(g7
S'\x0f\x1eg\xf1\xaa\xe5\xed?'
p1069
tp1070
Rp1071
ag3
(g7
S'\xaf\xfaS2\x1dO\xef?'
p1072
tp1073
Rp1074
asS'\n        num_res: 10\nres_sizes:[200 200 200 200 200 200 200 200 200 200]\necho_params:[0.84999999999999998, 0.81111111111111112, 0.77222222222222214, 0.73333333333333328, 0.69444444444444442, 0.65555555555555556, 0.6166666666666667, 0.57777777777777772, 0.53888888888888886, 0.5]\ninput_scales:[0.20000000000000001, 0.20000000000000001, 0.20000000000000001, 0.20000000000000001, 0.20000000000000001, 0.20000000000000001, 0.20000000000000001, 0.20000000000000001, 0.20000000000000001, 0.20000000000000001]\nspectral_scales:[0.90000000000000002, 0.93888888888888888, 0.97777777777777786, 1.0166666666666666, 1.0555555555555556, 1.0944444444444446, 1.1333333333333333, 1.1722222222222223, 1.2111111111111112, 1.25]\n        regulariser: 0.000100'
p1075
(lp1076
g3
(g7
S'\xe94]GI\x99\xe0?'
p1077
tp1078
Rp1079
ag3
(g7
S'=\x0e\x8en\x1e[\xeb?'
p1080
tp1081
Rp1082
ag3
(g7
S'b\x0f\x14\xe3\x97\t\xde?'
p1083
tp1084
Rp1085
asS'\n        num_res: 10\nres_sizes:[100 111 122 133 144 155 166 177 188 200]\necho_params:[0.84999999999999998, 0.84999999999999998, 0.84999999999999998, 0.84999999999999998, 0.84999999999999998, 0.84999999999999998, 0.84999999999999998, 0.84999999999999998, 0.84999999999999998, 0.84999999999999998]\ninput_scales:[0.5, 0.5, 0.5, 0.5, 0.5, 0.5, 0.5, 0.5, 0.5, 0.5]\nspectral_scales:[0.90000000000000002, 0.87777777777777777, 0.85555555555555551, 0.83333333333333337, 0.81111111111111112, 0.78888888888888886, 0.76666666666666661, 0.74444444444444446, 0.72222222222222221, 0.69999999999999996]\n        regulariser: 0.010000'
p1086
(lp1087
g3
(g7
S'\x1a?7[\x1e\xde\x13@'
p1088
tp1089
Rp1090
ag3
(g7
S'\x8c\xec\x95\x97\x9c8\x1a@'
p1091
tp1092
Rp1093
ag3
(g7
S'\xddnUe_w\x17@'
p1094
tp1095
Rp1096
asS'\n        num_res: 10\nres_sizes:[200 200 200 200 200 200 200 200 200 200]\necho_params:[0.84999999999999998, 0.81111111111111112, 0.77222222222222214, 0.73333333333333328, 0.69444444444444442, 0.65555555555555556, 0.6166666666666667, 0.57777777777777772, 0.53888888888888886, 0.5]\ninput_scales:[0.20000000000000001, 0.28888888888888892, 0.37777777777777777, 0.46666666666666667, 0.55555555555555558, 0.64444444444444449, 0.73333333333333339, 0.82222222222222219, 0.9111111111111112, 1.0]\nspectral_scales:[0.90000000000000002, 0.87777777777777777, 0.85555555555555551, 0.83333333333333337, 0.81111111111111112, 0.78888888888888886, 0.76666666666666661, 0.74444444444444446, 0.72222222222222221, 0.69999999999999996]\n        regulariser: 0.001000'
p1097
(lp1098
g3
(g7
S'\xc4\xb3M\x17\xa9\x84\xf3?'
p1099
tp1100
Rp1101
ag3
(g7
S"\x1a'\x0f\xd5\x1e\x1e\xf7?"
p1102
tp1103
Rp1104
ag3
(g7
S'\xc1hw!u\xd2\xe7?'
p1105
tp1106
Rp1107
asS'\n        num_res: 10\nres_sizes:[100 111 122 133 144 155 166 177 188 200]\necho_params:[0.84999999999999998, 0.81111111111111112, 0.77222222222222214, 0.73333333333333328, 0.69444444444444442, 0.65555555555555556, 0.6166666666666667, 0.57777777777777772, 0.53888888888888886, 0.5]\ninput_scales:[0.5, 0.5, 0.5, 0.5, 0.5, 0.5, 0.5, 0.5, 0.5, 0.5]\nspectral_scales:[0.5, 0.58333333333333337, 0.66666666666666663, 0.75, 0.83333333333333326, 0.91666666666666663, 1.0, 1.0833333333333333, 1.1666666666666665, 1.25]\n        regulariser: 0.001000'
p1108
(lp1109
g3
(g7
S'\x9c"F$\x88\x02\xfb?'
p1110
tp1111
Rp1112
ag3
(g7
S'=\xd38I\x9c\xc3\xf1?'
p1113
tp1114
Rp1115
ag3
(g7
S'H\xc0j\x1c\xe9z.@'
p1116
tp1117
Rp1118
asS'\n        num_res: 10\nres_sizes:[ 50  72  94 116 138 161 183 205 227 250]\necho_params:[0.84999999999999998, 0.81111111111111112, 0.77222222222222214, 0.73333333333333328, 0.69444444444444442, 0.65555555555555556, 0.6166666666666667, 0.57777777777777772, 0.53888888888888886, 0.5]\ninput_scales:[0.20000000000000001, 0.28888888888888892, 0.37777777777777777, 0.46666666666666667, 0.55555555555555558, 0.64444444444444449, 0.73333333333333339, 0.82222222222222219, 0.9111111111111112, 1.0]\nspectral_scales:[0.90000000000000002, 0.93888888888888888, 0.97777777777777786, 1.0166666666666666, 1.0555555555555556, 1.0944444444444446, 1.1333333333333333, 1.1722222222222223, 1.2111111111111112, 1.25]\n        regulariser: 0.010000'
p1119
(lp1120
g3
(g7
S'\x91V\xd9A\xbb\x95\xe5?'
p1121
tp1122
Rp1123
ag3
(g7
S'\nj\xf5v\x1f\xd0\xd9?'
p1124
tp1125
Rp1126
ag3
(g7
S'\xc9\xd7\xf2f+\x0c\xe7?'
p1127
tp1128
Rp1129
asS'\n        num_res: 10\nres_sizes:[ 50  72  94 116 138 161 183 205 227 250]\necho_params:[0.84999999999999998, 0.81111111111111112, 0.77222222222222214, 0.73333333333333328, 0.69444444444444442, 0.65555555555555556, 0.6166666666666667, 0.57777777777777772, 0.53888888888888886, 0.5]\ninput_scales:[0.20000000000000001, 0.28888888888888892, 0.37777777777777777, 0.46666666666666667, 0.55555555555555558, 0.64444444444444449, 0.73333333333333339, 0.82222222222222219, 0.9111111111111112, 1.0]\nspectral_scales:[1.0, 1.0, 1.0, 1.0, 1.0, 1.0, 1.0, 1.0, 1.0, 1.0]\n        regulariser: 0.010000'
p1130
(lp1131
g3
(g7
S'=i1\x9a%\x88\xf1?'
p1132
tp1133
Rp1134
ag3
(g7
S'1n\x11W\xee\xc0\xee?'
p1135
tp1136
Rp1137
ag3
(g7
S'\xcc\xf1lbN\xc7\xea?'
p1138
tp1139
Rp1140
asS'\n        num_res: 10\nres_sizes:[100 111 122 133 144 155 166 177 188 200]\necho_params:[0.84999999999999998, 0.81111111111111112, 0.77222222222222214, 0.73333333333333328, 0.69444444444444442, 0.65555555555555556, 0.6166666666666667, 0.57777777777777772, 0.53888888888888886, 0.5]\ninput_scales:[1.0, 0.91111111111111109, 0.82222222222222219, 0.73333333333333339, 0.64444444444444438, 0.55555555555555558, 0.46666666666666667, 0.37777777777777777, 0.28888888888888886, 0.20000000000000001]\nspectral_scales:[1.0, 1.0, 1.0, 1.0, 1.0, 1.0, 1.0, 1.0, 1.0, 1.0]\n        regulariser: 0.000100'
p1141
(lp1142
g3
(g7
S'\xfar\x13\xa3\x00\x08#@'
p1143
tp1144
Rp1145
ag3
(g7
S'-\x06Q8\xea\xf6\xfc?'
p1146
tp1147
Rp1148
ag3
(g7
S';\x08\xa1\x1a\xaeF\xf1?'
p1149
tp1150
Rp1151
asS'\n        num_res: 10\nres_sizes:[200 200 200 200 200 200 200 200 200 200]\necho_params:[0.84999999999999998, 0.84999999999999998, 0.84999999999999998, 0.84999999999999998, 0.84999999999999998, 0.84999999999999998, 0.84999999999999998, 0.84999999999999998, 0.84999999999999998, 0.84999999999999998]\ninput_scales:[0.20000000000000001, 0.20000000000000001, 0.20000000000000001, 0.20000000000000001, 0.20000000000000001, 0.20000000000000001, 0.20000000000000001, 0.20000000000000001, 0.20000000000000001, 0.20000000000000001]\nspectral_scales:[0.90000000000000002, 0.93888888888888888, 0.97777777777777786, 1.0166666666666666, 1.0555555555555556, 1.0944444444444446, 1.1333333333333333, 1.1722222222222223, 1.2111111111111112, 1.25]\n        regulariser: 0.010000'
p1152
(lp1153
g3
(g7
S'Q\xd4h\xed\xc7\xbb\xf0?'
p1154
tp1155
Rp1156
ag3
(g7
S'4\x15\xb0\xfc\xb5K\xe7?'
p1157
tp1158
Rp1159
ag3
(g7
S'R\x91\x9c\x82\xc8\x12\xec?'
p1160
tp1161
Rp1162
asS'\n        num_res: 10\nres_sizes:[100 111 122 133 144 155 166 177 188 200]\necho_params:[0.84999999999999998, 0.84999999999999998, 0.84999999999999998, 0.84999999999999998, 0.84999999999999998, 0.84999999999999998, 0.84999999999999998, 0.84999999999999998, 0.84999999999999998, 0.84999999999999998]\ninput_scales:[0.20000000000000001, 0.28888888888888892, 0.37777777777777777, 0.46666666666666667, 0.55555555555555558, 0.64444444444444449, 0.73333333333333339, 0.82222222222222219, 0.9111111111111112, 1.0]\nspectral_scales:[0.90000000000000002, 0.87777777777777777, 0.85555555555555551, 0.83333333333333337, 0.81111111111111112, 0.78888888888888886, 0.76666666666666661, 0.74444444444444446, 0.72222222222222221, 0.69999999999999996]\n        regulariser: 0.010000'
p1163
(lp1164
g3
(g7
S'\x07|\x08\x9d\xf2o\xf5?'
p1165
tp1166
Rp1167
ag3
(g7
S'\xf7$[?L\xfc\xec?'
p1168
tp1169
Rp1170
ag3
(g7
S'Q\xdb\xf4}vd\xef?'
p1171
tp1172
Rp1173
asS'\n        num_res: 10\nres_sizes:[100 111 122 133 144 155 166 177 188 200]\necho_params:[0.84999999999999998, 0.81111111111111112, 0.77222222222222214, 0.73333333333333328, 0.69444444444444442, 0.65555555555555556, 0.6166666666666667, 0.57777777777777772, 0.53888888888888886, 0.5]\ninput_scales:[0.5, 0.5, 0.5, 0.5, 0.5, 0.5, 0.5, 0.5, 0.5, 0.5]\nspectral_scales:[0.90000000000000002, 0.93888888888888888, 0.97777777777777786, 1.0166666666666666, 1.0555555555555556, 1.0944444444444446, 1.1333333333333333, 1.1722222222222223, 1.2111111111111112, 1.25]\n        regulariser: 0.010000'
p1174
(lp1175
g3
(g7
S'\xb8\xd3\x95\xb0\xd3\xe5\xe7?'
p1176
tp1177
Rp1178
ag3
(g7
S'\x1b\xef\x10\x86h\x95\xe5?'
p1179
tp1180
Rp1181
ag3
(g7
S'o\x96K\xd7j\xfb\xf1?'
p1182
tp1183
Rp1184
asS'\n        num_res: 10\nres_sizes:[200 200 200 200 200 200 200 200 200 200]\necho_params:[0.84999999999999998, 0.84999999999999998, 0.84999999999999998, 0.84999999999999998, 0.84999999999999998, 0.84999999999999998, 0.84999999999999998, 0.84999999999999998, 0.84999999999999998, 0.84999999999999998]\ninput_scales:[1.0, 0.91111111111111109, 0.82222222222222219, 0.73333333333333339, 0.64444444444444438, 0.55555555555555558, 0.46666666666666667, 0.37777777777777777, 0.28888888888888886, 0.20000000000000001]\nspectral_scales:[0.90000000000000002, 0.87777777777777777, 0.85555555555555551, 0.83333333333333337, 0.81111111111111112, 0.78888888888888886, 0.76666666666666661, 0.74444444444444446, 0.72222222222222221, 0.69999999999999996]\n        regulariser: 0.001000'
p1185
(lp1186
g3
(g7
S'F\x13\x85t\xb7\x15)@'
p1187
tp1188
Rp1189
ag3
(g7
S'\x05\x8e\xd9\xa2\xf6-.@'
p1190
tp1191
Rp1192
ag3
(g7
S'\x0c\x07R\xd8\x19~\x1f@'
p1193
tp1194
Rp1195
asS'\n        num_res: 10\nres_sizes:[200 200 200 200 200 200 200 200 200 200]\necho_params:[0.84999999999999998, 0.81111111111111112, 0.77222222222222214, 0.73333333333333328, 0.69444444444444442, 0.65555555555555556, 0.6166666666666667, 0.57777777777777772, 0.53888888888888886, 0.5]\ninput_scales:[0.5, 0.5, 0.5, 0.5, 0.5, 0.5, 0.5, 0.5, 0.5, 0.5]\nspectral_scales:[0.90000000000000002, 0.93888888888888888, 0.97777777777777786, 1.0166666666666666, 1.0555555555555556, 1.0944444444444446, 1.1333333333333333, 1.1722222222222223, 1.2111111111111112, 1.25]\n        regulariser: 0.001000'
p1196
(lp1197
g3
(g7
S'q\xd1\x1f-\xbbd\xed?'
p1198
tp1199
Rp1200
ag3
(g7
S'\x01z\x82\x8e\xe9t\x15@'
p1201
tp1202
Rp1203
ag3
(g7
S'Y\x8aI6*\xb0\xed?'
p1204
tp1205
Rp1206
asS'\n        num_res: 10\nres_sizes:[200 200 200 200 200 200 200 200 200 200]\necho_params:[0.84999999999999998, 0.84999999999999998, 0.84999999999999998, 0.84999999999999998, 0.84999999999999998, 0.84999999999999998, 0.84999999999999998, 0.84999999999999998, 0.84999999999999998, 0.84999999999999998]\ninput_scales:[0.20000000000000001, 0.28888888888888892, 0.37777777777777777, 0.46666666666666667, 0.55555555555555558, 0.64444444444444449, 0.73333333333333339, 0.82222222222222219, 0.9111111111111112, 1.0]\nspectral_scales:[0.5, 0.58333333333333337, 0.66666666666666663, 0.75, 0.83333333333333326, 0.91666666666666663, 1.0, 1.0833333333333333, 1.1666666666666665, 1.25]\n        regulariser: 0.010000'
p1207
(lp1208
g3
(g7
S'\xf4\xeb\x8eqSP\xf3?'
p1209
tp1210
Rp1211
ag3
(g7
S'i\xfd\x10\xff:K\x14@'
p1212
tp1213
Rp1214
ag3
(g7
S'\x14\xb6,\xda\r\x1d\x14@'
p1215
tp1216
Rp1217
asS'\n        num_res: 10\nres_sizes:[100 111 122 133 144 155 166 177 188 200]\necho_params:[0.84999999999999998, 0.81111111111111112, 0.77222222222222214, 0.73333333333333328, 0.69444444444444442, 0.65555555555555556, 0.6166666666666667, 0.57777777777777772, 0.53888888888888886, 0.5]\ninput_scales:[0.5, 0.5, 0.5, 0.5, 0.5, 0.5, 0.5, 0.5, 0.5, 0.5]\nspectral_scales:[0.90000000000000002, 0.87777777777777777, 0.85555555555555551, 0.83333333333333337, 0.81111111111111112, 0.78888888888888886, 0.76666666666666661, 0.74444444444444446, 0.72222222222222221, 0.69999999999999996]\n        regulariser: 0.001000'
p1218
(lp1219
g3
(g7
S'C3r0\x99\xd2\xe7?'
p1220
tp1221
Rp1222
ag3
(g7
S'\x05y\xdc\x07|\xa4\xf1?'
p1223
tp1224
Rp1225
ag3
(g7
S'?\xbd\xfa\x82\xe0\x95\xf3?'
p1226
tp1227
Rp1228
asS'\n        num_res: 10\nres_sizes:[ 50  72  94 116 138 161 183 205 227 250]\necho_params:[0.84999999999999998, 0.84999999999999998, 0.84999999999999998, 0.84999999999999998, 0.84999999999999998, 0.84999999999999998, 0.84999999999999998, 0.84999999999999998, 0.84999999999999998, 0.84999999999999998]\ninput_scales:[0.20000000000000001, 0.20000000000000001, 0.20000000000000001, 0.20000000000000001, 0.20000000000000001, 0.20000000000000001, 0.20000000000000001, 0.20000000000000001, 0.20000000000000001, 0.20000000000000001]\nspectral_scales:[1.0, 1.0, 1.0, 1.0, 1.0, 1.0, 1.0, 1.0, 1.0, 1.0]\n        regulariser: 0.001000'
p1229
(lp1230
g3
(g7
S'V\x91\x7f\xa8b\xc7\xec?'
p1231
tp1232
Rp1233
ag3
(g7
S'\x94?\xaa\xb0:z\xf5?'
p1234
tp1235
Rp1236
ag3
(g7
S'\x17\x8d\xfa\xeb\xc9s\xe4?'
p1237
tp1238
Rp1239
asS'\n        num_res: 10\nres_sizes:[100 111 122 133 144 155 166 177 188 200]\necho_params:[0.84999999999999998, 0.81111111111111112, 0.77222222222222214, 0.73333333333333328, 0.69444444444444442, 0.65555555555555556, 0.6166666666666667, 0.57777777777777772, 0.53888888888888886, 0.5]\ninput_scales:[0.20000000000000001, 0.20000000000000001, 0.20000000000000001, 0.20000000000000001, 0.20000000000000001, 0.20000000000000001, 0.20000000000000001, 0.20000000000000001, 0.20000000000000001, 0.20000000000000001]\nspectral_scales:[0.90000000000000002, 0.87777777777777777, 0.85555555555555551, 0.83333333333333337, 0.81111111111111112, 0.78888888888888886, 0.76666666666666661, 0.74444444444444446, 0.72222222222222221, 0.69999999999999996]\n        regulariser: 0.000100'
p1240
(lp1241
g3
(g7
S'\x04\xd8\xa9\xafS\xad\xf5?'
p1242
tp1243
Rp1244
ag3
(g7
S'\xf3\xf5\x01!\xcfv\xd9?'
p1245
tp1246
Rp1247
ag3
(g7
S'\xd8\x0f~\x93\xaf\x91\xe9A'
p1248
tp1249
Rp1250
asS'\n        num_res: 10\nres_sizes:[100 111 122 133 144 155 166 177 188 200]\necho_params:[0.84999999999999998, 0.81111111111111112, 0.77222222222222214, 0.73333333333333328, 0.69444444444444442, 0.65555555555555556, 0.6166666666666667, 0.57777777777777772, 0.53888888888888886, 0.5]\ninput_scales:[0.5, 0.5, 0.5, 0.5, 0.5, 0.5, 0.5, 0.5, 0.5, 0.5]\nspectral_scales:[1.0, 1.0, 1.0, 1.0, 1.0, 1.0, 1.0, 1.0, 1.0, 1.0]\n        regulariser: 0.010000'
p1251
(lp1252
g3
(g7
S'N\x98\xa3W\xd1\x87\xe7?'
p1253
tp1254
Rp1255
ag3
(g7
S'\xbe\x88RP\xbb\xd5\xeb?'
p1256
tp1257
Rp1258
ag3
(g7
S'fi\xe2\x1bJ\xe6\xe8?'
p1259
tp1260
Rp1261
asS'\n        num_res: 10\nres_sizes:[200 200 200 200 200 200 200 200 200 200]\necho_params:[0.84999999999999998, 0.81111111111111112, 0.77222222222222214, 0.73333333333333328, 0.69444444444444442, 0.65555555555555556, 0.6166666666666667, 0.57777777777777772, 0.53888888888888886, 0.5]\ninput_scales:[0.20000000000000001, 0.20000000000000001, 0.20000000000000001, 0.20000000000000001, 0.20000000000000001, 0.20000000000000001, 0.20000000000000001, 0.20000000000000001, 0.20000000000000001, 0.20000000000000001]\nspectral_scales:[1.0, 1.0, 1.0, 1.0, 1.0, 1.0, 1.0, 1.0, 1.0, 1.0]\n        regulariser: 0.010000'
p1262
(lp1263
g3
(g7
S'\x801\x90\x06\x95\xee\xea?'
p1264
tp1265
Rp1266
ag3
(g7
S'\x82a\x8do\xde\xc4\xf0?'
p1267
tp1268
Rp1269
ag3
(g7
S'\xd5$:\xd3\xc0\x95\xe8?'
p1270
tp1271
Rp1272
asS'\n        num_res: 10\nres_sizes:[200 200 200 200 200 200 200 200 200 200]\necho_params:[0.84999999999999998, 0.81111111111111112, 0.77222222222222214, 0.73333333333333328, 0.69444444444444442, 0.65555555555555556, 0.6166666666666667, 0.57777777777777772, 0.53888888888888886, 0.5]\ninput_scales:[0.20000000000000001, 0.28888888888888892, 0.37777777777777777, 0.46666666666666667, 0.55555555555555558, 0.64444444444444449, 0.73333333333333339, 0.82222222222222219, 0.9111111111111112, 1.0]\nspectral_scales:[0.5, 0.58333333333333337, 0.66666666666666663, 0.75, 0.83333333333333326, 0.91666666666666663, 1.0, 1.0833333333333333, 1.1666666666666665, 1.25]\n        regulariser: 0.010000'
p1273
(lp1274
g3
(g7
S'\xcd\xba\x04\xb6\xb4\xaf\xef?'
p1275
tp1276
Rp1277
ag3
(g7
S'\x8dE\xfa\xe4Ir\xf4?'
p1278
tp1279
Rp1280
ag3
(g7
S'\x91\xb2\x8a\n\xea\x9d\xe4?'
p1281
tp1282
Rp1283
asS'\n        num_res: 10\nres_sizes:[ 50  72  94 116 138 161 183 205 227 250]\necho_params:[0.84999999999999998, 0.84999999999999998, 0.84999999999999998, 0.84999999999999998, 0.84999999999999998, 0.84999999999999998, 0.84999999999999998, 0.84999999999999998, 0.84999999999999998, 0.84999999999999998]\ninput_scales:[0.20000000000000001, 0.20000000000000001, 0.20000000000000001, 0.20000000000000001, 0.20000000000000001, 0.20000000000000001, 0.20000000000000001, 0.20000000000000001, 0.20000000000000001, 0.20000000000000001]\nspectral_scales:[0.90000000000000002, 0.93888888888888888, 0.97777777777777786, 1.0166666666666666, 1.0555555555555556, 1.0944444444444446, 1.1333333333333333, 1.1722222222222223, 1.2111111111111112, 1.25]\n        regulariser: 0.001000'
p1284
(lp1285
g3
(g7
S'z\x9d\x1c\xe4\x04)\xe2?'
p1286
tp1287
Rp1288
ag3
(g7
S'\xafI_\xdd&\x98\xe3?'
p1289
tp1290
Rp1291
ag3
(g7
S'\x7f*D:J\xed\xe1?'
p1292
tp1293
Rp1294
asS'\n        num_res: 10\nres_sizes:[ 50  72  94 116 138 161 183 205 227 250]\necho_params:[0.84999999999999998, 0.84999999999999998, 0.84999999999999998, 0.84999999999999998, 0.84999999999999998, 0.84999999999999998, 0.84999999999999998, 0.84999999999999998, 0.84999999999999998, 0.84999999999999998]\ninput_scales:[0.20000000000000001, 0.20000000000000001, 0.20000000000000001, 0.20000000000000001, 0.20000000000000001, 0.20000000000000001, 0.20000000000000001, 0.20000000000000001, 0.20000000000000001, 0.20000000000000001]\nspectral_scales:[0.90000000000000002, 0.87777777777777777, 0.85555555555555551, 0.83333333333333337, 0.81111111111111112, 0.78888888888888886, 0.76666666666666661, 0.74444444444444446, 0.72222222222222221, 0.69999999999999996]\n        regulariser: 0.010000'
p1295
(lp1296
g3
(g7
S'\xac\xa0lx!\x89\xe5?'
p1297
tp1298
Rp1299
ag3
(g7
S'\xef>\xa0\xb3\x06\x8f\xe8?'
p1300
tp1301
Rp1302
ag3
(g7
S'\xc6\xc9\xf7\xc2\xcaW\xe8?'
p1303
tp1304
Rp1305
asS'\n        num_res: 10\nres_sizes:[100 111 122 133 144 155 166 177 188 200]\necho_params:[0.84999999999999998, 0.84999999999999998, 0.84999999999999998, 0.84999999999999998, 0.84999999999999998, 0.84999999999999998, 0.84999999999999998, 0.84999999999999998, 0.84999999999999998, 0.84999999999999998]\ninput_scales:[0.20000000000000001, 0.28888888888888892, 0.37777777777777777, 0.46666666666666667, 0.55555555555555558, 0.64444444444444449, 0.73333333333333339, 0.82222222222222219, 0.9111111111111112, 1.0]\nspectral_scales:[1.0, 1.0, 1.0, 1.0, 1.0, 1.0, 1.0, 1.0, 1.0, 1.0]\n        regulariser: 0.010000'
p1306
(lp1307
g3
(g7
S'\xc1\xac4\x81\xca6\xf5?'
p1308
tp1309
Rp1310
ag3
(g7
S'\x8a\xc5\xff\xa6.\xb6$@'
p1311
tp1312
Rp1313
ag3
(g7
S'\xac\x0f\x83w*`\xee?'
p1314
tp1315
Rp1316
asS'\n        num_res: 10\nres_sizes:[100 111 122 133 144 155 166 177 188 200]\necho_params:[0.84999999999999998, 0.84999999999999998, 0.84999999999999998, 0.84999999999999998, 0.84999999999999998, 0.84999999999999998, 0.84999999999999998, 0.84999999999999998, 0.84999999999999998, 0.84999999999999998]\ninput_scales:[0.5, 0.5, 0.5, 0.5, 0.5, 0.5, 0.5, 0.5, 0.5, 0.5]\nspectral_scales:[0.5, 0.58333333333333337, 0.66666666666666663, 0.75, 0.83333333333333326, 0.91666666666666663, 1.0, 1.0833333333333333, 1.1666666666666665, 1.25]\n        regulariser: 0.010000'
p1317
(lp1318
g3
(g7
S'w-5\xf1\xf9\xae\x16@'
p1319
tp1320
Rp1321
ag3
(g7
S'\xae1d7o\x19\x1f@'
p1322
tp1323
Rp1324
ag3
(g7
S'\xb5>\x8b0\xf4\xf5\x12@'
p1325
tp1326
Rp1327
asS'\n        num_res: 10\nres_sizes:[200 200 200 200 200 200 200 200 200 200]\necho_params:[0.84999999999999998, 0.81111111111111112, 0.77222222222222214, 0.73333333333333328, 0.69444444444444442, 0.65555555555555556, 0.6166666666666667, 0.57777777777777772, 0.53888888888888886, 0.5]\ninput_scales:[1.0, 0.91111111111111109, 0.82222222222222219, 0.73333333333333339, 0.64444444444444438, 0.55555555555555558, 0.46666666666666667, 0.37777777777777777, 0.28888888888888886, 0.20000000000000001]\nspectral_scales:[0.90000000000000002, 0.93888888888888888, 0.97777777777777786, 1.0166666666666666, 1.0555555555555556, 1.0944444444444446, 1.1333333333333333, 1.1722222222222223, 1.2111111111111112, 1.25]\n        regulariser: 0.001000'
p1328
(lp1329
g3
(g7
S'8 0)\xaa6\xed?'
p1330
tp1331
Rp1332
ag3
(g7
S'y\x88\xdf\xf7\xe03\x12@'
p1333
tp1334
Rp1335
ag3
(g7
S'\xd1\xf9\x97T\x95\xa3\xeb?'
p1336
tp1337
Rp1338
asS'\n        num_res: 10\nres_sizes:[ 50  72  94 116 138 161 183 205 227 250]\necho_params:[0.84999999999999998, 0.81111111111111112, 0.77222222222222214, 0.73333333333333328, 0.69444444444444442, 0.65555555555555556, 0.6166666666666667, 0.57777777777777772, 0.53888888888888886, 0.5]\ninput_scales:[0.5, 0.5, 0.5, 0.5, 0.5, 0.5, 0.5, 0.5, 0.5, 0.5]\nspectral_scales:[1.0, 1.0, 1.0, 1.0, 1.0, 1.0, 1.0, 1.0, 1.0, 1.0]\n        regulariser: 0.010000'
p1339
(lp1340
g3
(g7
S"\x1e!\x8e\xbc'H\xe4?"
p1341
tp1342
Rp1343
ag3
(g7
S'\xcf\x8fv\xe35\xa0\xe4?'
p1344
tp1345
Rp1346
ag3
(g7
S'\xf4\xebyA\x82\xde\xe9?'
p1347
tp1348
Rp1349
asS'\n        num_res: 10\nres_sizes:[100 111 122 133 144 155 166 177 188 200]\necho_params:[0.84999999999999998, 0.84999999999999998, 0.84999999999999998, 0.84999999999999998, 0.84999999999999998, 0.84999999999999998, 0.84999999999999998, 0.84999999999999998, 0.84999999999999998, 0.84999999999999998]\ninput_scales:[1.0, 0.91111111111111109, 0.82222222222222219, 0.73333333333333339, 0.64444444444444438, 0.55555555555555558, 0.46666666666666667, 0.37777777777777777, 0.28888888888888886, 0.20000000000000001]\nspectral_scales:[1.0, 1.0, 1.0, 1.0, 1.0, 1.0, 1.0, 1.0, 1.0, 1.0]\n        regulariser: 0.001000'
p1350
(lp1351
g3
(g7
S'n\x1e\x7f\xce\xc9\xdc\x19@'
p1352
tp1353
Rp1354
ag3
(g7
S'\x82\xc2\xbf\x93\xf8s\r@'
p1355
tp1356
Rp1357
ag3
(g7
S'\xedKb\xa43\xbf"@'
p1358
tp1359
Rp1360
asS'\n        num_res: 10\nres_sizes:[ 50  72  94 116 138 161 183 205 227 250]\necho_params:[0.84999999999999998, 0.81111111111111112, 0.77222222222222214, 0.73333333333333328, 0.69444444444444442, 0.65555555555555556, 0.6166666666666667, 0.57777777777777772, 0.53888888888888886, 0.5]\ninput_scales:[0.20000000000000001, 0.28888888888888892, 0.37777777777777777, 0.46666666666666667, 0.55555555555555558, 0.64444444444444449, 0.73333333333333339, 0.82222222222222219, 0.9111111111111112, 1.0]\nspectral_scales:[0.5, 0.58333333333333337, 0.66666666666666663, 0.75, 0.83333333333333326, 0.91666666666666663, 1.0, 1.0833333333333333, 1.1666666666666665, 1.25]\n        regulariser: 0.000100'
p1361
(lp1362
g3
(g7
S'u.^\x02>\xbd\xe8?'
p1363
tp1364
Rp1365
ag3
(g7
S'\xbc\x85?^T\x82\xe1?'
p1366
tp1367
Rp1368
ag3
(g7
S'\xa6\x82\xdb%\xf9\t\xf3?'
p1369
tp1370
Rp1371
asS'\n        num_res: 10\nres_sizes:[ 50  72  94 116 138 161 183 205 227 250]\necho_params:[0.84999999999999998, 0.84999999999999998, 0.84999999999999998, 0.84999999999999998, 0.84999999999999998, 0.84999999999999998, 0.84999999999999998, 0.84999999999999998, 0.84999999999999998, 0.84999999999999998]\ninput_scales:[1.0, 0.91111111111111109, 0.82222222222222219, 0.73333333333333339, 0.64444444444444438, 0.55555555555555558, 0.46666666666666667, 0.37777777777777777, 0.28888888888888886, 0.20000000000000001]\nspectral_scales:[0.90000000000000002, 0.87777777777777777, 0.85555555555555551, 0.83333333333333337, 0.81111111111111112, 0.78888888888888886, 0.76666666666666661, 0.74444444444444446, 0.72222222222222221, 0.69999999999999996]\n        regulariser: 0.010000'
p1372
(lp1373
g3
(g7
S'`%\xc4\xb7\xb8\x07\xf0?'
p1374
tp1375
Rp1376
ag3
(g7
S'\xa3\xa1\xff\rg\xa8\x19@'
p1377
tp1378
Rp1379
ag3
(g7
S'\xfc\xef=\xed\xe0\xf0\x16@'
p1380
tp1381
Rp1382
asS'\n        num_res: 10\nres_sizes:[ 50  72  94 116 138 161 183 205 227 250]\necho_params:[0.84999999999999998, 0.84999999999999998, 0.84999999999999998, 0.84999999999999998, 0.84999999999999998, 0.84999999999999998, 0.84999999999999998, 0.84999999999999998, 0.84999999999999998, 0.84999999999999998]\ninput_scales:[0.20000000000000001, 0.28888888888888892, 0.37777777777777777, 0.46666666666666667, 0.55555555555555558, 0.64444444444444449, 0.73333333333333339, 0.82222222222222219, 0.9111111111111112, 1.0]\nspectral_scales:[0.90000000000000002, 0.93888888888888888, 0.97777777777777786, 1.0166666666666666, 1.0555555555555556, 1.0944444444444446, 1.1333333333333333, 1.1722222222222223, 1.2111111111111112, 1.25]\n        regulariser: 0.001000'
p1383
(lp1384
g3
(g7
S'\x9d\xc2I\x16\xf3\x0e\xe7?'
p1385
tp1386
Rp1387
ag3
(g7
S'\x86\x18\xcdp\x9a/\xe9?'
p1388
tp1389
Rp1390
ag3
(g7
S'G=a\x8b\xae\x1a\xf0?'
p1391
tp1392
Rp1393
asS'\n        num_res: 10\nres_sizes:[200 200 200 200 200 200 200 200 200 200]\necho_params:[0.84999999999999998, 0.84999999999999998, 0.84999999999999998, 0.84999999999999998, 0.84999999999999998, 0.84999999999999998, 0.84999999999999998, 0.84999999999999998, 0.84999999999999998, 0.84999999999999998]\ninput_scales:[0.20000000000000001, 0.20000000000000001, 0.20000000000000001, 0.20000000000000001, 0.20000000000000001, 0.20000000000000001, 0.20000000000000001, 0.20000000000000001, 0.20000000000000001, 0.20000000000000001]\nspectral_scales:[1.0, 1.0, 1.0, 1.0, 1.0, 1.0, 1.0, 1.0, 1.0, 1.0]\n        regulariser: 0.001000'
p1394
(lp1395
g3
(g7
S'\x1bI\x94\xf47\x8e\xeb?'
p1396
tp1397
Rp1398
ag3
(g7
S'\x8f\xc0x\xa0<\x0b\xee?'
p1399
tp1400
Rp1401
ag3
(g7
S'3\xdcAT,\xd1\xe9?'
p1402
tp1403
Rp1404
asS'\n        num_res: 10\nres_sizes:[ 50  72  94 116 138 161 183 205 227 250]\necho_params:[0.84999999999999998, 0.84999999999999998, 0.84999999999999998, 0.84999999999999998, 0.84999999999999998, 0.84999999999999998, 0.84999999999999998, 0.84999999999999998, 0.84999999999999998, 0.84999999999999998]\ninput_scales:[0.5, 0.5, 0.5, 0.5, 0.5, 0.5, 0.5, 0.5, 0.5, 0.5]\nspectral_scales:[0.90000000000000002, 0.87777777777777777, 0.85555555555555551, 0.83333333333333337, 0.81111111111111112, 0.78888888888888886, 0.76666666666666661, 0.74444444444444446, 0.72222222222222221, 0.69999999999999996]\n        regulariser: 0.010000'
p1405
(lp1406
g3
(g7
S'\xdb+\xe6\t:\x04\xfc?'
p1407
tp1408
Rp1409
ag3
(g7
S'1\xeb&1"\x93\xf3?'
p1410
tp1411
Rp1412
ag3
(g7
S'\xa9\x95\x048\r\x03\xf4?'
p1413
tp1414
Rp1415
asS'\n        num_res: 10\nres_sizes:[200 200 200 200 200 200 200 200 200 200]\necho_params:[0.84999999999999998, 0.81111111111111112, 0.77222222222222214, 0.73333333333333328, 0.69444444444444442, 0.65555555555555556, 0.6166666666666667, 0.57777777777777772, 0.53888888888888886, 0.5]\ninput_scales:[0.20000000000000001, 0.28888888888888892, 0.37777777777777777, 0.46666666666666667, 0.55555555555555558, 0.64444444444444449, 0.73333333333333339, 0.82222222222222219, 0.9111111111111112, 1.0]\nspectral_scales:[0.5, 0.58333333333333337, 0.66666666666666663, 0.75, 0.83333333333333326, 0.91666666666666663, 1.0, 1.0833333333333333, 1.1666666666666665, 1.25]\n        regulariser: 0.001000'
p1416
(lp1417
g3
(g7
S'G\xf2\x8a\x03u\xbb\xf4?'
p1418
tp1419
Rp1420
ag3
(g7
S'M\xb1\x01\xfee\x80"@'
p1421
tp1422
Rp1423
ag3
(g7
S'\xfc\x7f\xc0\xd8\xf1z\xe8?'
p1424
tp1425
Rp1426
asS'\n        num_res: 10\nres_sizes:[200 200 200 200 200 200 200 200 200 200]\necho_params:[0.84999999999999998, 0.84999999999999998, 0.84999999999999998, 0.84999999999999998, 0.84999999999999998, 0.84999999999999998, 0.84999999999999998, 0.84999999999999998, 0.84999999999999998, 0.84999999999999998]\ninput_scales:[0.20000000000000001, 0.20000000000000001, 0.20000000000000001, 0.20000000000000001, 0.20000000000000001, 0.20000000000000001, 0.20000000000000001, 0.20000000000000001, 0.20000000000000001, 0.20000000000000001]\nspectral_scales:[0.90000000000000002, 0.87777777777777777, 0.85555555555555551, 0.83333333333333337, 0.81111111111111112, 0.78888888888888886, 0.76666666666666661, 0.74444444444444446, 0.72222222222222221, 0.69999999999999996]\n        regulariser: 0.010000'
p1427
(lp1428
g3
(g7
S'\xd4p\xdc\xf1e\x95\xef?'
p1429
tp1430
Rp1431
ag3
(g7
S'm\xce\xdc\x84\xafg=@'
p1432
tp1433
Rp1434
ag3
(g7
S'\xc1X[B\xa0\x15\xe5?'
p1435
tp1436
Rp1437
asS'\n        num_res: 10\nres_sizes:[200 200 200 200 200 200 200 200 200 200]\necho_params:[0.84999999999999998, 0.81111111111111112, 0.77222222222222214, 0.73333333333333328, 0.69444444444444442, 0.65555555555555556, 0.6166666666666667, 0.57777777777777772, 0.53888888888888886, 0.5]\ninput_scales:[0.20000000000000001, 0.20000000000000001, 0.20000000000000001, 0.20000000000000001, 0.20000000000000001, 0.20000000000000001, 0.20000000000000001, 0.20000000000000001, 0.20000000000000001, 0.20000000000000001]\nspectral_scales:[0.5, 0.58333333333333337, 0.66666666666666663, 0.75, 0.83333333333333326, 0.91666666666666663, 1.0, 1.0833333333333333, 1.1666666666666665, 1.25]\n        regulariser: 0.000100'
p1438
(lp1439
g3
(g7
S'\xc7J\x8d\xf2\x91\xf0\xec?'
p1440
tp1441
Rp1442
ag3
(g7
S'\xdaP\xaa\xe2|\xb1\xeb?'
p1443
tp1444
Rp1445
ag3
(g7
S'~V\x9aI\x03\xcd\xee?'
p1446
tp1447
Rp1448
asS'\n        num_res: 10\nres_sizes:[ 50  72  94 116 138 161 183 205 227 250]\necho_params:[0.84999999999999998, 0.84999999999999998, 0.84999999999999998, 0.84999999999999998, 0.84999999999999998, 0.84999999999999998, 0.84999999999999998, 0.84999999999999998, 0.84999999999999998, 0.84999999999999998]\ninput_scales:[0.20000000000000001, 0.20000000000000001, 0.20000000000000001, 0.20000000000000001, 0.20000000000000001, 0.20000000000000001, 0.20000000000000001, 0.20000000000000001, 0.20000000000000001, 0.20000000000000001]\nspectral_scales:[0.90000000000000002, 0.87777777777777777, 0.85555555555555551, 0.83333333333333337, 0.81111111111111112, 0.78888888888888886, 0.76666666666666661, 0.74444444444444446, 0.72222222222222221, 0.69999999999999996]\n        regulariser: 0.001000'
p1449
(lp1450
g3
(g7
S'\x01\xa7EF\x877\xf5?'
p1451
tp1452
Rp1453
ag3
(g7
S'%%\x8f\xfd\x82\xdd\xee?'
p1454
tp1455
Rp1456
ag3
(g7
S'\xf3B\xb14q5\xe7?'
p1457
tp1458
Rp1459
asS'\n        num_res: 10\nres_sizes:[ 50  72  94 116 138 161 183 205 227 250]\necho_params:[0.84999999999999998, 0.81111111111111112, 0.77222222222222214, 0.73333333333333328, 0.69444444444444442, 0.65555555555555556, 0.6166666666666667, 0.57777777777777772, 0.53888888888888886, 0.5]\ninput_scales:[0.20000000000000001, 0.28888888888888892, 0.37777777777777777, 0.46666666666666667, 0.55555555555555558, 0.64444444444444449, 0.73333333333333339, 0.82222222222222219, 0.9111111111111112, 1.0]\nspectral_scales:[0.90000000000000002, 0.87777777777777777, 0.85555555555555551, 0.83333333333333337, 0.81111111111111112, 0.78888888888888886, 0.76666666666666661, 0.74444444444444446, 0.72222222222222221, 0.69999999999999996]\n        regulariser: 0.000100'
p1460
(lp1461
g3
(g7
S'\xf8\x05\xda\x9dp\xe7\xee?'
p1462
tp1463
Rp1464
ag3
(g7
S'\xf5\xab\x0e/H\xb2\xec?'
p1465
tp1466
Rp1467
ag3
(g7
S'\xdc\xa0~\xd8\x9d\x94\xe6?'
p1468
tp1469
Rp1470
asS'\n        num_res: 10\nres_sizes:[ 50  72  94 116 138 161 183 205 227 250]\necho_params:[0.84999999999999998, 0.81111111111111112, 0.77222222222222214, 0.73333333333333328, 0.69444444444444442, 0.65555555555555556, 0.6166666666666667, 0.57777777777777772, 0.53888888888888886, 0.5]\ninput_scales:[1.0, 0.91111111111111109, 0.82222222222222219, 0.73333333333333339, 0.64444444444444438, 0.55555555555555558, 0.46666666666666667, 0.37777777777777777, 0.28888888888888886, 0.20000000000000001]\nspectral_scales:[1.0, 1.0, 1.0, 1.0, 1.0, 1.0, 1.0, 1.0, 1.0, 1.0]\n        regulariser: 0.001000'
p1471
(lp1472
g3
(g7
S'\x9f\x13\x90\xda\xe2c\xf7?'
p1473
tp1474
Rp1475
ag3
(g7
S'\x03\xdd,c\xc8\xdc\xe2?'
p1476
tp1477
Rp1478
ag3
(g7
S'\x9b\x8a\xb1Y\xf7\x9d\xef?'
p1479
tp1480
Rp1481
asS'\n        num_res: 10\nres_sizes:[200 200 200 200 200 200 200 200 200 200]\necho_params:[0.84999999999999998, 0.81111111111111112, 0.77222222222222214, 0.73333333333333328, 0.69444444444444442, 0.65555555555555556, 0.6166666666666667, 0.57777777777777772, 0.53888888888888886, 0.5]\ninput_scales:[0.20000000000000001, 0.28888888888888892, 0.37777777777777777, 0.46666666666666667, 0.55555555555555558, 0.64444444444444449, 0.73333333333333339, 0.82222222222222219, 0.9111111111111112, 1.0]\nspectral_scales:[0.90000000000000002, 0.87777777777777777, 0.85555555555555551, 0.83333333333333337, 0.81111111111111112, 0.78888888888888886, 0.76666666666666661, 0.74444444444444446, 0.72222222222222221, 0.69999999999999996]\n        regulariser: 0.010000'
p1482
(lp1483
g3
(g7
S'N\x8e4\x7f,z\xe9?'
p1484
tp1485
Rp1486
ag3
(g7
S'\x02\x02\xbfd\t\xff\xde?'
p1487
tp1488
Rp1489
ag3
(g7
S'E\x08y\x8fS`\xe7?'
p1490
tp1491
Rp1492
asS'\n        num_res: 10\nres_sizes:[200 200 200 200 200 200 200 200 200 200]\necho_params:[0.84999999999999998, 0.84999999999999998, 0.84999999999999998, 0.84999999999999998, 0.84999999999999998, 0.84999999999999998, 0.84999999999999998, 0.84999999999999998, 0.84999999999999998, 0.84999999999999998]\ninput_scales:[1.0, 0.91111111111111109, 0.82222222222222219, 0.73333333333333339, 0.64444444444444438, 0.55555555555555558, 0.46666666666666667, 0.37777777777777777, 0.28888888888888886, 0.20000000000000001]\nspectral_scales:[0.90000000000000002, 0.87777777777777777, 0.85555555555555551, 0.83333333333333337, 0.81111111111111112, 0.78888888888888886, 0.76666666666666661, 0.74444444444444446, 0.72222222222222221, 0.69999999999999996]\n        regulariser: 0.010000'
p1493
(lp1494
g3
(g7
S'\xa1\xcc\xfcl\x19N\x0f@'
p1495
tp1496
Rp1497
ag3
(g7
S'\x14\xae}s6\xca\x03@'
p1498
tp1499
Rp1500
ag3
(g7
S'/b\xccP\x90\xde\x1d@'
p1501
tp1502
Rp1503
asS'\n        num_res: 10\nres_sizes:[ 50  72  94 116 138 161 183 205 227 250]\necho_params:[0.84999999999999998, 0.81111111111111112, 0.77222222222222214, 0.73333333333333328, 0.69444444444444442, 0.65555555555555556, 0.6166666666666667, 0.57777777777777772, 0.53888888888888886, 0.5]\ninput_scales:[1.0, 0.91111111111111109, 0.82222222222222219, 0.73333333333333339, 0.64444444444444438, 0.55555555555555558, 0.46666666666666667, 0.37777777777777777, 0.28888888888888886, 0.20000000000000001]\nspectral_scales:[0.90000000000000002, 0.87777777777777777, 0.85555555555555551, 0.83333333333333337, 0.81111111111111112, 0.78888888888888886, 0.76666666666666661, 0.74444444444444446, 0.72222222222222221, 0.69999999999999996]\n        regulariser: 0.000100'
p1504
(lp1505
g3
(g7
S'\xc0\xc8R\x88\x0130@'
p1506
tp1507
Rp1508
ag3
(g7
S'8P\x8f\x1c\x0e\x12\x16@'
p1509
tp1510
Rp1511
ag3
(g7
S'U\x17\xeb\x16\xdbC\xf6?'
p1512
tp1513
Rp1514
asS'\n        num_res: 10\nres_sizes:[100 111 122 133 144 155 166 177 188 200]\necho_params:[0.84999999999999998, 0.81111111111111112, 0.77222222222222214, 0.73333333333333328, 0.69444444444444442, 0.65555555555555556, 0.6166666666666667, 0.57777777777777772, 0.53888888888888886, 0.5]\ninput_scales:[0.20000000000000001, 0.20000000000000001, 0.20000000000000001, 0.20000000000000001, 0.20000000000000001, 0.20000000000000001, 0.20000000000000001, 0.20000000000000001, 0.20000000000000001, 0.20000000000000001]\nspectral_scales:[1.0, 1.0, 1.0, 1.0, 1.0, 1.0, 1.0, 1.0, 1.0, 1.0]\n        regulariser: 0.000100'
p1515
(lp1516
g3
(g7
S'{\x16\x17\x8f\x83\xbc\xe8?'
p1517
tp1518
Rp1519
ag3
(g7
S'\xeb}\x92o\x94\x0b\xdc?'
p1520
tp1521
Rp1522
ag3
(g7
S'\xc5`\x17\x06\x8b\x8e\xf1?'
p1523
tp1524
Rp1525
asS'\n        num_res: 10\nres_sizes:[100 111 122 133 144 155 166 177 188 200]\necho_params:[0.84999999999999998, 0.81111111111111112, 0.77222222222222214, 0.73333333333333328, 0.69444444444444442, 0.65555555555555556, 0.6166666666666667, 0.57777777777777772, 0.53888888888888886, 0.5]\ninput_scales:[1.0, 0.91111111111111109, 0.82222222222222219, 0.73333333333333339, 0.64444444444444438, 0.55555555555555558, 0.46666666666666667, 0.37777777777777777, 0.28888888888888886, 0.20000000000000001]\nspectral_scales:[0.90000000000000002, 0.93888888888888888, 0.97777777777777786, 1.0166666666666666, 1.0555555555555556, 1.0944444444444446, 1.1333333333333333, 1.1722222222222223, 1.2111111111111112, 1.25]\n        regulariser: 0.001000'
p1526
(lp1527
g3
(g7
S'\xc5&\x1f\x19Hg\x13@'
p1528
tp1529
Rp1530
ag3
(g7
S'\xf1\x97\x92%\x93\x1d\xee?'
p1531
tp1532
Rp1533
ag3
(g7
S'\x95I\x04\x98PW\xed?'
p1534
tp1535
Rp1536
asS'\n        num_res: 10\nres_sizes:[100 111 122 133 144 155 166 177 188 200]\necho_params:[0.84999999999999998, 0.84999999999999998, 0.84999999999999998, 0.84999999999999998, 0.84999999999999998, 0.84999999999999998, 0.84999999999999998, 0.84999999999999998, 0.84999999999999998, 0.84999999999999998]\ninput_scales:[0.20000000000000001, 0.28888888888888892, 0.37777777777777777, 0.46666666666666667, 0.55555555555555558, 0.64444444444444449, 0.73333333333333339, 0.82222222222222219, 0.9111111111111112, 1.0]\nspectral_scales:[0.90000000000000002, 0.87777777777777777, 0.85555555555555551, 0.83333333333333337, 0.81111111111111112, 0.78888888888888886, 0.76666666666666661, 0.74444444444444446, 0.72222222222222221, 0.69999999999999996]\n        regulariser: 0.001000'
p1537
(lp1538
g3
(g7
S'\xd1B*\xa8\xfd)\xe2?'
p1539
tp1540
Rp1541
ag3
(g7
S"f'\x99\xcf\xec\xff\xea?"
p1542
tp1543
Rp1544
ag3
(g7
S'(\xae\x9fE\x84\xfa @'
p1545
tp1546
Rp1547
asS'\n        num_res: 10\nres_sizes:[ 50  72  94 116 138 161 183 205 227 250]\necho_params:[0.84999999999999998, 0.81111111111111112, 0.77222222222222214, 0.73333333333333328, 0.69444444444444442, 0.65555555555555556, 0.6166666666666667, 0.57777777777777772, 0.53888888888888886, 0.5]\ninput_scales:[0.20000000000000001, 0.20000000000000001, 0.20000000000000001, 0.20000000000000001, 0.20000000000000001, 0.20000000000000001, 0.20000000000000001, 0.20000000000000001, 0.20000000000000001, 0.20000000000000001]\nspectral_scales:[1.0, 1.0, 1.0, 1.0, 1.0, 1.0, 1.0, 1.0, 1.0, 1.0]\n        regulariser: 0.001000'
p1548
(lp1549
g3
(g7
S'\x1a\xb0x\xb1\x82\xc8\xea?'
p1550
tp1551
Rp1552
ag3
(g7
S'\x03\x9a\xb4U`\xd5\xe9?'
p1553
tp1554
Rp1555
ag3
(g7
S'\xa1\xf3\xd9\xcc\x96E\xe9?'
p1556
tp1557
Rp1558
asS'\n        num_res: 10\nres_sizes:[100 111 122 133 144 155 166 177 188 200]\necho_params:[0.84999999999999998, 0.81111111111111112, 0.77222222222222214, 0.73333333333333328, 0.69444444444444442, 0.65555555555555556, 0.6166666666666667, 0.57777777777777772, 0.53888888888888886, 0.5]\ninput_scales:[1.0, 0.91111111111111109, 0.82222222222222219, 0.73333333333333339, 0.64444444444444438, 0.55555555555555558, 0.46666666666666667, 0.37777777777777777, 0.28888888888888886, 0.20000000000000001]\nspectral_scales:[0.5, 0.58333333333333337, 0.66666666666666663, 0.75, 0.83333333333333326, 0.91666666666666663, 1.0, 1.0833333333333333, 1.1666666666666665, 1.25]\n        regulariser: 0.010000'
p1559
(lp1560
g3
(g7
S'\xbf\x16\xe0\x88#\xdc\xf1?'
p1561
tp1562
Rp1563
ag3
(g7
S'c\xf6~\x02R\xd5\xe5?'
p1564
tp1565
Rp1566
ag3
(g7
S'5\x8fl\xb2\xf4\xf8\xec?'
p1567
tp1568
Rp1569
asS'\n        num_res: 10\nres_sizes:[200 200 200 200 200 200 200 200 200 200]\necho_params:[0.84999999999999998, 0.84999999999999998, 0.84999999999999998, 0.84999999999999998, 0.84999999999999998, 0.84999999999999998, 0.84999999999999998, 0.84999999999999998, 0.84999999999999998, 0.84999999999999998]\ninput_scales:[0.20000000000000001, 0.20000000000000001, 0.20000000000000001, 0.20000000000000001, 0.20000000000000001, 0.20000000000000001, 0.20000000000000001, 0.20000000000000001, 0.20000000000000001, 0.20000000000000001]\nspectral_scales:[0.5, 0.58333333333333337, 0.66666666666666663, 0.75, 0.83333333333333326, 0.91666666666666663, 1.0, 1.0833333333333333, 1.1666666666666665, 1.25]\n        regulariser: 0.010000'
p1570
(lp1571
g3
(g7
S'\xf5\xf4\xd3]\xf3\x7f\xf3?'
p1572
tp1573
Rp1574
ag3
(g7
S'!]`r;\xf9\xef?'
p1575
tp1576
Rp1577
ag3
(g7
S'N\r\xfevN\x1a\xe4?'
p1578
tp1579
Rp1580
asS'\n        num_res: 10\nres_sizes:[100 111 122 133 144 155 166 177 188 200]\necho_params:[0.84999999999999998, 0.81111111111111112, 0.77222222222222214, 0.73333333333333328, 0.69444444444444442, 0.65555555555555556, 0.6166666666666667, 0.57777777777777772, 0.53888888888888886, 0.5]\ninput_scales:[1.0, 0.91111111111111109, 0.82222222222222219, 0.73333333333333339, 0.64444444444444438, 0.55555555555555558, 0.46666666666666667, 0.37777777777777777, 0.28888888888888886, 0.20000000000000001]\nspectral_scales:[1.0, 1.0, 1.0, 1.0, 1.0, 1.0, 1.0, 1.0, 1.0, 1.0]\n        regulariser: 0.001000'
p1581
(lp1582
g3
(g7
S"\xbf&\xee|'[\xf0?"
p1583
tp1584
Rp1585
ag3
(g7
S'j,\x1a\x95ES\xf3?'
p1586
tp1587
Rp1588
ag3
(g7
S'X=\xf1\xcd\x0f\xce\x06@'
p1589
tp1590
Rp1591
asS'\n        num_res: 10\nres_sizes:[200 200 200 200 200 200 200 200 200 200]\necho_params:[0.84999999999999998, 0.84999999999999998, 0.84999999999999998, 0.84999999999999998, 0.84999999999999998, 0.84999999999999998, 0.84999999999999998, 0.84999999999999998, 0.84999999999999998, 0.84999999999999998]\ninput_scales:[0.20000000000000001, 0.20000000000000001, 0.20000000000000001, 0.20000000000000001, 0.20000000000000001, 0.20000000000000001, 0.20000000000000001, 0.20000000000000001, 0.20000000000000001, 0.20000000000000001]\nspectral_scales:[1.0, 1.0, 1.0, 1.0, 1.0, 1.0, 1.0, 1.0, 1.0, 1.0]\n        regulariser: 0.010000'
p1592
(lp1593
g3
(g7
S'\x1bc\x1e>!U\xe7?'
p1594
tp1595
Rp1596
ag3
(g7
S'\xca\xa3\x9e~\x0e\r\xe8?'
p1597
tp1598
Rp1599
ag3
(g7
S'x\x8a\xe0\xff\x81\xa1\xe8?'
p1600
tp1601
Rp1602
asS'\n        num_res: 10\nres_sizes:[100 111 122 133 144 155 166 177 188 200]\necho_params:[0.84999999999999998, 0.84999999999999998, 0.84999999999999998, 0.84999999999999998, 0.84999999999999998, 0.84999999999999998, 0.84999999999999998, 0.84999999999999998, 0.84999999999999998, 0.84999999999999998]\ninput_scales:[1.0, 0.91111111111111109, 0.82222222222222219, 0.73333333333333339, 0.64444444444444438, 0.55555555555555558, 0.46666666666666667, 0.37777777777777777, 0.28888888888888886, 0.20000000000000001]\nspectral_scales:[0.90000000000000002, 0.87777777777777777, 0.85555555555555551, 0.83333333333333337, 0.81111111111111112, 0.78888888888888886, 0.76666666666666661, 0.74444444444444446, 0.72222222222222221, 0.69999999999999996]\n        regulariser: 0.010000'
p1603
(lp1604
g3
(g7
S'\xb6\xc1\xa7R\xd0\x8c\x13@'
p1605
tp1606
Rp1607
ag3
(g7
S'\x1c\x1a\x1a\xd7Kn\x01@'
p1608
tp1609
Rp1610
ag3
(g7
S'\xdc\\\x14V\xc2\xf5\xfb?'
p1611
tp1612
Rp1613
asS'\n        num_res: 10\nres_sizes:[100 111 122 133 144 155 166 177 188 200]\necho_params:[0.84999999999999998, 0.81111111111111112, 0.77222222222222214, 0.73333333333333328, 0.69444444444444442, 0.65555555555555556, 0.6166666666666667, 0.57777777777777772, 0.53888888888888886, 0.5]\ninput_scales:[0.20000000000000001, 0.28888888888888892, 0.37777777777777777, 0.46666666666666667, 0.55555555555555558, 0.64444444444444449, 0.73333333333333339, 0.82222222222222219, 0.9111111111111112, 1.0]\nspectral_scales:[0.5, 0.58333333333333337, 0.66666666666666663, 0.75, 0.83333333333333326, 0.91666666666666663, 1.0, 1.0833333333333333, 1.1666666666666665, 1.25]\n        regulariser: 0.010000'
p1614
(lp1615
g3
(g7
S'\xd7\xe9^\x1c\xee\xc8\xe9?'
p1616
tp1617
Rp1618
ag3
(g7
S'a+\xce\xe4\xa5\xdf\xf3?'
p1619
tp1620
Rp1621
ag3
(g7
S'\xf7\xa9\xef\xb2\xa3(\xf4?'
p1622
tp1623
Rp1624
asS'\n        num_res: 10\nres_sizes:[200 200 200 200 200 200 200 200 200 200]\necho_params:[0.84999999999999998, 0.81111111111111112, 0.77222222222222214, 0.73333333333333328, 0.69444444444444442, 0.65555555555555556, 0.6166666666666667, 0.57777777777777772, 0.53888888888888886, 0.5]\ninput_scales:[0.20000000000000001, 0.28888888888888892, 0.37777777777777777, 0.46666666666666667, 0.55555555555555558, 0.64444444444444449, 0.73333333333333339, 0.82222222222222219, 0.9111111111111112, 1.0]\nspectral_scales:[0.90000000000000002, 0.93888888888888888, 0.97777777777777786, 1.0166666666666666, 1.0555555555555556, 1.0944444444444446, 1.1333333333333333, 1.1722222222222223, 1.2111111111111112, 1.25]\n        regulariser: 0.001000'
p1625
(lp1626
g3
(g7
S'\x08\x08\xb2\n\xe3\xa0\xef?'
p1627
tp1628
Rp1629
ag3
(g7
S'\x11\xcf\xad\x8e\x98\xc7\xe9?'
p1630
tp1631
Rp1632
ag3
(g7
S'\xf5\xc1\x0f\x81%\x0b\xe7?'
p1633
tp1634
Rp1635
asS'\n        num_res: 10\nres_sizes:[ 50  72  94 116 138 161 183 205 227 250]\necho_params:[0.84999999999999998, 0.84999999999999998, 0.84999999999999998, 0.84999999999999998, 0.84999999999999998, 0.84999999999999998, 0.84999999999999998, 0.84999999999999998, 0.84999999999999998, 0.84999999999999998]\ninput_scales:[0.20000000000000001, 0.20000000000000001, 0.20000000000000001, 0.20000000000000001, 0.20000000000000001, 0.20000000000000001, 0.20000000000000001, 0.20000000000000001, 0.20000000000000001, 0.20000000000000001]\nspectral_scales:[0.90000000000000002, 0.93888888888888888, 0.97777777777777786, 1.0166666666666666, 1.0555555555555556, 1.0944444444444446, 1.1333333333333333, 1.1722222222222223, 1.2111111111111112, 1.25]\n        regulariser: 0.010000'
p1636
(lp1637
g3
(g7
S'\xb4\t\xdb\xed\xb5\x88\xed?'
p1638
tp1639
Rp1640
ag3
(g7
S'\xd5\xbel\x08(\x91\xe4?'
p1641
tp1642
Rp1643
ag3
(g7
S"'\xc4\xf5~\xb9\x81\xea?"
p1644
tp1645
Rp1646
asS'\n        num_res: 10\nres_sizes:[200 200 200 200 200 200 200 200 200 200]\necho_params:[0.84999999999999998, 0.84999999999999998, 0.84999999999999998, 0.84999999999999998, 0.84999999999999998, 0.84999999999999998, 0.84999999999999998, 0.84999999999999998, 0.84999999999999998, 0.84999999999999998]\ninput_scales:[1.0, 0.91111111111111109, 0.82222222222222219, 0.73333333333333339, 0.64444444444444438, 0.55555555555555558, 0.46666666666666667, 0.37777777777777777, 0.28888888888888886, 0.20000000000000001]\nspectral_scales:[1.0, 1.0, 1.0, 1.0, 1.0, 1.0, 1.0, 1.0, 1.0, 1.0]\n        regulariser: 0.001000'
p1647
(lp1648
g3
(g7
S'Q+5\x80\x95\xbe$@'
p1649
tp1650
Rp1651
ag3
(g7
S'\xc2 \xe7d=? @'
p1652
tp1653
Rp1654
ag3
(g7
S'\xe8\x19\xd6W\xad\x00+@'
p1655
tp1656
Rp1657
asS'\n        num_res: 10\nres_sizes:[100 111 122 133 144 155 166 177 188 200]\necho_params:[0.84999999999999998, 0.84999999999999998, 0.84999999999999998, 0.84999999999999998, 0.84999999999999998, 0.84999999999999998, 0.84999999999999998, 0.84999999999999998, 0.84999999999999998, 0.84999999999999998]\ninput_scales:[0.5, 0.5, 0.5, 0.5, 0.5, 0.5, 0.5, 0.5, 0.5, 0.5]\nspectral_scales:[0.90000000000000002, 0.93888888888888888, 0.97777777777777786, 1.0166666666666666, 1.0555555555555556, 1.0944444444444446, 1.1333333333333333, 1.1722222222222223, 1.2111111111111112, 1.25]\n        regulariser: 0.001000'
p1658
(lp1659
g3
(g7
S'G\xa4\x02\x93k\x88\xfa?'
p1660
tp1661
Rp1662
ag3
(g7
S'b\xc2\xe1\xf9/\xc4\x13@'
p1663
tp1664
Rp1665
ag3
(g7
S'<\xa0\x83j\xbc\x9b\x16@'
p1666
tp1667
Rp1668
asS'\n        num_res: 10\nres_sizes:[200 200 200 200 200 200 200 200 200 200]\necho_params:[0.84999999999999998, 0.81111111111111112, 0.77222222222222214, 0.73333333333333328, 0.69444444444444442, 0.65555555555555556, 0.6166666666666667, 0.57777777777777772, 0.53888888888888886, 0.5]\ninput_scales:[0.20000000000000001, 0.28888888888888892, 0.37777777777777777, 0.46666666666666667, 0.55555555555555558, 0.64444444444444449, 0.73333333333333339, 0.82222222222222219, 0.9111111111111112, 1.0]\nspectral_scales:[1.0, 1.0, 1.0, 1.0, 1.0, 1.0, 1.0, 1.0, 1.0, 1.0]\n        regulariser: 0.000100'
p1669
(lp1670
g3
(g7
S'\x8e\x1dY\xa84\xa2\xe7?'
p1671
tp1672
Rp1673
ag3
(g7
S'\x87\xa8K\xf8"\xb2\xe6?'
p1674
tp1675
Rp1676
ag3
(g7
S'\xc6V\x05\xf0\x1ay\x00@'
p1677
tp1678
Rp1679
asS'\n        num_res: 10\nres_sizes:[100 111 122 133 144 155 166 177 188 200]\necho_params:[0.84999999999999998, 0.81111111111111112, 0.77222222222222214, 0.73333333333333328, 0.69444444444444442, 0.65555555555555556, 0.6166666666666667, 0.57777777777777772, 0.53888888888888886, 0.5]\ninput_scales:[0.20000000000000001, 0.20000000000000001, 0.20000000000000001, 0.20000000000000001, 0.20000000000000001, 0.20000000000000001, 0.20000000000000001, 0.20000000000000001, 0.20000000000000001, 0.20000000000000001]\nspectral_scales:[0.90000000000000002, 0.87777777777777777, 0.85555555555555551, 0.83333333333333337, 0.81111111111111112, 0.78888888888888886, 0.76666666666666661, 0.74444444444444446, 0.72222222222222221, 0.69999999999999996]\n        regulariser: 0.001000'
p1680
(lp1681
g3
(g7
S'\x95-\xf6\xc0\xbf\x8e\xf3?'
p1682
tp1683
Rp1684
ag3
(g7
S'75\x03Ai*\xf4?'
p1685
tp1686
Rp1687
ag3
(g7
S'\xdb)\x91Z\x06\x8b\xe0?'
p1688
tp1689
Rp1690
asS'\n        num_res: 10\nres_sizes:[100 111 122 133 144 155 166 177 188 200]\necho_params:[0.84999999999999998, 0.81111111111111112, 0.77222222222222214, 0.73333333333333328, 0.69444444444444442, 0.65555555555555556, 0.6166666666666667, 0.57777777777777772, 0.53888888888888886, 0.5]\ninput_scales:[0.20000000000000001, 0.20000000000000001, 0.20000000000000001, 0.20000000000000001, 0.20000000000000001, 0.20000000000000001, 0.20000000000000001, 0.20000000000000001, 0.20000000000000001, 0.20000000000000001]\nspectral_scales:[0.90000000000000002, 0.93888888888888888, 0.97777777777777786, 1.0166666666666666, 1.0555555555555556, 1.0944444444444446, 1.1333333333333333, 1.1722222222222223, 1.2111111111111112, 1.25]\n        regulariser: 0.000100'
p1691
(lp1692
g3
(g7
S'\xc6B\xfc\xd4\xf8\xc2\xeb?'
p1693
tp1694
Rp1695
ag3
(g7
S'\x03\xc3\xa9RS;\xe7?'
p1696
tp1697
Rp1698
ag3
(g7
S'6gh\x8adC\xf2?'
p1699
tp1700
Rp1701
asS'\n        num_res: 10\nres_sizes:[200 200 200 200 200 200 200 200 200 200]\necho_params:[0.84999999999999998, 0.84999999999999998, 0.84999999999999998, 0.84999999999999998, 0.84999999999999998, 0.84999999999999998, 0.84999999999999998, 0.84999999999999998, 0.84999999999999998, 0.84999999999999998]\ninput_scales:[0.20000000000000001, 0.20000000000000001, 0.20000000000000001, 0.20000000000000001, 0.20000000000000001, 0.20000000000000001, 0.20000000000000001, 0.20000000000000001, 0.20000000000000001, 0.20000000000000001]\nspectral_scales:[0.90000000000000002, 0.93888888888888888, 0.97777777777777786, 1.0166666666666666, 1.0555555555555556, 1.0944444444444446, 1.1333333333333333, 1.1722222222222223, 1.2111111111111112, 1.25]\n        regulariser: 0.001000'
p1702
(lp1703
g3
(g7
S'\x8c\xcd\x85\x19\xc9W\xf1?'
p1704
tp1705
Rp1706
ag3
(g7
S'\xf0\x03i\xcb:\x07\xf0?'
p1707
tp1708
Rp1709
ag3
(g7
S'6\xaa\xda\x90\x1d.\xeb?'
p1710
tp1711
Rp1712
asS'\n        num_res: 10\nres_sizes:[200 200 200 200 200 200 200 200 200 200]\necho_params:[0.84999999999999998, 0.81111111111111112, 0.77222222222222214, 0.73333333333333328, 0.69444444444444442, 0.65555555555555556, 0.6166666666666667, 0.57777777777777772, 0.53888888888888886, 0.5]\ninput_scales:[0.5, 0.5, 0.5, 0.5, 0.5, 0.5, 0.5, 0.5, 0.5, 0.5]\nspectral_scales:[0.5, 0.58333333333333337, 0.66666666666666663, 0.75, 0.83333333333333326, 0.91666666666666663, 1.0, 1.0833333333333333, 1.1666666666666665, 1.25]\n        regulariser: 0.010000'
p1713
(lp1714
g3
(g7
S'7\x94\xeew\xde\x1e\xef?'
p1715
tp1716
Rp1717
ag3
(g7
S'\xf0w\x97wW\xe0\xe9?'
p1718
tp1719
Rp1720
ag3
(g7
S'\xea\x80\xbd\xb5\xc44\xea?'
p1721
tp1722
Rp1723
asS'\n        num_res: 10\nres_sizes:[100 111 122 133 144 155 166 177 188 200]\necho_params:[0.84999999999999998, 0.81111111111111112, 0.77222222222222214, 0.73333333333333328, 0.69444444444444442, 0.65555555555555556, 0.6166666666666667, 0.57777777777777772, 0.53888888888888886, 0.5]\ninput_scales:[0.5, 0.5, 0.5, 0.5, 0.5, 0.5, 0.5, 0.5, 0.5, 0.5]\nspectral_scales:[0.90000000000000002, 0.87777777777777777, 0.85555555555555551, 0.83333333333333337, 0.81111111111111112, 0.78888888888888886, 0.76666666666666661, 0.74444444444444446, 0.72222222222222221, 0.69999999999999996]\n        regulariser: 0.000100'
p1724
(lp1725
g3
(g7
S'#pC\x85\x86\xe1\xe9?'
p1726
tp1727
Rp1728
ag3
(g7
S',\xb9\x18\xde\xa8)"@'
p1729
tp1730
Rp1731
ag3
(g7
S'\xc4\x97\xc0\xc7\x84]\xf5?'
p1732
tp1733
Rp1734
asS'\n        num_res: 10\nres_sizes:[ 50  72  94 116 138 161 183 205 227 250]\necho_params:[0.84999999999999998, 0.81111111111111112, 0.77222222222222214, 0.73333333333333328, 0.69444444444444442, 0.65555555555555556, 0.6166666666666667, 0.57777777777777772, 0.53888888888888886, 0.5]\ninput_scales:[1.0, 0.91111111111111109, 0.82222222222222219, 0.73333333333333339, 0.64444444444444438, 0.55555555555555558, 0.46666666666666667, 0.37777777777777777, 0.28888888888888886, 0.20000000000000001]\nspectral_scales:[0.90000000000000002, 0.93888888888888888, 0.97777777777777786, 1.0166666666666666, 1.0555555555555556, 1.0944444444444446, 1.1333333333333333, 1.1722222222222223, 1.2111111111111112, 1.25]\n        regulariser: 0.001000'
p1735
(lp1736
g3
(g7
S'0\x19\x8dX=2\xf0?'
p1737
tp1738
Rp1739
ag3
(g7
S'=\x80\xe4\xf4\x95|\xea?'
p1740
tp1741
Rp1742
ag3
(g7
S'\xeb#\xd9]\xb8\xfc\xe8?'
p1743
tp1744
Rp1745
asS'\n        num_res: 10\nres_sizes:[100 111 122 133 144 155 166 177 188 200]\necho_params:[0.84999999999999998, 0.81111111111111112, 0.77222222222222214, 0.73333333333333328, 0.69444444444444442, 0.65555555555555556, 0.6166666666666667, 0.57777777777777772, 0.53888888888888886, 0.5]\ninput_scales:[1.0, 0.91111111111111109, 0.82222222222222219, 0.73333333333333339, 0.64444444444444438, 0.55555555555555558, 0.46666666666666667, 0.37777777777777777, 0.28888888888888886, 0.20000000000000001]\nspectral_scales:[0.90000000000000002, 0.93888888888888888, 0.97777777777777786, 1.0166666666666666, 1.0555555555555556, 1.0944444444444446, 1.1333333333333333, 1.1722222222222223, 1.2111111111111112, 1.25]\n        regulariser: 0.010000'
p1746
(lp1747
g3
(g7
S'#?\xa2\xde\xea_\xeb?'
p1748
tp1749
Rp1750
ag3
(g7
S'\x0fy\xadk\x17P\xe7?'
p1751
tp1752
Rp1753
ag3
(g7
S'\xac\xc4\x8d\xad\xda9\xf4?'
p1754
tp1755
Rp1756
asS'\n        num_res: 10\nres_sizes:[200 200 200 200 200 200 200 200 200 200]\necho_params:[0.84999999999999998, 0.84999999999999998, 0.84999999999999998, 0.84999999999999998, 0.84999999999999998, 0.84999999999999998, 0.84999999999999998, 0.84999999999999998, 0.84999999999999998, 0.84999999999999998]\ninput_scales:[0.5, 0.5, 0.5, 0.5, 0.5, 0.5, 0.5, 0.5, 0.5, 0.5]\nspectral_scales:[1.0, 1.0, 1.0, 1.0, 1.0, 1.0, 1.0, 1.0, 1.0, 1.0]\n        regulariser: 0.001000'
p1757
(lp1758
g3
(g7
S"\xda\x1b\x95\x81\x91'\xee?"
p1759
tp1760
Rp1761
ag3
(g7
S'w\x96\x02q5\xee\xf4?'
p1762
tp1763
Rp1764
ag3
(g7
S'\x19\xea\xdc\xe6\xd4\xab\xf7?'
p1765
tp1766
Rp1767
asS'\n        num_res: 10\nres_sizes:[100 111 122 133 144 155 166 177 188 200]\necho_params:[0.84999999999999998, 0.81111111111111112, 0.77222222222222214, 0.73333333333333328, 0.69444444444444442, 0.65555555555555556, 0.6166666666666667, 0.57777777777777772, 0.53888888888888886, 0.5]\ninput_scales:[0.20000000000000001, 0.28888888888888892, 0.37777777777777777, 0.46666666666666667, 0.55555555555555558, 0.64444444444444449, 0.73333333333333339, 0.82222222222222219, 0.9111111111111112, 1.0]\nspectral_scales:[0.5, 0.58333333333333337, 0.66666666666666663, 0.75, 0.83333333333333326, 0.91666666666666663, 1.0, 1.0833333333333333, 1.1666666666666665, 1.25]\n        regulariser: 0.000100'
p1768
(lp1769
g3
(g7
S'\xea&H\xfb\xf0\xbf\xea?'
p1770
tp1771
Rp1772
ag3
(g7
S'_\x02Kj\xd8[\xf9?'
p1773
tp1774
Rp1775
ag3
(g7
S'\xa7\xb3\xe0 \x8e\xfdH@'
p1776
tp1777
Rp1778
asS'\n        num_res: 10\nres_sizes:[ 50  72  94 116 138 161 183 205 227 250]\necho_params:[0.84999999999999998, 0.81111111111111112, 0.77222222222222214, 0.73333333333333328, 0.69444444444444442, 0.65555555555555556, 0.6166666666666667, 0.57777777777777772, 0.53888888888888886, 0.5]\ninput_scales:[1.0, 0.91111111111111109, 0.82222222222222219, 0.73333333333333339, 0.64444444444444438, 0.55555555555555558, 0.46666666666666667, 0.37777777777777777, 0.28888888888888886, 0.20000000000000001]\nspectral_scales:[0.5, 0.58333333333333337, 0.66666666666666663, 0.75, 0.83333333333333326, 0.91666666666666663, 1.0, 1.0833333333333333, 1.1666666666666665, 1.25]\n        regulariser: 0.000100'
p1779
(lp1780
g3
(g7
S'6\x93;\x0e\x1a\x17\x15@'
p1781
tp1782
Rp1783
ag3
(g7
S'O\x7f\x9e\xd3D\xa8\xe9?'
p1784
tp1785
Rp1786
ag3
(g7
S'c\x9f\xe2\xd5\x87n\xef?'
p1787
tp1788
Rp1789
asS'\n        num_res: 10\nres_sizes:[100 111 122 133 144 155 166 177 188 200]\necho_params:[0.84999999999999998, 0.84999999999999998, 0.84999999999999998, 0.84999999999999998, 0.84999999999999998, 0.84999999999999998, 0.84999999999999998, 0.84999999999999998, 0.84999999999999998, 0.84999999999999998]\ninput_scales:[1.0, 0.91111111111111109, 0.82222222222222219, 0.73333333333333339, 0.64444444444444438, 0.55555555555555558, 0.46666666666666667, 0.37777777777777777, 0.28888888888888886, 0.20000000000000001]\nspectral_scales:[0.90000000000000002, 0.93888888888888888, 0.97777777777777786, 1.0166666666666666, 1.0555555555555556, 1.0944444444444446, 1.1333333333333333, 1.1722222222222223, 1.2111111111111112, 1.25]\n        regulariser: 0.010000'
p1790
(lp1791
g3
(g7
S'\xfdA\xf2\xb92n\xfb?'
p1792
tp1793
Rp1794
ag3
(g7
S'\x9dU"\xd4\xdfQ\xef?'
p1795
tp1796
Rp1797
ag3
(g7
S'\xb9\x08\x95\xb3\x1fb\xfd?'
p1798
tp1799
Rp1800
asS'\n        num_res: 10\nres_sizes:[100 111 122 133 144 155 166 177 188 200]\necho_params:[0.84999999999999998, 0.84999999999999998, 0.84999999999999998, 0.84999999999999998, 0.84999999999999998, 0.84999999999999998, 0.84999999999999998, 0.84999999999999998, 0.84999999999999998, 0.84999999999999998]\ninput_scales:[0.20000000000000001, 0.28888888888888892, 0.37777777777777777, 0.46666666666666667, 0.55555555555555558, 0.64444444444444449, 0.73333333333333339, 0.82222222222222219, 0.9111111111111112, 1.0]\nspectral_scales:[1.0, 1.0, 1.0, 1.0, 1.0, 1.0, 1.0, 1.0, 1.0, 1.0]\n        regulariser: 0.001000'
p1801
(lp1802
g3
(g7
S'\xf207\xe9P1\xf1?'
p1803
tp1804
Rp1805
ag3
(g7
S'\xb2\xa6\xec\x1ar\xe7\xf1?'
p1806
tp1807
Rp1808
ag3
(g7
S'\xc2\x89\xd6.\x02\x8d\xf0?'
p1809
tp1810
Rp1811
asS'\n        num_res: 10\nres_sizes:[200 200 200 200 200 200 200 200 200 200]\necho_params:[0.84999999999999998, 0.84999999999999998, 0.84999999999999998, 0.84999999999999998, 0.84999999999999998, 0.84999999999999998, 0.84999999999999998, 0.84999999999999998, 0.84999999999999998, 0.84999999999999998]\ninput_scales:[0.20000000000000001, 0.20000000000000001, 0.20000000000000001, 0.20000000000000001, 0.20000000000000001, 0.20000000000000001, 0.20000000000000001, 0.20000000000000001, 0.20000000000000001, 0.20000000000000001]\nspectral_scales:[0.5, 0.58333333333333337, 0.66666666666666663, 0.75, 0.83333333333333326, 0.91666666666666663, 1.0, 1.0833333333333333, 1.1666666666666665, 1.25]\n        regulariser: 0.001000'
p1812
(lp1813
g3
(g7
S'\x05\xcf\xbc\x89\x06\x1e\xf3?'
p1814
tp1815
Rp1816
ag3
(g7
S'T\xfe\xc1;\x8a\t\xf7?'
p1817
tp1818
Rp1819
asS'\n        num_res: 10\nres_sizes:[ 50  72  94 116 138 161 183 205 227 250]\necho_params:[0.84999999999999998, 0.81111111111111112, 0.77222222222222214, 0.73333333333333328, 0.69444444444444442, 0.65555555555555556, 0.6166666666666667, 0.57777777777777772, 0.53888888888888886, 0.5]\ninput_scales:[0.20000000000000001, 0.20000000000000001, 0.20000000000000001, 0.20000000000000001, 0.20000000000000001, 0.20000000000000001, 0.20000000000000001, 0.20000000000000001, 0.20000000000000001, 0.20000000000000001]\nspectral_scales:[0.5, 0.58333333333333337, 0.66666666666666663, 0.75, 0.83333333333333326, 0.91666666666666663, 1.0, 1.0833333333333333, 1.1666666666666665, 1.25]\n        regulariser: 0.000100'
p1820
(lp1821
g3
(g7
S'\xa7\x8f\x08\xd8o\xca\xec?'
p1822
tp1823
Rp1824
ag3
(g7
S'\xc9-\x8f\x1cwY\xea?'
p1825
tp1826
Rp1827
ag3
(g7
S'\x86\x84\xb8\x06l\x9e\xef?'
p1828
tp1829
Rp1830
asS'\n        num_res: 10\nres_sizes:[ 50  72  94 116 138 161 183 205 227 250]\necho_params:[0.84999999999999998, 0.84999999999999998, 0.84999999999999998, 0.84999999999999998, 0.84999999999999998, 0.84999999999999998, 0.84999999999999998, 0.84999999999999998, 0.84999999999999998, 0.84999999999999998]\ninput_scales:[0.20000000000000001, 0.28888888888888892, 0.37777777777777777, 0.46666666666666667, 0.55555555555555558, 0.64444444444444449, 0.73333333333333339, 0.82222222222222219, 0.9111111111111112, 1.0]\nspectral_scales:[0.5, 0.58333333333333337, 0.66666666666666663, 0.75, 0.83333333333333326, 0.91666666666666663, 1.0, 1.0833333333333333, 1.1666666666666665, 1.25]\n        regulariser: 0.010000'
p1831
(lp1832
g3
(g7
S'\xfe\x07\xa8\x93,"#@'
p1833
tp1834
Rp1835
ag3
(g7
S'\xdb\xb4d\x16\x1e*#@'
p1836
tp1837
Rp1838
ag3
(g7
S'\xd0S\xc4y\x8c\xcc\xef?'
p1839
tp1840
Rp1841
asS'\n        num_res: 10\nres_sizes:[ 50  72  94 116 138 161 183 205 227 250]\necho_params:[0.84999999999999998, 0.81111111111111112, 0.77222222222222214, 0.73333333333333328, 0.69444444444444442, 0.65555555555555556, 0.6166666666666667, 0.57777777777777772, 0.53888888888888886, 0.5]\ninput_scales:[0.20000000000000001, 0.28888888888888892, 0.37777777777777777, 0.46666666666666667, 0.55555555555555558, 0.64444444444444449, 0.73333333333333339, 0.82222222222222219, 0.9111111111111112, 1.0]\nspectral_scales:[0.90000000000000002, 0.93888888888888888, 0.97777777777777786, 1.0166666666666666, 1.0555555555555556, 1.0944444444444446, 1.1333333333333333, 1.1722222222222223, 1.2111111111111112, 1.25]\n        regulariser: 0.001000'
p1842
(lp1843
g3
(g7
S'\x13\xf7\xb2\xf6l\xd2\xe7?'
p1844
tp1845
Rp1846
ag3
(g7
S'\xbc\x1bo\x07\x95\xc4\xe4?'
p1847
tp1848
Rp1849
ag3
(g7
S"gF3'*b\xe7?"
p1850
tp1851
Rp1852
asS'\n        num_res: 10\nres_sizes:[200 200 200 200 200 200 200 200 200 200]\necho_params:[0.84999999999999998, 0.81111111111111112, 0.77222222222222214, 0.73333333333333328, 0.69444444444444442, 0.65555555555555556, 0.6166666666666667, 0.57777777777777772, 0.53888888888888886, 0.5]\ninput_scales:[0.5, 0.5, 0.5, 0.5, 0.5, 0.5, 0.5, 0.5, 0.5, 0.5]\nspectral_scales:[0.5, 0.58333333333333337, 0.66666666666666663, 0.75, 0.83333333333333326, 0.91666666666666663, 1.0, 1.0833333333333333, 1.1666666666666665, 1.25]\n        regulariser: 0.001000'
p1853
(lp1854
g3
(g7
S'\x00r\xbd\x91v\x9a\x1e@'
p1855
tp1856
Rp1857
ag3
(g7
S'\xc70\xa1\xcb\x15A\xee?'
p1858
tp1859
Rp1860
ag3
(g7
S'\xa9\xc2Q\x0f\xb89\x1d@'
p1861
tp1862
Rp1863
asS'\n        num_res: 10\nres_sizes:[ 50  72  94 116 138 161 183 205 227 250]\necho_params:[0.84999999999999998, 0.84999999999999998, 0.84999999999999998, 0.84999999999999998, 0.84999999999999998, 0.84999999999999998, 0.84999999999999998, 0.84999999999999998, 0.84999999999999998, 0.84999999999999998]\ninput_scales:[1.0, 0.91111111111111109, 0.82222222222222219, 0.73333333333333339, 0.64444444444444438, 0.55555555555555558, 0.46666666666666667, 0.37777777777777777, 0.28888888888888886, 0.20000000000000001]\nspectral_scales:[0.5, 0.58333333333333337, 0.66666666666666663, 0.75, 0.83333333333333326, 0.91666666666666663, 1.0, 1.0833333333333333, 1.1666666666666665, 1.25]\n        regulariser: 0.010000'
p1864
(lp1865
g3
(g7
S'\xb2[\x82o\xc9\x10\t@'
p1866
tp1867
Rp1868
ag3
(g7
S'Y\xe7\xff\xa4o\x8c\n@'
p1869
tp1870
Rp1871
ag3
(g7
S'\xa1\x9d\xc7\xd6b\xe7\xf2?'
p1872
tp1873
Rp1874
asS'\n        num_res: 10\nres_sizes:[ 50  72  94 116 138 161 183 205 227 250]\necho_params:[0.84999999999999998, 0.81111111111111112, 0.77222222222222214, 0.73333333333333328, 0.69444444444444442, 0.65555555555555556, 0.6166666666666667, 0.57777777777777772, 0.53888888888888886, 0.5]\ninput_scales:[0.20000000000000001, 0.20000000000000001, 0.20000000000000001, 0.20000000000000001, 0.20000000000000001, 0.20000000000000001, 0.20000000000000001, 0.20000000000000001, 0.20000000000000001, 0.20000000000000001]\nspectral_scales:[0.90000000000000002, 0.87777777777777777, 0.85555555555555551, 0.83333333333333337, 0.81111111111111112, 0.78888888888888886, 0.76666666666666661, 0.74444444444444446, 0.72222222222222221, 0.69999999999999996]\n        regulariser: 0.001000'
p1875
(lp1876
g3
(g7
S'\x02\x0f\x17Sk\x16\xe9?'
p1877
tp1878
Rp1879
ag3
(g7
S'\xaa\x82\x87\xc9\xfa!\xef?'
p1880
tp1881
Rp1882
ag3
(g7
S'\x7fkf\xe1\xd8\x86\xed?'
p1883
tp1884
Rp1885
asS'\n        num_res: 10\nres_sizes:[100 111 122 133 144 155 166 177 188 200]\necho_params:[0.84999999999999998, 0.81111111111111112, 0.77222222222222214, 0.73333333333333328, 0.69444444444444442, 0.65555555555555556, 0.6166666666666667, 0.57777777777777772, 0.53888888888888886, 0.5]\ninput_scales:[0.20000000000000001, 0.28888888888888892, 0.37777777777777777, 0.46666666666666667, 0.55555555555555558, 0.64444444444444449, 0.73333333333333339, 0.82222222222222219, 0.9111111111111112, 1.0]\nspectral_scales:[1.0, 1.0, 1.0, 1.0, 1.0, 1.0, 1.0, 1.0, 1.0, 1.0]\n        regulariser: 0.000100'
p1886
(lp1887
g3
(g7
S'b\x98\x8a\xe2)\x87\xe7?'
p1888
tp1889
Rp1890
ag3
(g7
S'\xb5\xd20\t\x18\xd7\xea?'
p1891
tp1892
Rp1893
ag3
(g7
S'}\x86\xecO\xc3\xf7\xe6?'
p1894
tp1895
Rp1896
asS'\n        num_res: 10\nres_sizes:[100 111 122 133 144 155 166 177 188 200]\necho_params:[0.84999999999999998, 0.81111111111111112, 0.77222222222222214, 0.73333333333333328, 0.69444444444444442, 0.65555555555555556, 0.6166666666666667, 0.57777777777777772, 0.53888888888888886, 0.5]\ninput_scales:[0.20000000000000001, 0.20000000000000001, 0.20000000000000001, 0.20000000000000001, 0.20000000000000001, 0.20000000000000001, 0.20000000000000001, 0.20000000000000001, 0.20000000000000001, 0.20000000000000001]\nspectral_scales:[1.0, 1.0, 1.0, 1.0, 1.0, 1.0, 1.0, 1.0, 1.0, 1.0]\n        regulariser: 0.010000'
p1897
(lp1898
g3
(g7
S'0\xf9\x8b\xf1M[\xf6?'
p1899
tp1900
Rp1901
ag3
(g7
S'\x10C\x8bR@\xab\xee?'
p1902
tp1903
Rp1904
ag3
(g7
S'\xb9E\xd3\xe0\xca\xbd\xe9?'
p1905
tp1906
Rp1907
asS'\n        num_res: 10\nres_sizes:[100 111 122 133 144 155 166 177 188 200]\necho_params:[0.84999999999999998, 0.81111111111111112, 0.77222222222222214, 0.73333333333333328, 0.69444444444444442, 0.65555555555555556, 0.6166666666666667, 0.57777777777777772, 0.53888888888888886, 0.5]\ninput_scales:[0.20000000000000001, 0.20000000000000001, 0.20000000000000001, 0.20000000000000001, 0.20000000000000001, 0.20000000000000001, 0.20000000000000001, 0.20000000000000001, 0.20000000000000001, 0.20000000000000001]\nspectral_scales:[0.90000000000000002, 0.87777777777777777, 0.85555555555555551, 0.83333333333333337, 0.81111111111111112, 0.78888888888888886, 0.76666666666666661, 0.74444444444444446, 0.72222222222222221, 0.69999999999999996]\n        regulariser: 0.010000'
p1908
(lp1909
g3
(g7
S'M\x9f\xbb\x1d\xde\xcd\xe5?'
p1910
tp1911
Rp1912
ag3
(g7
S'\xb5\xaa\xb0\x00\xf8^\xf6?'
p1913
tp1914
Rp1915
ag3
(g7
S'\xcb\xbf\x16\r\x8a\x89\xee?'
p1916
tp1917
Rp1918
asS'\n        num_res: 10\nres_sizes:[200 200 200 200 200 200 200 200 200 200]\necho_params:[0.84999999999999998, 0.84999999999999998, 0.84999999999999998, 0.84999999999999998, 0.84999999999999998, 0.84999999999999998, 0.84999999999999998, 0.84999999999999998, 0.84999999999999998, 0.84999999999999998]\ninput_scales:[0.20000000000000001, 0.28888888888888892, 0.37777777777777777, 0.46666666666666667, 0.55555555555555558, 0.64444444444444449, 0.73333333333333339, 0.82222222222222219, 0.9111111111111112, 1.0]\nspectral_scales:[1.0, 1.0, 1.0, 1.0, 1.0, 1.0, 1.0, 1.0, 1.0, 1.0]\n        regulariser: 0.010000'
p1919
(lp1920
g3
(g7
S'\xfdP|\xdd\x91_\xf0?'
p1921
tp1922
Rp1923
ag3
(g7
S'\xbd\xa8\xb4S/\x13\xe9?'
p1924
tp1925
Rp1926
ag3
(g7
S'8\x9f\xcf\x01\x18\xe1\xe8?'
p1927
tp1928
Rp1929
asS'\n        num_res: 10\nres_sizes:[ 50  72  94 116 138 161 183 205 227 250]\necho_params:[0.84999999999999998, 0.81111111111111112, 0.77222222222222214, 0.73333333333333328, 0.69444444444444442, 0.65555555555555556, 0.6166666666666667, 0.57777777777777772, 0.53888888888888886, 0.5]\ninput_scales:[1.0, 0.91111111111111109, 0.82222222222222219, 0.73333333333333339, 0.64444444444444438, 0.55555555555555558, 0.46666666666666667, 0.37777777777777777, 0.28888888888888886, 0.20000000000000001]\nspectral_scales:[0.90000000000000002, 0.87777777777777777, 0.85555555555555551, 0.83333333333333337, 0.81111111111111112, 0.78888888888888886, 0.76666666666666661, 0.74444444444444446, 0.72222222222222221, 0.69999999999999996]\n        regulariser: 0.001000'
p1930
(lp1931
g3
(g7
S'\xc8\x9a{+X\x81\xf7?'
p1932
tp1933
Rp1934
ag3
(g7
S'\x13\xcc,\xda*\xf5\xec?'
p1935
tp1936
Rp1937
ag3
(g7
S'U\x12\xeb\x95\xad\xdc\xf1?'
p1938
tp1939
Rp1940
asS'\n        num_res: 10\nres_sizes:[200 200 200 200 200 200 200 200 200 200]\necho_params:[0.84999999999999998, 0.81111111111111112, 0.77222222222222214, 0.73333333333333328, 0.69444444444444442, 0.65555555555555556, 0.6166666666666667, 0.57777777777777772, 0.53888888888888886, 0.5]\ninput_scales:[0.20000000000000001, 0.28888888888888892, 0.37777777777777777, 0.46666666666666667, 0.55555555555555558, 0.64444444444444449, 0.73333333333333339, 0.82222222222222219, 0.9111111111111112, 1.0]\nspectral_scales:[0.90000000000000002, 0.87777777777777777, 0.85555555555555551, 0.83333333333333337, 0.81111111111111112, 0.78888888888888886, 0.76666666666666661, 0.74444444444444446, 0.72222222222222221, 0.69999999999999996]\n        regulariser: 0.000100'
p1941
(lp1942
g3
(g7
S'Q\xe0S\x02\x08\x11\xea?'
p1943
tp1944
Rp1945
ag3
(g7
S'02\xe7C\x85\xab\xf0?'
p1946
tp1947
Rp1948
ag3
(g7
S'\xdd6\x92;<`\xee?'
p1949
tp1950
Rp1951
asS'\n        num_res: 10\nres_sizes:[ 50  72  94 116 138 161 183 205 227 250]\necho_params:[0.84999999999999998, 0.84999999999999998, 0.84999999999999998, 0.84999999999999998, 0.84999999999999998, 0.84999999999999998, 0.84999999999999998, 0.84999999999999998, 0.84999999999999998, 0.84999999999999998]\ninput_scales:[1.0, 0.91111111111111109, 0.82222222222222219, 0.73333333333333339, 0.64444444444444438, 0.55555555555555558, 0.46666666666666667, 0.37777777777777777, 0.28888888888888886, 0.20000000000000001]\nspectral_scales:[0.90000000000000002, 0.87777777777777777, 0.85555555555555551, 0.83333333333333337, 0.81111111111111112, 0.78888888888888886, 0.76666666666666661, 0.74444444444444446, 0.72222222222222221, 0.69999999999999996]\n        regulariser: 0.001000'
p1952
(lp1953
g3
(g7
S'\xb9\x99\xd6\x8dQ\xb8\x16@'
p1954
tp1955
Rp1956
ag3
(g7
S'\x83_6\xf2\x98 \x1a@'
p1957
tp1958
Rp1959
ag3
(g7
S'\x7f\x15o\xaa\x11\xe2!@'
p1960
tp1961
Rp1962
asS'\n        num_res: 10\nres_sizes:[200 200 200 200 200 200 200 200 200 200]\necho_params:[0.84999999999999998, 0.81111111111111112, 0.77222222222222214, 0.73333333333333328, 0.69444444444444442, 0.65555555555555556, 0.6166666666666667, 0.57777777777777772, 0.53888888888888886, 0.5]\ninput_scales:[0.20000000000000001, 0.20000000000000001, 0.20000000000000001, 0.20000000000000001, 0.20000000000000001, 0.20000000000000001, 0.20000000000000001, 0.20000000000000001, 0.20000000000000001, 0.20000000000000001]\nspectral_scales:[1.0, 1.0, 1.0, 1.0, 1.0, 1.0, 1.0, 1.0, 1.0, 1.0]\n        regulariser: 0.000100'
p1963
(lp1964
g3
(g7
S'Nx\xb4[\xce\xdc\xe5?'
p1965
tp1966
Rp1967
ag3
(g7
S'j\x12I\xd6\\A\xe0?'
p1968
tp1969
Rp1970
ag3
(g7
S'\xc5\xf1\x86\x10" \xe1?'
p1971
tp1972
Rp1973
asS'\n        num_res: 10\nres_sizes:[ 50  72  94 116 138 161 183 205 227 250]\necho_params:[0.84999999999999998, 0.81111111111111112, 0.77222222222222214, 0.73333333333333328, 0.69444444444444442, 0.65555555555555556, 0.6166666666666667, 0.57777777777777772, 0.53888888888888886, 0.5]\ninput_scales:[0.20000000000000001, 0.28888888888888892, 0.37777777777777777, 0.46666666666666667, 0.55555555555555558, 0.64444444444444449, 0.73333333333333339, 0.82222222222222219, 0.9111111111111112, 1.0]\nspectral_scales:[0.5, 0.58333333333333337, 0.66666666666666663, 0.75, 0.83333333333333326, 0.91666666666666663, 1.0, 1.0833333333333333, 1.1666666666666665, 1.25]\n        regulariser: 0.010000'
p1974
(lp1975
g3
(g7
S'@\n\x03,\xf69\xe7?'
p1976
tp1977
Rp1978
ag3
(g7
S'o\x96\xa3\xc9p\x89\xe6?'
p1979
tp1980
Rp1981
ag3
(g7
S'T\xcbz1\x10\x98\xf1?'
p1982
tp1983
Rp1984
asS'\n        num_res: 10\nres_sizes:[ 50  72  94 116 138 161 183 205 227 250]\necho_params:[0.84999999999999998, 0.84999999999999998, 0.84999999999999998, 0.84999999999999998, 0.84999999999999998, 0.84999999999999998, 0.84999999999999998, 0.84999999999999998, 0.84999999999999998, 0.84999999999999998]\ninput_scales:[0.20000000000000001, 0.28888888888888892, 0.37777777777777777, 0.46666666666666667, 0.55555555555555558, 0.64444444444444449, 0.73333333333333339, 0.82222222222222219, 0.9111111111111112, 1.0]\nspectral_scales:[0.90000000000000002, 0.93888888888888888, 0.97777777777777786, 1.0166666666666666, 1.0555555555555556, 1.0944444444444446, 1.1333333333333333, 1.1722222222222223, 1.2111111111111112, 1.25]\n        regulariser: 0.010000'
p1985
(lp1986
g3
(g7
S'\xebb\xbd%\xb5\xea\xd6?'
p1987
tp1988
Rp1989
ag3
(g7
S'\xb7+Y\x0c\xe4N\xee?'
p1990
tp1991
Rp1992
ag3
(g7
S'\x03E%\xbe\xb5\xcf\xe8?'
p1993
tp1994
Rp1995
asS'\n        num_res: 10\nres_sizes:[100 111 122 133 144 155 166 177 188 200]\necho_params:[0.84999999999999998, 0.81111111111111112, 0.77222222222222214, 0.73333333333333328, 0.69444444444444442, 0.65555555555555556, 0.6166666666666667, 0.57777777777777772, 0.53888888888888886, 0.5]\ninput_scales:[0.20000000000000001, 0.20000000000000001, 0.20000000000000001, 0.20000000000000001, 0.20000000000000001, 0.20000000000000001, 0.20000000000000001, 0.20000000000000001, 0.20000000000000001, 0.20000000000000001]\nspectral_scales:[1.0, 1.0, 1.0, 1.0, 1.0, 1.0, 1.0, 1.0, 1.0, 1.0]\n        regulariser: 0.001000'
p1996
(lp1997
g3
(g7
S'w\x85_\xa06\xc4\xe9?'
p1998
tp1999
Rp2000
ag3
(g7
S'\xf3R^=\xabE\xf0?'
p2001
tp2002
Rp2003
ag3
(g7
S'?T\xc8\x08\xe4\xa4\xef?'
p2004
tp2005
Rp2006
asS'\n        num_res: 10\nres_sizes:[ 50  72  94 116 138 161 183 205 227 250]\necho_params:[0.84999999999999998, 0.81111111111111112, 0.77222222222222214, 0.73333333333333328, 0.69444444444444442, 0.65555555555555556, 0.6166666666666667, 0.57777777777777772, 0.53888888888888886, 0.5]\ninput_scales:[0.20000000000000001, 0.20000000000000001, 0.20000000000000001, 0.20000000000000001, 0.20000000000000001, 0.20000000000000001, 0.20000000000000001, 0.20000000000000001, 0.20000000000000001, 0.20000000000000001]\nspectral_scales:[0.5, 0.58333333333333337, 0.66666666666666663, 0.75, 0.83333333333333326, 0.91666666666666663, 1.0, 1.0833333333333333, 1.1666666666666665, 1.25]\n        regulariser: 0.010000'
p2007
(lp2008
g3
(g7
S'F\xa0\x10l\xb2\x16\xee?'
p2009
tp2010
Rp2011
ag3
(g7
S'\xe2\xc8\x8f\xf5\xda\xd4\xe5?'
p2012
tp2013
Rp2014
ag3
(g7
S'\xb6\x0f\xb3\xab\xfa\x9c\xed?'
p2015
tp2016
Rp2017
asS'\n        num_res: 10\nres_sizes:[200 200 200 200 200 200 200 200 200 200]\necho_params:[0.84999999999999998, 0.84999999999999998, 0.84999999999999998, 0.84999999999999998, 0.84999999999999998, 0.84999999999999998, 0.84999999999999998, 0.84999999999999998, 0.84999999999999998, 0.84999999999999998]\ninput_scales:[0.5, 0.5, 0.5, 0.5, 0.5, 0.5, 0.5, 0.5, 0.5, 0.5]\nspectral_scales:[0.90000000000000002, 0.87777777777777777, 0.85555555555555551, 0.83333333333333337, 0.81111111111111112, 0.78888888888888886, 0.76666666666666661, 0.74444444444444446, 0.72222222222222221, 0.69999999999999996]\n        regulariser: 0.001000'
p2018
(lp2019
g3
(g7
S'<F\x9b\x12\x7fR\xee?'
p2020
tp2021
Rp2022
ag3
(g7
S'e?\x1f7\x12y\x15@'
p2023
tp2024
Rp2025
ag3
(g7
S'\xea\xcb\xd6/F^\x1a@'
p2026
tp2027
Rp2028
asS'\n        num_res: 10\nres_sizes:[ 50  72  94 116 138 161 183 205 227 250]\necho_params:[0.84999999999999998, 0.81111111111111112, 0.77222222222222214, 0.73333333333333328, 0.69444444444444442, 0.65555555555555556, 0.6166666666666667, 0.57777777777777772, 0.53888888888888886, 0.5]\ninput_scales:[1.0, 0.91111111111111109, 0.82222222222222219, 0.73333333333333339, 0.64444444444444438, 0.55555555555555558, 0.46666666666666667, 0.37777777777777777, 0.28888888888888886, 0.20000000000000001]\nspectral_scales:[0.90000000000000002, 0.87777777777777777, 0.85555555555555551, 0.83333333333333337, 0.81111111111111112, 0.78888888888888886, 0.76666666666666661, 0.74444444444444446, 0.72222222222222221, 0.69999999999999996]\n        regulariser: 0.010000'
p2029
(lp2030
g3
(g7
S'\x15\xaa\x12n\x80n\xf7?'
p2031
tp2032
Rp2033
ag3
(g7
S'\xbc\x84e\x9d/I\xe8?'
p2034
tp2035
Rp2036
ag3
(g7
S'\xbeQ(4\x81,\xe8?'
p2037
tp2038
Rp2039
asS'\n        num_res: 10\nres_sizes:[100 111 122 133 144 155 166 177 188 200]\necho_params:[0.84999999999999998, 0.81111111111111112, 0.77222222222222214, 0.73333333333333328, 0.69444444444444442, 0.65555555555555556, 0.6166666666666667, 0.57777777777777772, 0.53888888888888886, 0.5]\ninput_scales:[0.20000000000000001, 0.28888888888888892, 0.37777777777777777, 0.46666666666666667, 0.55555555555555558, 0.64444444444444449, 0.73333333333333339, 0.82222222222222219, 0.9111111111111112, 1.0]\nspectral_scales:[0.90000000000000002, 0.87777777777777777, 0.85555555555555551, 0.83333333333333337, 0.81111111111111112, 0.78888888888888886, 0.76666666666666661, 0.74444444444444446, 0.72222222222222221, 0.69999999999999996]\n        regulariser: 0.000100'
p2040
(lp2041
g3
(g7
S'1\x0f\xe2\xe8\x15\xbe\xeb?'
p2042
tp2043
Rp2044
ag3
(g7
S'\x9c\x04\xc6[\x00\x82\xe7?'
p2045
tp2046
Rp2047
ag3
(g7
S'\x0bH\xf1\xd9F\x8a\xf1?'
p2048
tp2049
Rp2050
asS'\n        num_res: 10\nres_sizes:[200 200 200 200 200 200 200 200 200 200]\necho_params:[0.84999999999999998, 0.81111111111111112, 0.77222222222222214, 0.73333333333333328, 0.69444444444444442, 0.65555555555555556, 0.6166666666666667, 0.57777777777777772, 0.53888888888888886, 0.5]\ninput_scales:[0.5, 0.5, 0.5, 0.5, 0.5, 0.5, 0.5, 0.5, 0.5, 0.5]\nspectral_scales:[0.90000000000000002, 0.93888888888888888, 0.97777777777777786, 1.0166666666666666, 1.0555555555555556, 1.0944444444444446, 1.1333333333333333, 1.1722222222222223, 1.2111111111111112, 1.25]\n        regulariser: 0.000100'
p2051
(lp2052
g3
(g7
S'\xfc\xc1\xbf\xe8\xab\x83\x1e@'
p2053
tp2054
Rp2055
ag3
(g7
S'\xf3\x111C>\x87\x0e@'
p2056
tp2057
Rp2058
ag3
(g7
S'\x03\x89\x12\xe9\xea\x99\x1d@'
p2059
tp2060
Rp2061
asS'\n        num_res: 10\nres_sizes:[200 200 200 200 200 200 200 200 200 200]\necho_params:[0.84999999999999998, 0.84999999999999998, 0.84999999999999998, 0.84999999999999998, 0.84999999999999998, 0.84999999999999998, 0.84999999999999998, 0.84999999999999998, 0.84999999999999998, 0.84999999999999998]\ninput_scales:[0.20000000000000001, 0.28888888888888892, 0.37777777777777777, 0.46666666666666667, 0.55555555555555558, 0.64444444444444449, 0.73333333333333339, 0.82222222222222219, 0.9111111111111112, 1.0]\nspectral_scales:[0.90000000000000002, 0.87777777777777777, 0.85555555555555551, 0.83333333333333337, 0.81111111111111112, 0.78888888888888886, 0.76666666666666661, 0.74444444444444446, 0.72222222222222221, 0.69999999999999996]\n        regulariser: 0.001000'
p2062
(lp2063
g3
(g7
S'\x8e\xed\xf1\xacb\x97\xf4?'
p2064
tp2065
Rp2066
ag3
(g7
S'\xf4\x98\xc4\xc9\x9a\xa9\xf2?'
p2067
tp2068
Rp2069
ag3
(g7
S'\xfc\x99\x8e?\xb0\xc7\x16@'
p2070
tp2071
Rp2072
asS'\n        num_res: 10\nres_sizes:[100 111 122 133 144 155 166 177 188 200]\necho_params:[0.84999999999999998, 0.84999999999999998, 0.84999999999999998, 0.84999999999999998, 0.84999999999999998, 0.84999999999999998, 0.84999999999999998, 0.84999999999999998, 0.84999999999999998, 0.84999999999999998]\ninput_scales:[0.5, 0.5, 0.5, 0.5, 0.5, 0.5, 0.5, 0.5, 0.5, 0.5]\nspectral_scales:[1.0, 1.0, 1.0, 1.0, 1.0, 1.0, 1.0, 1.0, 1.0, 1.0]\n        regulariser: 0.010000'
p2073
(lp2074
g3
(g7
S'\xd3\x1d\xbb\xa1n+\xf8?'
p2075
tp2076
Rp2077
ag3
(g7
S'\xfe\xee"\x8c\x90>\xea?'
p2078
tp2079
Rp2080
ag3
(g7
S'\x93\xcd\xc4\x9d\x9d\x8f\xf1?'
p2081
tp2082
Rp2083
asS'\n        num_res: 10\nres_sizes:[100 111 122 133 144 155 166 177 188 200]\necho_params:[0.84999999999999998, 0.84999999999999998, 0.84999999999999998, 0.84999999999999998, 0.84999999999999998, 0.84999999999999998, 0.84999999999999998, 0.84999999999999998, 0.84999999999999998, 0.84999999999999998]\ninput_scales:[0.20000000000000001, 0.28888888888888892, 0.37777777777777777, 0.46666666666666667, 0.55555555555555558, 0.64444444444444449, 0.73333333333333339, 0.82222222222222219, 0.9111111111111112, 1.0]\nspectral_scales:[0.90000000000000002, 0.93888888888888888, 0.97777777777777786, 1.0166666666666666, 1.0555555555555556, 1.0944444444444446, 1.1333333333333333, 1.1722222222222223, 1.2111111111111112, 1.25]\n        regulariser: 0.001000'
p2084
(lp2085
g3
(g7
S'p\xa8\x18D\xc9]\xf3?'
p2086
tp2087
Rp2088
ag3
(g7
S'OiF\x00-\xe7\xe2?'
p2089
tp2090
Rp2091
ag3
(g7
S'\x0f\xe3Ko\x90=\xf1?'
p2092
tp2093
Rp2094
asS'\n        num_res: 10\nres_sizes:[100 111 122 133 144 155 166 177 188 200]\necho_params:[0.84999999999999998, 0.81111111111111112, 0.77222222222222214, 0.73333333333333328, 0.69444444444444442, 0.65555555555555556, 0.6166666666666667, 0.57777777777777772, 0.53888888888888886, 0.5]\ninput_scales:[1.0, 0.91111111111111109, 0.82222222222222219, 0.73333333333333339, 0.64444444444444438, 0.55555555555555558, 0.46666666666666667, 0.37777777777777777, 0.28888888888888886, 0.20000000000000001]\nspectral_scales:[0.5, 0.58333333333333337, 0.66666666666666663, 0.75, 0.83333333333333326, 0.91666666666666663, 1.0, 1.0833333333333333, 1.1666666666666665, 1.25]\n        regulariser: 0.001000'
p2095
(lp2096
g3
(g7
S'\xdct\x1d\x16\xb6\xd8\xf5?'
p2097
tp2098
Rp2099
ag3
(g7
S'\xbeO\x12\x14]g\xe6?'
p2100
tp2101
Rp2102
ag3
(g7
S'\xbf\xe2\\\x06w\x9d\x18@'
p2103
tp2104
Rp2105
asS'\n        num_res: 10\nres_sizes:[200 200 200 200 200 200 200 200 200 200]\necho_params:[0.84999999999999998, 0.81111111111111112, 0.77222222222222214, 0.73333333333333328, 0.69444444444444442, 0.65555555555555556, 0.6166666666666667, 0.57777777777777772, 0.53888888888888886, 0.5]\ninput_scales:[1.0, 0.91111111111111109, 0.82222222222222219, 0.73333333333333339, 0.64444444444444438, 0.55555555555555558, 0.46666666666666667, 0.37777777777777777, 0.28888888888888886, 0.20000000000000001]\nspectral_scales:[1.0, 1.0, 1.0, 1.0, 1.0, 1.0, 1.0, 1.0, 1.0, 1.0]\n        regulariser: 0.001000'
p2106
(lp2107
g3
(g7
S'e\xe7\t\xcd\x8a\xcc\xf0?'
p2108
tp2109
Rp2110
ag3
(g7
S'\xd1\x80\xf0\x03\x9dR\xf4?'
p2111
tp2112
Rp2113
ag3
(g7
S'o\x1e~\xabzF\x18@'
p2114
tp2115
Rp2116
asS'\n        num_res: 10\nres_sizes:[200 200 200 200 200 200 200 200 200 200]\necho_params:[0.84999999999999998, 0.81111111111111112, 0.77222222222222214, 0.73333333333333328, 0.69444444444444442, 0.65555555555555556, 0.6166666666666667, 0.57777777777777772, 0.53888888888888886, 0.5]\ninput_scales:[0.5, 0.5, 0.5, 0.5, 0.5, 0.5, 0.5, 0.5, 0.5, 0.5]\nspectral_scales:[1.0, 1.0, 1.0, 1.0, 1.0, 1.0, 1.0, 1.0, 1.0, 1.0]\n        regulariser: 0.001000'
p2117
(lp2118
g3
(g7
S'D\x8e\x06\x1e\x03r\xee?'
p2119
tp2120
Rp2121
ag3
(g7
S'\xdf\xcakAXD\xf5?'
p2122
tp2123
Rp2124
ag3
(g7
S'\x1dp\xe1{\x12\xc8\xf1?'
p2125
tp2126
Rp2127
asS'\n        num_res: 10\nres_sizes:[100 111 122 133 144 155 166 177 188 200]\necho_params:[0.84999999999999998, 0.84999999999999998, 0.84999999999999998, 0.84999999999999998, 0.84999999999999998, 0.84999999999999998, 0.84999999999999998, 0.84999999999999998, 0.84999999999999998, 0.84999999999999998]\ninput_scales:[0.20000000000000001, 0.28888888888888892, 0.37777777777777777, 0.46666666666666667, 0.55555555555555558, 0.64444444444444449, 0.73333333333333339, 0.82222222222222219, 0.9111111111111112, 1.0]\nspectral_scales:[0.90000000000000002, 0.93888888888888888, 0.97777777777777786, 1.0166666666666666, 1.0555555555555556, 1.0944444444444446, 1.1333333333333333, 1.1722222222222223, 1.2111111111111112, 1.25]\n        regulariser: 0.010000'
p2128
(lp2129
g3
(g7
S'C;\x8b\xa9\xd0\xc9\xea?'
p2130
tp2131
Rp2132
ag3
(g7
S'\x7f\xfdj?\n\x9f\xe3?'
p2133
tp2134
Rp2135
ag3
(g7
S'\xe6\xbb04qK\xea?'
p2136
tp2137
Rp2138
asS'\n        num_res: 10\nres_sizes:[100 111 122 133 144 155 166 177 188 200]\necho_params:[0.84999999999999998, 0.81111111111111112, 0.77222222222222214, 0.73333333333333328, 0.69444444444444442, 0.65555555555555556, 0.6166666666666667, 0.57777777777777772, 0.53888888888888886, 0.5]\ninput_scales:[1.0, 0.91111111111111109, 0.82222222222222219, 0.73333333333333339, 0.64444444444444438, 0.55555555555555558, 0.46666666666666667, 0.37777777777777777, 0.28888888888888886, 0.20000000000000001]\nspectral_scales:[1.0, 1.0, 1.0, 1.0, 1.0, 1.0, 1.0, 1.0, 1.0, 1.0]\n        regulariser: 0.010000'
p2139
(lp2140
g3
(g7
S'=,\xbb\xfd\xfd\x8b\x13@'
p2141
tp2142
Rp2143
ag3
(g7
S'\xa3"\xdc\x0f\x9e<\xe7?'
p2144
tp2145
Rp2146
ag3
(g7
S'\x16t\x1c\xb9\xda\xd7\xf4?'
p2147
tp2148
Rp2149
asS'\n        num_res: 10\nres_sizes:[ 50  72  94 116 138 161 183 205 227 250]\necho_params:[0.84999999999999998, 0.81111111111111112, 0.77222222222222214, 0.73333333333333328, 0.69444444444444442, 0.65555555555555556, 0.6166666666666667, 0.57777777777777772, 0.53888888888888886, 0.5]\ninput_scales:[1.0, 0.91111111111111109, 0.82222222222222219, 0.73333333333333339, 0.64444444444444438, 0.55555555555555558, 0.46666666666666667, 0.37777777777777777, 0.28888888888888886, 0.20000000000000001]\nspectral_scales:[0.90000000000000002, 0.93888888888888888, 0.97777777777777786, 1.0166666666666666, 1.0555555555555556, 1.0944444444444446, 1.1333333333333333, 1.1722222222222223, 1.2111111111111112, 1.25]\n        regulariser: 0.010000'
p2150
(lp2151
g3
(g7
S'\xf6\xb6d*P`\xe8?'
p2152
tp2153
Rp2154
ag3
(g7
S'ZT`k\xf4g\xec?'
p2155
tp2156
Rp2157
ag3
(g7
S'\xa9\xea\xb5ZF\x0f\xf7?'
p2158
tp2159
Rp2160
asS'\n        num_res: 10\nres_sizes:[200 200 200 200 200 200 200 200 200 200]\necho_params:[0.84999999999999998, 0.84999999999999998, 0.84999999999999998, 0.84999999999999998, 0.84999999999999998, 0.84999999999999998, 0.84999999999999998, 0.84999999999999998, 0.84999999999999998, 0.84999999999999998]\ninput_scales:[0.20000000000000001, 0.28888888888888892, 0.37777777777777777, 0.46666666666666667, 0.55555555555555558, 0.64444444444444449, 0.73333333333333339, 0.82222222222222219, 0.9111111111111112, 1.0]\nspectral_scales:[1.0, 1.0, 1.0, 1.0, 1.0, 1.0, 1.0, 1.0, 1.0, 1.0]\n        regulariser: 0.001000'
p2161
(lp2162
g3
(g7
S'dJP\xd6@\xd5\xef?'
p2163
tp2164
Rp2165
ag3
(g7
S'\x99\n+\x03\xe3\xff\x1c@'
p2166
tp2167
Rp2168
ag3
(g7
S'\xd1\xbc\xfeD\x89W\xe8?'
p2169
tp2170
Rp2171
asS'\n        num_res: 10\nres_sizes:[100 111 122 133 144 155 166 177 188 200]\necho_params:[0.84999999999999998, 0.81111111111111112, 0.77222222222222214, 0.73333333333333328, 0.69444444444444442, 0.65555555555555556, 0.6166666666666667, 0.57777777777777772, 0.53888888888888886, 0.5]\ninput_scales:[0.20000000000000001, 0.20000000000000001, 0.20000000000000001, 0.20000000000000001, 0.20000000000000001, 0.20000000000000001, 0.20000000000000001, 0.20000000000000001, 0.20000000000000001, 0.20000000000000001]\nspectral_scales:[0.90000000000000002, 0.93888888888888888, 0.97777777777777786, 1.0166666666666666, 1.0555555555555556, 1.0944444444444446, 1.1333333333333333, 1.1722222222222223, 1.2111111111111112, 1.25]\n        regulariser: 0.010000'
p2172
(lp2173
g3
(g7
S'*\xfb\x88\xa6\xc3\xac\xee?'
p2174
tp2175
Rp2176
ag3
(g7
S'b\tR\x1eO\xd1\xea?'
p2177
tp2178
Rp2179
ag3
(g7
S'+w\x10\x0e\xf2\xc4\xdb?'
p2180
tp2181
Rp2182
asS'\n        num_res: 10\nres_sizes:[200 200 200 200 200 200 200 200 200 200]\necho_params:[0.84999999999999998, 0.81111111111111112, 0.77222222222222214, 0.73333333333333328, 0.69444444444444442, 0.65555555555555556, 0.6166666666666667, 0.57777777777777772, 0.53888888888888886, 0.5]\ninput_scales:[1.0, 0.91111111111111109, 0.82222222222222219, 0.73333333333333339, 0.64444444444444438, 0.55555555555555558, 0.46666666666666667, 0.37777777777777777, 0.28888888888888886, 0.20000000000000001]\nspectral_scales:[0.90000000000000002, 0.87777777777777777, 0.85555555555555551, 0.83333333333333337, 0.81111111111111112, 0.78888888888888886, 0.76666666666666661, 0.74444444444444446, 0.72222222222222221, 0.69999999999999996]\n        regulariser: 0.010000'
p2183
(lp2184
g3
(g7
S'0\xe4\xa3\x8b"v\xf4?'
p2185
tp2186
Rp2187
ag3
(g7
S'\x85\x02\xae\xceO\x8e\xe8?'
p2188
tp2189
Rp2190
ag3
(g7
S'v\xad\xe5\x12\r\xb3\xfb?'
p2191
tp2192
Rp2193
asS'\n        num_res: 10\nres_sizes:[ 50  72  94 116 138 161 183 205 227 250]\necho_params:[0.84999999999999998, 0.81111111111111112, 0.77222222222222214, 0.73333333333333328, 0.69444444444444442, 0.65555555555555556, 0.6166666666666667, 0.57777777777777772, 0.53888888888888886, 0.5]\ninput_scales:[0.20000000000000001, 0.20000000000000001, 0.20000000000000001, 0.20000000000000001, 0.20000000000000001, 0.20000000000000001, 0.20000000000000001, 0.20000000000000001, 0.20000000000000001, 0.20000000000000001]\nspectral_scales:[0.5, 0.58333333333333337, 0.66666666666666663, 0.75, 0.83333333333333326, 0.91666666666666663, 1.0, 1.0833333333333333, 1.1666666666666665, 1.25]\n        regulariser: 0.001000'
p2194
(lp2195
g3
(g7
S'\xe6\xf2\x96A\x11\xf6\xee?'
p2196
tp2197
Rp2198
ag3
(g7
S'*(0t=\xc4\xfa?'
p2199
tp2200
Rp2201
ag3
(g7
S'\xfa\xacX\xa3n\xa2\xf3?'
p2202
tp2203
Rp2204
asS'\n        num_res: 10\nres_sizes:[200 200 200 200 200 200 200 200 200 200]\necho_params:[0.84999999999999998, 0.81111111111111112, 0.77222222222222214, 0.73333333333333328, 0.69444444444444442, 0.65555555555555556, 0.6166666666666667, 0.57777777777777772, 0.53888888888888886, 0.5]\ninput_scales:[0.20000000000000001, 0.20000000000000001, 0.20000000000000001, 0.20000000000000001, 0.20000000000000001, 0.20000000000000001, 0.20000000000000001, 0.20000000000000001, 0.20000000000000001, 0.20000000000000001]\nspectral_scales:[0.90000000000000002, 0.87777777777777777, 0.85555555555555551, 0.83333333333333337, 0.81111111111111112, 0.78888888888888886, 0.76666666666666661, 0.74444444444444446, 0.72222222222222221, 0.69999999999999996]\n        regulariser: 0.010000'
p2205
(lp2206
g3
(g7
S'\xcb\x98\xcb\x0c\x8d\xeb\xf3?'
p2207
tp2208
Rp2209
ag3
(g7
S'_Z\x8f*q\x00\xe5?'
p2210
tp2211
Rp2212
ag3
(g7
S'-\xb2e\x89\x93\x0e\xe5?'
p2213
tp2214
Rp2215
asS'\n        num_res: 10\nres_sizes:[100 111 122 133 144 155 166 177 188 200]\necho_params:[0.84999999999999998, 0.84999999999999998, 0.84999999999999998, 0.84999999999999998, 0.84999999999999998, 0.84999999999999998, 0.84999999999999998, 0.84999999999999998, 0.84999999999999998, 0.84999999999999998]\ninput_scales:[0.20000000000000001, 0.20000000000000001, 0.20000000000000001, 0.20000000000000001, 0.20000000000000001, 0.20000000000000001, 0.20000000000000001, 0.20000000000000001, 0.20000000000000001, 0.20000000000000001]\nspectral_scales:[0.90000000000000002, 0.87777777777777777, 0.85555555555555551, 0.83333333333333337, 0.81111111111111112, 0.78888888888888886, 0.76666666666666661, 0.74444444444444446, 0.72222222222222221, 0.69999999999999996]\n        regulariser: 0.010000'
p2216
(lp2217
g3
(g7
S'\x91*\x05\x80\x8f\xaf=@'
p2218
tp2219
Rp2220
ag3
(g7
S'K\xf2~\xd1IV\xf3?'
p2221
tp2222
Rp2223
ag3
(g7
S'\xdbq\xfaR_\x05\xf1?'
p2224
tp2225
Rp2226
asS'\n        num_res: 10\nres_sizes:[ 50  72  94 116 138 161 183 205 227 250]\necho_params:[0.84999999999999998, 0.81111111111111112, 0.77222222222222214, 0.73333333333333328, 0.69444444444444442, 0.65555555555555556, 0.6166666666666667, 0.57777777777777772, 0.53888888888888886, 0.5]\ninput_scales:[1.0, 0.91111111111111109, 0.82222222222222219, 0.73333333333333339, 0.64444444444444438, 0.55555555555555558, 0.46666666666666667, 0.37777777777777777, 0.28888888888888886, 0.20000000000000001]\nspectral_scales:[0.90000000000000002, 0.93888888888888888, 0.97777777777777786, 1.0166666666666666, 1.0555555555555556, 1.0944444444444446, 1.1333333333333333, 1.1722222222222223, 1.2111111111111112, 1.25]\n        regulariser: 0.000100'
p2227
(lp2228
g3
(g7
S'}\xb7\xae\xc1;\xfb\xec?'
p2229
tp2230
Rp2231
ag3
(g7
S'\xb5\x0c\xeb4).\xf0?'
p2232
tp2233
Rp2234
ag3
(g7
S'\x16\x8e\xc7g\xea\xf7\xf1?'
p2235
tp2236
Rp2237
asS'\n        num_res: 10\nres_sizes:[200 200 200 200 200 200 200 200 200 200]\necho_params:[0.84999999999999998, 0.84999999999999998, 0.84999999999999998, 0.84999999999999998, 0.84999999999999998, 0.84999999999999998, 0.84999999999999998, 0.84999999999999998, 0.84999999999999998, 0.84999999999999998]\ninput_scales:[1.0, 0.91111111111111109, 0.82222222222222219, 0.73333333333333339, 0.64444444444444438, 0.55555555555555558, 0.46666666666666667, 0.37777777777777777, 0.28888888888888886, 0.20000000000000001]\nspectral_scales:[0.90000000000000002, 0.93888888888888888, 0.97777777777777786, 1.0166666666666666, 1.0555555555555556, 1.0944444444444446, 1.1333333333333333, 1.1722222222222223, 1.2111111111111112, 1.25]\n        regulariser: 0.010000'
p2238
(lp2239
g3
(g7
S'9\\[\xd0\xae\x18\xfe?'
p2240
tp2241
Rp2242
ag3
(g7
S'}\x03\xca\xd9L\xde\xf6?'
p2243
tp2244
Rp2245
ag3
(g7
S'\xb2Z\xea\xafgJ\x03@'
p2246
tp2247
Rp2248
asS'\n        num_res: 10\nres_sizes:[ 50  72  94 116 138 161 183 205 227 250]\necho_params:[0.84999999999999998, 0.81111111111111112, 0.77222222222222214, 0.73333333333333328, 0.69444444444444442, 0.65555555555555556, 0.6166666666666667, 0.57777777777777772, 0.53888888888888886, 0.5]\ninput_scales:[0.20000000000000001, 0.20000000000000001, 0.20000000000000001, 0.20000000000000001, 0.20000000000000001, 0.20000000000000001, 0.20000000000000001, 0.20000000000000001, 0.20000000000000001, 0.20000000000000001]\nspectral_scales:[0.90000000000000002, 0.87777777777777777, 0.85555555555555551, 0.83333333333333337, 0.81111111111111112, 0.78888888888888886, 0.76666666666666661, 0.74444444444444446, 0.72222222222222221, 0.69999999999999996]\n        regulariser: 0.000100'
p2249
(lp2250
g3
(g7
S'a\xbb\xfc\x86\x84a\xef?'
p2251
tp2252
Rp2253
ag3
(g7
S'\xcf\xf6\x0e\x9e\x1c_\xf1?'
p2254
tp2255
Rp2256
ag3
(g7
S'\xbbv\x07I\xa1\\\xe9?'
p2257
tp2258
Rp2259
asS'\n        num_res: 10\nres_sizes:[200 200 200 200 200 200 200 200 200 200]\necho_params:[0.84999999999999998, 0.84999999999999998, 0.84999999999999998, 0.84999999999999998, 0.84999999999999998, 0.84999999999999998, 0.84999999999999998, 0.84999999999999998, 0.84999999999999998, 0.84999999999999998]\ninput_scales:[0.20000000000000001, 0.20000000000000001, 0.20000000000000001, 0.20000000000000001, 0.20000000000000001, 0.20000000000000001, 0.20000000000000001, 0.20000000000000001, 0.20000000000000001, 0.20000000000000001]\nspectral_scales:[0.90000000000000002, 0.87777777777777777, 0.85555555555555551, 0.83333333333333337, 0.81111111111111112, 0.78888888888888886, 0.76666666666666661, 0.74444444444444446, 0.72222222222222221, 0.69999999999999996]\n        regulariser: 0.001000'
p2260
(lp2261
g3
(g7
S'0\xe7\x80v6\xfd\xf8?'
p2262
tp2263
Rp2264
ag3
(g7
S'\x17\x7f\xb5h\x96\xfe\xf5?'
p2265
tp2266
Rp2267
ag3
(g7
S"'\x176\xc2\xc9\xeb\xf2?"
p2268
tp2269
Rp2270
asS'\n        num_res: 10\nres_sizes:[ 50  72  94 116 138 161 183 205 227 250]\necho_params:[0.84999999999999998, 0.84999999999999998, 0.84999999999999998, 0.84999999999999998, 0.84999999999999998, 0.84999999999999998, 0.84999999999999998, 0.84999999999999998, 0.84999999999999998, 0.84999999999999998]\ninput_scales:[0.20000000000000001, 0.20000000000000001, 0.20000000000000001, 0.20000000000000001, 0.20000000000000001, 0.20000000000000001, 0.20000000000000001, 0.20000000000000001, 0.20000000000000001, 0.20000000000000001]\nspectral_scales:[0.5, 0.58333333333333337, 0.66666666666666663, 0.75, 0.83333333333333326, 0.91666666666666663, 1.0, 1.0833333333333333, 1.1666666666666665, 1.25]\n        regulariser: 0.010000'
p2271
(lp2272
g3
(g7
S'c\xcdb\x1d\x1a\xeb\xf3?'
p2273
tp2274
Rp2275
ag3
(g7
S'\x14\xa2\xa2\xf8;h\xea?'
p2276
tp2277
Rp2278
ag3
(g7
S'3\xed,\xd19"\xf2?'
p2279
tp2280
Rp2281
asS'\n        num_res: 10\nres_sizes:[200 200 200 200 200 200 200 200 200 200]\necho_params:[0.84999999999999998, 0.81111111111111112, 0.77222222222222214, 0.73333333333333328, 0.69444444444444442, 0.65555555555555556, 0.6166666666666667, 0.57777777777777772, 0.53888888888888886, 0.5]\ninput_scales:[0.5, 0.5, 0.5, 0.5, 0.5, 0.5, 0.5, 0.5, 0.5, 0.5]\nspectral_scales:[0.90000000000000002, 0.87777777777777777, 0.85555555555555551, 0.83333333333333337, 0.81111111111111112, 0.78888888888888886, 0.76666666666666661, 0.74444444444444446, 0.72222222222222221, 0.69999999999999996]\n        regulariser: 0.001000'
p2282
(lp2283
g3
(g7
S'\x8dto*tt\xf5?'
p2284
tp2285
Rp2286
ag3
(g7
S'\xc9\x08+\t\xaf\x9a\xf0?'
p2287
tp2288
Rp2289
ag3
(g7
S'i\xb1\xe9\xeb\xe1\x0c\x17@'
p2290
tp2291
Rp2292
asS'\n        num_res: 10\nres_sizes:[100 111 122 133 144 155 166 177 188 200]\necho_params:[0.84999999999999998, 0.81111111111111112, 0.77222222222222214, 0.73333333333333328, 0.69444444444444442, 0.65555555555555556, 0.6166666666666667, 0.57777777777777772, 0.53888888888888886, 0.5]\ninput_scales:[0.20000000000000001, 0.28888888888888892, 0.37777777777777777, 0.46666666666666667, 0.55555555555555558, 0.64444444444444449, 0.73333333333333339, 0.82222222222222219, 0.9111111111111112, 1.0]\nspectral_scales:[1.0, 1.0, 1.0, 1.0, 1.0, 1.0, 1.0, 1.0, 1.0, 1.0]\n        regulariser: 0.001000'
p2293
(lp2294
g3
(g7
S'\xc2\xb3Qp\x9eA\xf1?'
p2295
tp2296
Rp2297
ag3
(g7
S'\x08\x8d\x00XQ\xfb\xe5?'
p2298
tp2299
Rp2300
ag3
(g7
S'\xd9\x0b\x1e\x99\x11\x9b\xf3?'
p2301
tp2302
Rp2303
asS'\n        num_res: 10\nres_sizes:[200 200 200 200 200 200 200 200 200 200]\necho_params:[0.84999999999999998, 0.81111111111111112, 0.77222222222222214, 0.73333333333333328, 0.69444444444444442, 0.65555555555555556, 0.6166666666666667, 0.57777777777777772, 0.53888888888888886, 0.5]\ninput_scales:[0.20000000000000001, 0.28888888888888892, 0.37777777777777777, 0.46666666666666667, 0.55555555555555558, 0.64444444444444449, 0.73333333333333339, 0.82222222222222219, 0.9111111111111112, 1.0]\nspectral_scales:[0.90000000000000002, 0.93888888888888888, 0.97777777777777786, 1.0166666666666666, 1.0555555555555556, 1.0944444444444446, 1.1333333333333333, 1.1722222222222223, 1.2111111111111112, 1.25]\n        regulariser: 0.000100'
p2304
(lp2305
g3
(g7
S'\x1c\xd7\x95\xe8\x84\xde\xef?'
p2306
tp2307
Rp2308
ag3
(g7
S'72>\x91\x89\xba\xeb?'
p2309
tp2310
Rp2311
ag3
(g7
S'7\n\xddg\nH\xe6?'
p2312
tp2313
Rp2314
asS'\n        num_res: 10\nres_sizes:[100 111 122 133 144 155 166 177 188 200]\necho_params:[0.84999999999999998, 0.84999999999999998, 0.84999999999999998, 0.84999999999999998, 0.84999999999999998, 0.84999999999999998, 0.84999999999999998, 0.84999999999999998, 0.84999999999999998, 0.84999999999999998]\ninput_scales:[0.20000000000000001, 0.20000000000000001, 0.20000000000000001, 0.20000000000000001, 0.20000000000000001, 0.20000000000000001, 0.20000000000000001, 0.20000000000000001, 0.20000000000000001, 0.20000000000000001]\nspectral_scales:[0.90000000000000002, 0.93888888888888888, 0.97777777777777786, 1.0166666666666666, 1.0555555555555556, 1.0944444444444446, 1.1333333333333333, 1.1722222222222223, 1.2111111111111112, 1.25]\n        regulariser: 0.010000'
p2315
(lp2316
g3
(g7
S'\xffD\xa9.9\x01\xea?'
p2317
tp2318
Rp2319
ag3
(g7
S'\xc1\xe8\xbe\xa6Y\xdf\xe8?'
p2320
tp2321
Rp2322
ag3
(g7
S']#OE6\x7f\xf1?'
p2323
tp2324
Rp2325
asS'\n        num_res: 10\nres_sizes:[100 111 122 133 144 155 166 177 188 200]\necho_params:[0.84999999999999998, 0.81111111111111112, 0.77222222222222214, 0.73333333333333328, 0.69444444444444442, 0.65555555555555556, 0.6166666666666667, 0.57777777777777772, 0.53888888888888886, 0.5]\ninput_scales:[0.20000000000000001, 0.28888888888888892, 0.37777777777777777, 0.46666666666666667, 0.55555555555555558, 0.64444444444444449, 0.73333333333333339, 0.82222222222222219, 0.9111111111111112, 1.0]\nspectral_scales:[1.0, 1.0, 1.0, 1.0, 1.0, 1.0, 1.0, 1.0, 1.0, 1.0]\n        regulariser: 0.010000'
p2326
(lp2327
g3
(g7
S'\xfcU\x93\xe4\x12\x1d\xee?'
p2328
tp2329
Rp2330
ag3
(g7
S'4\xab{9\x15\xf8\xe8?'
p2331
tp2332
Rp2333
ag3
(g7
S'\xd6U\xea\xb89P\xeb?'
p2334
tp2335
Rp2336
asS'\n        num_res: 10\nres_sizes:[ 50  72  94 116 138 161 183 205 227 250]\necho_params:[0.84999999999999998, 0.84999999999999998, 0.84999999999999998, 0.84999999999999998, 0.84999999999999998, 0.84999999999999998, 0.84999999999999998, 0.84999999999999998, 0.84999999999999998, 0.84999999999999998]\ninput_scales:[1.0, 0.91111111111111109, 0.82222222222222219, 0.73333333333333339, 0.64444444444444438, 0.55555555555555558, 0.46666666666666667, 0.37777777777777777, 0.28888888888888886, 0.20000000000000001]\nspectral_scales:[0.90000000000000002, 0.93888888888888888, 0.97777777777777786, 1.0166666666666666, 1.0555555555555556, 1.0944444444444446, 1.1333333333333333, 1.1722222222222223, 1.2111111111111112, 1.25]\n        regulariser: 0.001000'
p2337
(lp2338
g3
(g7
S'\xf9\x04\x84\x13\xe9\x9e\x14@'
p2339
tp2340
Rp2341
ag3
(g7
S'q\xfb\xf2b\x13\xed\xfe?'
p2342
tp2343
Rp2344
ag3
(g7
S'\x14=\xc0\xa0.\x91\x15@'
p2345
tp2346
Rp2347
asS'\n        num_res: 10\nres_sizes:[200 200 200 200 200 200 200 200 200 200]\necho_params:[0.84999999999999998, 0.81111111111111112, 0.77222222222222214, 0.73333333333333328, 0.69444444444444442, 0.65555555555555556, 0.6166666666666667, 0.57777777777777772, 0.53888888888888886, 0.5]\ninput_scales:[1.0, 0.91111111111111109, 0.82222222222222219, 0.73333333333333339, 0.64444444444444438, 0.55555555555555558, 0.46666666666666667, 0.37777777777777777, 0.28888888888888886, 0.20000000000000001]\nspectral_scales:[0.90000000000000002, 0.93888888888888888, 0.97777777777777786, 1.0166666666666666, 1.0555555555555556, 1.0944444444444446, 1.1333333333333333, 1.1722222222222223, 1.2111111111111112, 1.25]\n        regulariser: 0.000100'
p2348
(lp2349
g3
(g7
S']\xea\xeb\x97\x7f\xea\x1a@'
p2350
tp2351
Rp2352
ag3
(g7
S'64bN\x957,@'
p2353
tp2354
Rp2355
ag3
(g7
S'\x06?\xa2\x00\x07\x95\x10@'
p2356
tp2357
Rp2358
asS'\n        num_res: 10\nres_sizes:[ 50  72  94 116 138 161 183 205 227 250]\necho_params:[0.84999999999999998, 0.84999999999999998, 0.84999999999999998, 0.84999999999999998, 0.84999999999999998, 0.84999999999999998, 0.84999999999999998, 0.84999999999999998, 0.84999999999999998, 0.84999999999999998]\ninput_scales:[0.5, 0.5, 0.5, 0.5, 0.5, 0.5, 0.5, 0.5, 0.5, 0.5]\nspectral_scales:[0.90000000000000002, 0.87777777777777777, 0.85555555555555551, 0.83333333333333337, 0.81111111111111112, 0.78888888888888886, 0.76666666666666661, 0.74444444444444446, 0.72222222222222221, 0.69999999999999996]\n        regulariser: 0.001000'
p2359
(lp2360
g3
(g7
S'i\xb0\xb6\xb0i60@'
p2361
tp2362
Rp2363
ag3
(g7
S'\x9f\x83\xc4D\xf3\x12\x1b@'
p2364
tp2365
Rp2366
ag3
(g7
S'\xb3\xf2\xa3\xdd\x93\xf5\x1f@'
p2367
tp2368
Rp2369
asS'\n        num_res: 10\nres_sizes:[200 200 200 200 200 200 200 200 200 200]\necho_params:[0.84999999999999998, 0.81111111111111112, 0.77222222222222214, 0.73333333333333328, 0.69444444444444442, 0.65555555555555556, 0.6166666666666667, 0.57777777777777772, 0.53888888888888886, 0.5]\ninput_scales:[0.20000000000000001, 0.20000000000000001, 0.20000000000000001, 0.20000000000000001, 0.20000000000000001, 0.20000000000000001, 0.20000000000000001, 0.20000000000000001, 0.20000000000000001, 0.20000000000000001]\nspectral_scales:[0.90000000000000002, 0.87777777777777777, 0.85555555555555551, 0.83333333333333337, 0.81111111111111112, 0.78888888888888886, 0.76666666666666661, 0.74444444444444446, 0.72222222222222221, 0.69999999999999996]\n        regulariser: 0.001000'
p2370
(lp2371
g3
(g7
S'6s[\xea\xb6\xb3\xf2?'
p2372
tp2373
Rp2374
ag3
(g7
S'\xe2\xad\xdc1\xe0\x04\xe2?'
p2375
tp2376
Rp2377
ag3
(g7
S'|\xbd\xa9\x9c\x1f=\xeb?'
p2378
tp2379
Rp2380
asS'\n        num_res: 10\nres_sizes:[200 200 200 200 200 200 200 200 200 200]\necho_params:[0.84999999999999998, 0.81111111111111112, 0.77222222222222214, 0.73333333333333328, 0.69444444444444442, 0.65555555555555556, 0.6166666666666667, 0.57777777777777772, 0.53888888888888886, 0.5]\ninput_scales:[1.0, 0.91111111111111109, 0.82222222222222219, 0.73333333333333339, 0.64444444444444438, 0.55555555555555558, 0.46666666666666667, 0.37777777777777777, 0.28888888888888886, 0.20000000000000001]\nspectral_scales:[0.5, 0.58333333333333337, 0.66666666666666663, 0.75, 0.83333333333333326, 0.91666666666666663, 1.0, 1.0833333333333333, 1.1666666666666665, 1.25]\n        regulariser: 0.001000'
p2381
(lp2382
g3
(g7
S'<\xa4\xffz\xbdm\xf3?'
p2383
tp2384
Rp2385
ag3
(g7
S'\xd6\xc2#q\x90@\xf7?'
p2386
tp2387
Rp2388
ag3
(g7
S'[\x89\x1a^\xb9\xe0\x18@'
p2389
tp2390
Rp2391
asS'\n        num_res: 10\nres_sizes:[ 50  72  94 116 138 161 183 205 227 250]\necho_params:[0.84999999999999998, 0.81111111111111112, 0.77222222222222214, 0.73333333333333328, 0.69444444444444442, 0.65555555555555556, 0.6166666666666667, 0.57777777777777772, 0.53888888888888886, 0.5]\ninput_scales:[0.5, 0.5, 0.5, 0.5, 0.5, 0.5, 0.5, 0.5, 0.5, 0.5]\nspectral_scales:[0.90000000000000002, 0.87777777777777777, 0.85555555555555551, 0.83333333333333337, 0.81111111111111112, 0.78888888888888886, 0.76666666666666661, 0.74444444444444446, 0.72222222222222221, 0.69999999999999996]\n        regulariser: 0.001000'
p2392
(lp2393
g3
(g7
S'b.\xa9O\xa7T\xec?'
p2394
tp2395
Rp2396
ag3
(g7
S'\x82\x86}\xf4qj\xed?'
p2397
tp2398
Rp2399
ag3
(g7
S'\x9eq",<Y\xe8?'
p2400
tp2401
Rp2402
asS'\n        num_res: 10\nres_sizes:[100 111 122 133 144 155 166 177 188 200]\necho_params:[0.84999999999999998, 0.81111111111111112, 0.77222222222222214, 0.73333333333333328, 0.69444444444444442, 0.65555555555555556, 0.6166666666666667, 0.57777777777777772, 0.53888888888888886, 0.5]\ninput_scales:[0.20000000000000001, 0.20000000000000001, 0.20000000000000001, 0.20000000000000001, 0.20000000000000001, 0.20000000000000001, 0.20000000000000001, 0.20000000000000001, 0.20000000000000001, 0.20000000000000001]\nspectral_scales:[0.90000000000000002, 0.93888888888888888, 0.97777777777777786, 1.0166666666666666, 1.0555555555555556, 1.0944444444444446, 1.1333333333333333, 1.1722222222222223, 1.2111111111111112, 1.25]\n        regulariser: 0.001000'
p2403
(lp2404
g3
(g7
S'&a\x00\xba\xf4\x81\xeb?'
p2405
tp2406
Rp2407
ag3
(g7
S'\x14\xfe4A\x07\xa8\xef?'
p2408
tp2409
Rp2410
ag3
(g7
S'\xcbzT\xd0\x9f\xaa\xea?'
p2411
tp2412
Rp2413
asS'\n        num_res: 10\nres_sizes:[ 50  72  94 116 138 161 183 205 227 250]\necho_params:[0.84999999999999998, 0.84999999999999998, 0.84999999999999998, 0.84999999999999998, 0.84999999999999998, 0.84999999999999998, 0.84999999999999998, 0.84999999999999998, 0.84999999999999998, 0.84999999999999998]\ninput_scales:[0.5, 0.5, 0.5, 0.5, 0.5, 0.5, 0.5, 0.5, 0.5, 0.5]\nspectral_scales:[0.90000000000000002, 0.93888888888888888, 0.97777777777777786, 1.0166666666666666, 1.0555555555555556, 1.0944444444444446, 1.1333333333333333, 1.1722222222222223, 1.2111111111111112, 1.25]\n        regulariser: 0.010000'
p2414
(lp2415
g3
(g7
S'\x81 \x82xj\xf8\x14@'
p2416
tp2417
Rp2418
ag3
(g7
S'B\x0fu\xa4D%\xf0?'
p2419
tp2420
Rp2421
ag3
(g7
S'\xa6\xdf\x9bA\x81\xa9\xf0?'
p2422
tp2423
Rp2424
asS'\n        num_res: 10\nres_sizes:[200 200 200 200 200 200 200 200 200 200]\necho_params:[0.84999999999999998, 0.81111111111111112, 0.77222222222222214, 0.73333333333333328, 0.69444444444444442, 0.65555555555555556, 0.6166666666666667, 0.57777777777777772, 0.53888888888888886, 0.5]\ninput_scales:[1.0, 0.91111111111111109, 0.82222222222222219, 0.73333333333333339, 0.64444444444444438, 0.55555555555555558, 0.46666666666666667, 0.37777777777777777, 0.28888888888888886, 0.20000000000000001]\nspectral_scales:[1.0, 1.0, 1.0, 1.0, 1.0, 1.0, 1.0, 1.0, 1.0, 1.0]\n        regulariser: 0.010000'
p2425
(lp2426
g3
(g7
S'\x02\x8ct#Q;\xf2?'
p2427
tp2428
Rp2429
ag3
(g7
S';z \xcb\xb1\x0f\xf9?'
p2430
tp2431
Rp2432
ag3
(g7
S'\xe2\xe41\xba&\xc4\xfa?'
p2433
tp2434
Rp2435
asS'\n        num_res: 10\nres_sizes:[ 50  72  94 116 138 161 183 205 227 250]\necho_params:[0.84999999999999998, 0.84999999999999998, 0.84999999999999998, 0.84999999999999998, 0.84999999999999998, 0.84999999999999998, 0.84999999999999998, 0.84999999999999998, 0.84999999999999998, 0.84999999999999998]\ninput_scales:[1.0, 0.91111111111111109, 0.82222222222222219, 0.73333333333333339, 0.64444444444444438, 0.55555555555555558, 0.46666666666666667, 0.37777777777777777, 0.28888888888888886, 0.20000000000000001]\nspectral_scales:[1.0, 1.0, 1.0, 1.0, 1.0, 1.0, 1.0, 1.0, 1.0, 1.0]\n        regulariser: 0.010000'
p2436
(lp2437
g3
(g7
S"'\x9b\xba|\xbeQ\xf5?"
p2438
tp2439
Rp2440
ag3
(g7
S'\xa681\x1fW\x8d\xf9?'
p2441
tp2442
Rp2443
ag3
(g7
S'K\x16\xd8\xf0\xea\xe9\xf9?'
p2444
tp2445
Rp2446
asS'\n        num_res: 10\nres_sizes:[200 200 200 200 200 200 200 200 200 200]\necho_params:[0.84999999999999998, 0.81111111111111112, 0.77222222222222214, 0.73333333333333328, 0.69444444444444442, 0.65555555555555556, 0.6166666666666667, 0.57777777777777772, 0.53888888888888886, 0.5]\ninput_scales:[0.5, 0.5, 0.5, 0.5, 0.5, 0.5, 0.5, 0.5, 0.5, 0.5]\nspectral_scales:[1.0, 1.0, 1.0, 1.0, 1.0, 1.0, 1.0, 1.0, 1.0, 1.0]\n        regulariser: 0.010000'
p2447
(lp2448
g3
(g7
S'\x10W\x14O\x90\x93\xe8?'
p2449
tp2450
Rp2451
ag3
(g7
S'>\x9c\xe9\xcec\xcf\xef?'
p2452
tp2453
Rp2454
ag3
(g7
S'\xa2M\xfc\xef\xf5\xf2\xe9?'
p2455
tp2456
Rp2457
asS'\n        num_res: 10\nres_sizes:[200 200 200 200 200 200 200 200 200 200]\necho_params:[0.84999999999999998, 0.81111111111111112, 0.77222222222222214, 0.73333333333333328, 0.69444444444444442, 0.65555555555555556, 0.6166666666666667, 0.57777777777777772, 0.53888888888888886, 0.5]\ninput_scales:[0.5, 0.5, 0.5, 0.5, 0.5, 0.5, 0.5, 0.5, 0.5, 0.5]\nspectral_scales:[0.90000000000000002, 0.87777777777777777, 0.85555555555555551, 0.83333333333333337, 0.81111111111111112, 0.78888888888888886, 0.76666666666666661, 0.74444444444444446, 0.72222222222222221, 0.69999999999999996]\n        regulariser: 0.010000'
p2458
(lp2459
g3
(g7
S'H\xb5\xf4\xa8\x06\xc2\xf4?'
p2460
tp2461
Rp2462
ag3
(g7
S',t\xdd\xb3\xc0t\xf1?'
p2463
tp2464
Rp2465
ag3
(g7
S'\xd6\xfbF\xda\x88l\xf5?'
p2466
tp2467
Rp2468
asS'\n        num_res: 10\nres_sizes:[100 111 122 133 144 155 166 177 188 200]\necho_params:[0.84999999999999998, 0.81111111111111112, 0.77222222222222214, 0.73333333333333328, 0.69444444444444442, 0.65555555555555556, 0.6166666666666667, 0.57777777777777772, 0.53888888888888886, 0.5]\ninput_scales:[0.5, 0.5, 0.5, 0.5, 0.5, 0.5, 0.5, 0.5, 0.5, 0.5]\nspectral_scales:[1.0, 1.0, 1.0, 1.0, 1.0, 1.0, 1.0, 1.0, 1.0, 1.0]\n        regulariser: 0.001000'
p2469
(lp2470
g3
(g7
S'\x1a@\xe1@}y\xea?'
p2471
tp2472
Rp2473
ag3
(g7
S'ES\xaf\x07\xeaO\xf2?'
p2474
tp2475
Rp2476
ag3
(g7
S'.\xb7\xb2[\xd4\x1f\xf3?'
p2477
tp2478
Rp2479
asS'\n        num_res: 10\nres_sizes:[100 111 122 133 144 155 166 177 188 200]\necho_params:[0.84999999999999998, 0.81111111111111112, 0.77222222222222214, 0.73333333333333328, 0.69444444444444442, 0.65555555555555556, 0.6166666666666667, 0.57777777777777772, 0.53888888888888886, 0.5]\ninput_scales:[0.20000000000000001, 0.28888888888888892, 0.37777777777777777, 0.46666666666666667, 0.55555555555555558, 0.64444444444444449, 0.73333333333333339, 0.82222222222222219, 0.9111111111111112, 1.0]\nspectral_scales:[0.90000000000000002, 0.93888888888888888, 0.97777777777777786, 1.0166666666666666, 1.0555555555555556, 1.0944444444444446, 1.1333333333333333, 1.1722222222222223, 1.2111111111111112, 1.25]\n        regulariser: 0.000100'
p2480
(lp2481
g3
(g7
S'\x13\xcd\xba\xaa\x19\xe8\xe7?'
p2482
tp2483
Rp2484
ag3
(g7
S'\xd2L\x95\x98\xf5\x96\xed?'
p2485
tp2486
Rp2487
ag3
(g7
S';\xf5\xd0\xd2Ds\xde?'
p2488
tp2489
Rp2490
asS'\n        num_res: 10\nres_sizes:[200 200 200 200 200 200 200 200 200 200]\necho_params:[0.84999999999999998, 0.84999999999999998, 0.84999999999999998, 0.84999999999999998, 0.84999999999999998, 0.84999999999999998, 0.84999999999999998, 0.84999999999999998, 0.84999999999999998, 0.84999999999999998]\ninput_scales:[1.0, 0.91111111111111109, 0.82222222222222219, 0.73333333333333339, 0.64444444444444438, 0.55555555555555558, 0.46666666666666667, 0.37777777777777777, 0.28888888888888886, 0.20000000000000001]\nspectral_scales:[0.5, 0.58333333333333337, 0.66666666666666663, 0.75, 0.83333333333333326, 0.91666666666666663, 1.0, 1.0833333333333333, 1.1666666666666665, 1.25]\n        regulariser: 0.010000'
p2491
(lp2492
g3
(g7
S'%\x1b\tRW\x1a\x05@'
p2493
tp2494
Rp2495
ag3
(g7
S'_u1\x11\xdc\x0e\x14@'
p2496
tp2497
Rp2498
ag3
(g7
S'\x97R\x9fUVT\x14@'
p2499
tp2500
Rp2501
asS'\n        num_res: 10\nres_sizes:[ 50  72  94 116 138 161 183 205 227 250]\necho_params:[0.84999999999999998, 0.81111111111111112, 0.77222222222222214, 0.73333333333333328, 0.69444444444444442, 0.65555555555555556, 0.6166666666666667, 0.57777777777777772, 0.53888888888888886, 0.5]\ninput_scales:[1.0, 0.91111111111111109, 0.82222222222222219, 0.73333333333333339, 0.64444444444444438, 0.55555555555555558, 0.46666666666666667, 0.37777777777777777, 0.28888888888888886, 0.20000000000000001]\nspectral_scales:[1.0, 1.0, 1.0, 1.0, 1.0, 1.0, 1.0, 1.0, 1.0, 1.0]\n        regulariser: 0.010000'
p2502
(lp2503
g3
(g7
S'\xf5\x9b\xca\xf7\xcd|\xed?'
p2504
tp2505
Rp2506
ag3
(g7
S'\xd70\xcel6\x10\xfb?'
p2507
tp2508
Rp2509
ag3
(g7
S'\x98u\x03\xca\xcf\xcc\xea?'
p2510
tp2511
Rp2512
asS'\n        num_res: 10\nres_sizes:[200 200 200 200 200 200 200 200 200 200]\necho_params:[0.84999999999999998, 0.81111111111111112, 0.77222222222222214, 0.73333333333333328, 0.69444444444444442, 0.65555555555555556, 0.6166666666666667, 0.57777777777777772, 0.53888888888888886, 0.5]\ninput_scales:[1.0, 0.91111111111111109, 0.82222222222222219, 0.73333333333333339, 0.64444444444444438, 0.55555555555555558, 0.46666666666666667, 0.37777777777777777, 0.28888888888888886, 0.20000000000000001]\nspectral_scales:[0.90000000000000002, 0.87777777777777777, 0.85555555555555551, 0.83333333333333337, 0.81111111111111112, 0.78888888888888886, 0.76666666666666661, 0.74444444444444446, 0.72222222222222221, 0.69999999999999996]\n        regulariser: 0.001000'
p2513
(lp2514
g3
(g7
S'30\x1f\x9f\xd9\xfa\x13@'
p2515
tp2516
Rp2517
ag3
(g7
S"(_\xefd\x87'\t@"
p2518
tp2519
Rp2520
ag3
(g7
S'N4\xfe\x83\x1f\xcc @'
p2521
tp2522
Rp2523
as.